
Software/Sample_C_Codes/fibonacci/fibonacci_firmware.elf:     file format elf32-littleriscv


Disassembly of section .text:

00010000 <_start>:
   10000:	00002197          	auipc	gp,0x2
   10004:	34018193          	addi	gp,gp,832 # 12340 <__global_pointer$>
   10008:	80818513          	addi	a0,gp,-2040 # 11b48 <_edata>
   1000c:	82818613          	addi	a2,gp,-2008 # 11b68 <_end>
   10010:	40a60633          	sub	a2,a2,a0
   10014:	00000593          	li	a1,0
   10018:	410000ef          	jal	ra,10428 <memset>
   1001c:	00000517          	auipc	a0,0x0
   10020:	31850513          	addi	a0,a0,792 # 10334 <__libc_fini_array>
   10024:	2b4000ef          	jal	ra,102d8 <atexit>
   10028:	36c000ef          	jal	ra,10394 <__libc_init_array>
   1002c:	00012503          	lw	a0,0(sp)
   10030:	00410593          	addi	a1,sp,4
   10034:	00000613          	li	a2,0
   10038:	08c000ef          	jal	ra,100c4 <main>
   1003c:	2c00006f          	j	102fc <exit>

00010040 <__do_global_dtors_aux>:
   10040:	00002797          	auipc	a5,0x2
   10044:	b087c783          	lbu	a5,-1272(a5) # 11b48 <_edata>
   10048:	04079863          	bnez	a5,10098 <__do_global_dtors_aux+0x58>
   1004c:	ffff0797          	auipc	a5,0xffff0
   10050:	fb478793          	addi	a5,a5,-76 # 0 <_start-0x10000>
   10054:	02078a63          	beqz	a5,10088 <__do_global_dtors_aux+0x48>
   10058:	ff010113          	addi	sp,sp,-16
   1005c:	00001517          	auipc	a0,0x1
   10060:	6a850513          	addi	a0,a0,1704 # 11704 <__FRAME_END__>
   10064:	00112623          	sw	ra,12(sp)
   10068:	00000097          	auipc	ra,0x0
   1006c:	000000e7          	jalr	zero # 0 <_start-0x10000>
   10070:	00c12083          	lw	ra,12(sp)
   10074:	00100793          	li	a5,1
   10078:	00002717          	auipc	a4,0x2
   1007c:	acf70823          	sb	a5,-1328(a4) # 11b48 <_edata>
   10080:	01010113          	addi	sp,sp,16
   10084:	00008067          	ret
   10088:	00100793          	li	a5,1
   1008c:	00002717          	auipc	a4,0x2
   10090:	aaf70e23          	sb	a5,-1348(a4) # 11b48 <_edata>
   10094:	00008067          	ret
   10098:	00008067          	ret

0001009c <frame_dummy>:
   1009c:	ffff0797          	auipc	a5,0xffff0
   100a0:	f6478793          	addi	a5,a5,-156 # 0 <_start-0x10000>
   100a4:	00078e63          	beqz	a5,100c0 <frame_dummy+0x24>
   100a8:	00002597          	auipc	a1,0x2
   100ac:	aa458593          	addi	a1,a1,-1372 # 11b4c <object.5439>
   100b0:	00001517          	auipc	a0,0x1
   100b4:	65450513          	addi	a0,a0,1620 # 11704 <__FRAME_END__>
   100b8:	00000317          	auipc	t1,0x0
   100bc:	00000067          	jr	zero # 0 <_start-0x10000>
   100c0:	00008067          	ret

000100c4 <main>:
   100c4:	fd010113          	addi	sp,sp,-48
   100c8:	02812623          	sw	s0,44(sp)
   100cc:	03010413          	addi	s0,sp,48
   100d0:	fe042623          	sw	zero,-20(s0)
   100d4:	00100793          	li	a5,1
   100d8:	fef42423          	sw	a5,-24(s0)
   100dc:	00a00793          	li	a5,10
   100e0:	fef42023          	sw	a5,-32(s0)
   100e4:	00200793          	li	a5,2
   100e8:	fef42223          	sw	a5,-28(s0)
   100ec:	0300006f          	j	1011c <main+0x58>
   100f0:	fec42703          	lw	a4,-20(s0)
   100f4:	fe842783          	lw	a5,-24(s0)
   100f8:	00f707b3          	add	a5,a4,a5
   100fc:	fcf42e23          	sw	a5,-36(s0)
   10100:	fe842783          	lw	a5,-24(s0)
   10104:	fef42623          	sw	a5,-20(s0)
   10108:	fdc42783          	lw	a5,-36(s0)
   1010c:	fef42423          	sw	a5,-24(s0)
   10110:	fe442783          	lw	a5,-28(s0)
   10114:	00178793          	addi	a5,a5,1
   10118:	fef42223          	sw	a5,-28(s0)
   1011c:	fe442703          	lw	a4,-28(s0)
   10120:	fe042783          	lw	a5,-32(s0)
   10124:	fcf746e3          	blt	a4,a5,100f0 <main+0x2c>
   10128:	00000793          	li	a5,0
   1012c:	00078513          	mv	a0,a5
   10130:	02c12403          	lw	s0,44(sp)
   10134:	03010113          	addi	sp,sp,48
   10138:	00008067          	ret

0001013c <_access>:
   1013c:	0040006f          	j	10140 <unimplemented_syscall>

00010140 <unimplemented_syscall>:
   10140:	fe010113          	addi	sp,sp,-32
   10144:	00812e23          	sw	s0,28(sp)
   10148:	02010413          	addi	s0,sp,32
   1014c:	000107b7          	lui	a5,0x10
   10150:	6e078793          	addi	a5,a5,1760 # 106e0 <register_fini+0x1c>
   10154:	fef42623          	sw	a5,-20(s0)
   10158:	01c0006f          	j	10174 <unimplemented_syscall+0x34>
   1015c:	fec42783          	lw	a5,-20(s0)
   10160:	00178713          	addi	a4,a5,1
   10164:	fee42623          	sw	a4,-20(s0)
   10168:	0007c703          	lbu	a4,0(a5)
   1016c:	100007b7          	lui	a5,0x10000
   10170:	00e7a023          	sw	a4,0(a5) # 10000000 <__global_pointer$+0xffedcc0>
   10174:	fec42783          	lw	a5,-20(s0)
   10178:	0007c783          	lbu	a5,0(a5)
   1017c:	fe0790e3          	bnez	a5,1015c <unimplemented_syscall+0x1c>
   10180:	00100073          	ebreak

00010184 <_read>:
   10184:	fe010113          	addi	sp,sp,-32
   10188:	00812e23          	sw	s0,28(sp)
   1018c:	02010413          	addi	s0,sp,32
   10190:	fea42623          	sw	a0,-20(s0)
   10194:	feb42423          	sw	a1,-24(s0)
   10198:	fec42223          	sw	a2,-28(s0)
   1019c:	00000793          	li	a5,0
   101a0:	00078513          	mv	a0,a5
   101a4:	01c12403          	lw	s0,28(sp)
   101a8:	02010113          	addi	sp,sp,32
   101ac:	00008067          	ret

000101b0 <_write>:
   101b0:	fd010113          	addi	sp,sp,-48
   101b4:	02812623          	sw	s0,44(sp)
   101b8:	03010413          	addi	s0,sp,48
   101bc:	fca42e23          	sw	a0,-36(s0)
   101c0:	fcb42c23          	sw	a1,-40(s0)
   101c4:	fcc42a23          	sw	a2,-44(s0)
   101c8:	fd842703          	lw	a4,-40(s0)
   101cc:	fd442783          	lw	a5,-44(s0)
   101d0:	00f707b3          	add	a5,a4,a5
   101d4:	fef42623          	sw	a5,-20(s0)
   101d8:	01c0006f          	j	101f4 <_write+0x44>
   101dc:	fd842783          	lw	a5,-40(s0)
   101e0:	00178713          	addi	a4,a5,1
   101e4:	fce42c23          	sw	a4,-40(s0)
   101e8:	0007c703          	lbu	a4,0(a5)
   101ec:	100007b7          	lui	a5,0x10000
   101f0:	00e7a023          	sw	a4,0(a5) # 10000000 <__global_pointer$+0xffedcc0>
   101f4:	fd842703          	lw	a4,-40(s0)
   101f8:	fec42783          	lw	a5,-20(s0)
   101fc:	fef710e3          	bne	a4,a5,101dc <_write+0x2c>
   10200:	fd442783          	lw	a5,-44(s0)
   10204:	00078513          	mv	a0,a5
   10208:	02c12403          	lw	s0,44(sp)
   1020c:	03010113          	addi	sp,sp,48
   10210:	00008067          	ret

00010214 <_close>:
   10214:	fe010113          	addi	sp,sp,-32
   10218:	00812e23          	sw	s0,28(sp)
   1021c:	02010413          	addi	s0,sp,32
   10220:	fea42623          	sw	a0,-20(s0)
   10224:	00000793          	li	a5,0
   10228:	00078513          	mv	a0,a5
   1022c:	01c12403          	lw	s0,28(sp)
   10230:	02010113          	addi	sp,sp,32
   10234:	00008067          	ret

00010238 <_fstat>:
   10238:	fe010113          	addi	sp,sp,-32
   1023c:	00112e23          	sw	ra,28(sp)
   10240:	00812c23          	sw	s0,24(sp)
   10244:	02010413          	addi	s0,sp,32
   10248:	fea42623          	sw	a0,-20(s0)
   1024c:	feb42423          	sw	a1,-24(s0)
   10250:	09c000ef          	jal	ra,102ec <__errno>
   10254:	00050713          	mv	a4,a0
   10258:	00200793          	li	a5,2
   1025c:	00f72023          	sw	a5,0(a4)
   10260:	fff00793          	li	a5,-1
   10264:	00078513          	mv	a0,a5
   10268:	01c12083          	lw	ra,28(sp)
   1026c:	01812403          	lw	s0,24(sp)
   10270:	02010113          	addi	sp,sp,32
   10274:	00008067          	ret

00010278 <_sbrk>:
   10278:	fe010113          	addi	sp,sp,-32
   1027c:	00812e23          	sw	s0,28(sp)
   10280:	02010413          	addi	s0,sp,32
   10284:	fea42623          	sw	a0,-20(s0)
   10288:	8241a783          	lw	a5,-2012(gp) # 11b64 <heap_end.2320>
   1028c:	00079663          	bnez	a5,10298 <_sbrk+0x20>
   10290:	82818713          	addi	a4,gp,-2008 # 11b68 <_end>
   10294:	82e1a223          	sw	a4,-2012(gp) # 11b64 <heap_end.2320>
   10298:	8241a703          	lw	a4,-2012(gp) # 11b64 <heap_end.2320>
   1029c:	fec42783          	lw	a5,-20(s0)
   102a0:	00f70733          	add	a4,a4,a5
   102a4:	82e1a223          	sw	a4,-2012(gp) # 11b64 <heap_end.2320>
   102a8:	8241a703          	lw	a4,-2012(gp) # 11b64 <heap_end.2320>
   102ac:	fec42783          	lw	a5,-20(s0)
   102b0:	40f707b3          	sub	a5,a4,a5
   102b4:	00078513          	mv	a0,a5
   102b8:	01c12403          	lw	s0,28(sp)
   102bc:	02010113          	addi	sp,sp,32
   102c0:	00008067          	ret

000102c4 <_exit>:
   102c4:	fe010113          	addi	sp,sp,-32
   102c8:	00812e23          	sw	s0,28(sp)
   102cc:	02010413          	addi	s0,sp,32
   102d0:	fea42623          	sw	a0,-20(s0)
   102d4:	00100073          	ebreak

000102d8 <atexit>:
   102d8:	00050593          	mv	a1,a0
   102dc:	00000693          	li	a3,0
   102e0:	00000613          	li	a2,0
   102e4:	00000513          	li	a0,0
   102e8:	21c0006f          	j	10504 <__register_exitproc>

000102ec <__errno>:
   102ec:	00002797          	auipc	a5,0x2
   102f0:	85878793          	addi	a5,a5,-1960 # 11b44 <_impure_ptr>
   102f4:	0007a503          	lw	a0,0(a5)
   102f8:	00008067          	ret

000102fc <exit>:
   102fc:	ff010113          	addi	sp,sp,-16
   10300:	00000593          	li	a1,0
   10304:	00812423          	sw	s0,8(sp)
   10308:	00112623          	sw	ra,12(sp)
   1030c:	00050413          	mv	s0,a0
   10310:	294000ef          	jal	ra,105a4 <__call_exitprocs>
   10314:	00002797          	auipc	a5,0x2
   10318:	82c78793          	addi	a5,a5,-2004 # 11b40 <_global_impure_ptr>
   1031c:	0007a503          	lw	a0,0(a5)
   10320:	03c52783          	lw	a5,60(a0)
   10324:	00078463          	beqz	a5,1032c <exit+0x30>
   10328:	000780e7          	jalr	a5
   1032c:	00040513          	mv	a0,s0
   10330:	f95ff0ef          	jal	ra,102c4 <_exit>

00010334 <__libc_fini_array>:
   10334:	ff010113          	addi	sp,sp,-16
   10338:	00812423          	sw	s0,8(sp)
   1033c:	00001797          	auipc	a5,0x1
   10340:	3d478793          	addi	a5,a5,980 # 11710 <__init_array_end>
   10344:	00001417          	auipc	s0,0x1
   10348:	3d040413          	addi	s0,s0,976 # 11714 <__fini_array_end>
   1034c:	40f40433          	sub	s0,s0,a5
   10350:	00112623          	sw	ra,12(sp)
   10354:	00912223          	sw	s1,4(sp)
   10358:	40245413          	srai	s0,s0,0x2
   1035c:	02040263          	beqz	s0,10380 <__libc_fini_array+0x4c>
   10360:	00241493          	slli	s1,s0,0x2
   10364:	ffc48493          	addi	s1,s1,-4
   10368:	00f484b3          	add	s1,s1,a5
   1036c:	0004a783          	lw	a5,0(s1)
   10370:	fff40413          	addi	s0,s0,-1
   10374:	ffc48493          	addi	s1,s1,-4
   10378:	000780e7          	jalr	a5
   1037c:	fe0418e3          	bnez	s0,1036c <__libc_fini_array+0x38>
   10380:	00c12083          	lw	ra,12(sp)
   10384:	00812403          	lw	s0,8(sp)
   10388:	00412483          	lw	s1,4(sp)
   1038c:	01010113          	addi	sp,sp,16
   10390:	00008067          	ret

00010394 <__libc_init_array>:
   10394:	ff010113          	addi	sp,sp,-16
   10398:	00812423          	sw	s0,8(sp)
   1039c:	01212023          	sw	s2,0(sp)
   103a0:	00001417          	auipc	s0,0x1
   103a4:	36840413          	addi	s0,s0,872 # 11708 <__init_array_start>
   103a8:	00001917          	auipc	s2,0x1
   103ac:	36090913          	addi	s2,s2,864 # 11708 <__init_array_start>
   103b0:	40890933          	sub	s2,s2,s0
   103b4:	00112623          	sw	ra,12(sp)
   103b8:	00912223          	sw	s1,4(sp)
   103bc:	40295913          	srai	s2,s2,0x2
   103c0:	00090e63          	beqz	s2,103dc <__libc_init_array+0x48>
   103c4:	00000493          	li	s1,0
   103c8:	00042783          	lw	a5,0(s0)
   103cc:	00148493          	addi	s1,s1,1
   103d0:	00440413          	addi	s0,s0,4
   103d4:	000780e7          	jalr	a5
   103d8:	fe9918e3          	bne	s2,s1,103c8 <__libc_init_array+0x34>
   103dc:	00001417          	auipc	s0,0x1
   103e0:	32c40413          	addi	s0,s0,812 # 11708 <__init_array_start>
   103e4:	00001917          	auipc	s2,0x1
   103e8:	32c90913          	addi	s2,s2,812 # 11710 <__init_array_end>
   103ec:	40890933          	sub	s2,s2,s0
   103f0:	40295913          	srai	s2,s2,0x2
   103f4:	00090e63          	beqz	s2,10410 <__libc_init_array+0x7c>
   103f8:	00000493          	li	s1,0
   103fc:	00042783          	lw	a5,0(s0)
   10400:	00148493          	addi	s1,s1,1
   10404:	00440413          	addi	s0,s0,4
   10408:	000780e7          	jalr	a5
   1040c:	fe9918e3          	bne	s2,s1,103fc <__libc_init_array+0x68>
   10410:	00c12083          	lw	ra,12(sp)
   10414:	00812403          	lw	s0,8(sp)
   10418:	00412483          	lw	s1,4(sp)
   1041c:	00012903          	lw	s2,0(sp)
   10420:	01010113          	addi	sp,sp,16
   10424:	00008067          	ret

00010428 <memset>:
   10428:	00f00313          	li	t1,15
   1042c:	00050713          	mv	a4,a0
   10430:	02c37e63          	bgeu	t1,a2,1046c <memset+0x44>
   10434:	00f77793          	andi	a5,a4,15
   10438:	0a079063          	bnez	a5,104d8 <memset+0xb0>
   1043c:	08059263          	bnez	a1,104c0 <memset+0x98>
   10440:	ff067693          	andi	a3,a2,-16
   10444:	00f67613          	andi	a2,a2,15
   10448:	00e686b3          	add	a3,a3,a4
   1044c:	00b72023          	sw	a1,0(a4)
   10450:	00b72223          	sw	a1,4(a4)
   10454:	00b72423          	sw	a1,8(a4)
   10458:	00b72623          	sw	a1,12(a4)
   1045c:	01070713          	addi	a4,a4,16
   10460:	fed766e3          	bltu	a4,a3,1044c <memset+0x24>
   10464:	00061463          	bnez	a2,1046c <memset+0x44>
   10468:	00008067          	ret
   1046c:	40c306b3          	sub	a3,t1,a2
   10470:	00269693          	slli	a3,a3,0x2
   10474:	00000297          	auipc	t0,0x0
   10478:	005686b3          	add	a3,a3,t0
   1047c:	00c68067          	jr	12(a3)
   10480:	00b70723          	sb	a1,14(a4)
   10484:	00b706a3          	sb	a1,13(a4)
   10488:	00b70623          	sb	a1,12(a4)
   1048c:	00b705a3          	sb	a1,11(a4)
   10490:	00b70523          	sb	a1,10(a4)
   10494:	00b704a3          	sb	a1,9(a4)
   10498:	00b70423          	sb	a1,8(a4)
   1049c:	00b703a3          	sb	a1,7(a4)
   104a0:	00b70323          	sb	a1,6(a4)
   104a4:	00b702a3          	sb	a1,5(a4)
   104a8:	00b70223          	sb	a1,4(a4)
   104ac:	00b701a3          	sb	a1,3(a4)
   104b0:	00b70123          	sb	a1,2(a4)
   104b4:	00b700a3          	sb	a1,1(a4)
   104b8:	00b70023          	sb	a1,0(a4)
   104bc:	00008067          	ret
   104c0:	0ff5f593          	andi	a1,a1,255
   104c4:	00859693          	slli	a3,a1,0x8
   104c8:	00d5e5b3          	or	a1,a1,a3
   104cc:	01059693          	slli	a3,a1,0x10
   104d0:	00d5e5b3          	or	a1,a1,a3
   104d4:	f6dff06f          	j	10440 <memset+0x18>
   104d8:	00279693          	slli	a3,a5,0x2
   104dc:	00000297          	auipc	t0,0x0
   104e0:	005686b3          	add	a3,a3,t0
   104e4:	00008293          	mv	t0,ra
   104e8:	fa0680e7          	jalr	-96(a3)
   104ec:	00028093          	mv	ra,t0
   104f0:	ff078793          	addi	a5,a5,-16
   104f4:	40f70733          	sub	a4,a4,a5
   104f8:	00f60633          	add	a2,a2,a5
   104fc:	f6c378e3          	bgeu	t1,a2,1046c <memset+0x44>
   10500:	f3dff06f          	j	1043c <memset+0x14>

00010504 <__register_exitproc>:
   10504:	00001797          	auipc	a5,0x1
   10508:	63c78793          	addi	a5,a5,1596 # 11b40 <_global_impure_ptr>
   1050c:	0007a703          	lw	a4,0(a5)
   10510:	14872783          	lw	a5,328(a4)
   10514:	04078c63          	beqz	a5,1056c <__register_exitproc+0x68>
   10518:	0047a703          	lw	a4,4(a5)
   1051c:	01f00813          	li	a6,31
   10520:	06e84e63          	blt	a6,a4,1059c <__register_exitproc+0x98>
   10524:	00271813          	slli	a6,a4,0x2
   10528:	02050663          	beqz	a0,10554 <__register_exitproc+0x50>
   1052c:	01078333          	add	t1,a5,a6
   10530:	08c32423          	sw	a2,136(t1) # 10140 <unimplemented_syscall>
   10534:	1887a883          	lw	a7,392(a5)
   10538:	00100613          	li	a2,1
   1053c:	00e61633          	sll	a2,a2,a4
   10540:	00c8e8b3          	or	a7,a7,a2
   10544:	1917a423          	sw	a7,392(a5)
   10548:	10d32423          	sw	a3,264(t1)
   1054c:	00200693          	li	a3,2
   10550:	02d50463          	beq	a0,a3,10578 <__register_exitproc+0x74>
   10554:	00170713          	addi	a4,a4,1
   10558:	00e7a223          	sw	a4,4(a5)
   1055c:	010787b3          	add	a5,a5,a6
   10560:	00b7a423          	sw	a1,8(a5)
   10564:	00000513          	li	a0,0
   10568:	00008067          	ret
   1056c:	14c70793          	addi	a5,a4,332
   10570:	14f72423          	sw	a5,328(a4)
   10574:	fa5ff06f          	j	10518 <__register_exitproc+0x14>
   10578:	18c7a683          	lw	a3,396(a5)
   1057c:	00170713          	addi	a4,a4,1
   10580:	00e7a223          	sw	a4,4(a5)
   10584:	00c6e633          	or	a2,a3,a2
   10588:	18c7a623          	sw	a2,396(a5)
   1058c:	010787b3          	add	a5,a5,a6
   10590:	00b7a423          	sw	a1,8(a5)
   10594:	00000513          	li	a0,0
   10598:	00008067          	ret
   1059c:	fff00513          	li	a0,-1
   105a0:	00008067          	ret

000105a4 <__call_exitprocs>:
   105a4:	fd010113          	addi	sp,sp,-48
   105a8:	00001797          	auipc	a5,0x1
   105ac:	59878793          	addi	a5,a5,1432 # 11b40 <_global_impure_ptr>
   105b0:	01812423          	sw	s8,8(sp)
   105b4:	0007ac03          	lw	s8,0(a5)
   105b8:	01312e23          	sw	s3,28(sp)
   105bc:	01412c23          	sw	s4,24(sp)
   105c0:	01512a23          	sw	s5,20(sp)
   105c4:	01612823          	sw	s6,16(sp)
   105c8:	02112623          	sw	ra,44(sp)
   105cc:	02812423          	sw	s0,40(sp)
   105d0:	02912223          	sw	s1,36(sp)
   105d4:	03212023          	sw	s2,32(sp)
   105d8:	01712623          	sw	s7,12(sp)
   105dc:	00050a93          	mv	s5,a0
   105e0:	00058b13          	mv	s6,a1
   105e4:	00100a13          	li	s4,1
   105e8:	fff00993          	li	s3,-1
   105ec:	148c2903          	lw	s2,328(s8)
   105f0:	02090863          	beqz	s2,10620 <__call_exitprocs+0x7c>
   105f4:	00492483          	lw	s1,4(s2)
   105f8:	fff48413          	addi	s0,s1,-1
   105fc:	02044263          	bltz	s0,10620 <__call_exitprocs+0x7c>
   10600:	00249493          	slli	s1,s1,0x2
   10604:	009904b3          	add	s1,s2,s1
   10608:	040b0463          	beqz	s6,10650 <__call_exitprocs+0xac>
   1060c:	1044a783          	lw	a5,260(s1)
   10610:	05678063          	beq	a5,s6,10650 <__call_exitprocs+0xac>
   10614:	fff40413          	addi	s0,s0,-1
   10618:	ffc48493          	addi	s1,s1,-4
   1061c:	ff3416e3          	bne	s0,s3,10608 <__call_exitprocs+0x64>
   10620:	02c12083          	lw	ra,44(sp)
   10624:	02812403          	lw	s0,40(sp)
   10628:	02412483          	lw	s1,36(sp)
   1062c:	02012903          	lw	s2,32(sp)
   10630:	01c12983          	lw	s3,28(sp)
   10634:	01812a03          	lw	s4,24(sp)
   10638:	01412a83          	lw	s5,20(sp)
   1063c:	01012b03          	lw	s6,16(sp)
   10640:	00c12b83          	lw	s7,12(sp)
   10644:	00812c03          	lw	s8,8(sp)
   10648:	03010113          	addi	sp,sp,48
   1064c:	00008067          	ret
   10650:	00492783          	lw	a5,4(s2)
   10654:	0044a683          	lw	a3,4(s1)
   10658:	fff78793          	addi	a5,a5,-1
   1065c:	04878a63          	beq	a5,s0,106b0 <__call_exitprocs+0x10c>
   10660:	0004a223          	sw	zero,4(s1)
   10664:	fa0688e3          	beqz	a3,10614 <__call_exitprocs+0x70>
   10668:	18892783          	lw	a5,392(s2)
   1066c:	008a1733          	sll	a4,s4,s0
   10670:	00492b83          	lw	s7,4(s2)
   10674:	00f777b3          	and	a5,a4,a5
   10678:	00079e63          	bnez	a5,10694 <__call_exitprocs+0xf0>
   1067c:	000680e7          	jalr	a3
   10680:	00492783          	lw	a5,4(s2)
   10684:	f77794e3          	bne	a5,s7,105ec <__call_exitprocs+0x48>
   10688:	148c2783          	lw	a5,328(s8)
   1068c:	f92784e3          	beq	a5,s2,10614 <__call_exitprocs+0x70>
   10690:	f5dff06f          	j	105ec <__call_exitprocs+0x48>
   10694:	18c92783          	lw	a5,396(s2)
   10698:	0844a583          	lw	a1,132(s1)
   1069c:	00f77733          	and	a4,a4,a5
   106a0:	00071c63          	bnez	a4,106b8 <__call_exitprocs+0x114>
   106a4:	000a8513          	mv	a0,s5
   106a8:	000680e7          	jalr	a3
   106ac:	fd5ff06f          	j	10680 <__call_exitprocs+0xdc>
   106b0:	00892223          	sw	s0,4(s2)
   106b4:	fb1ff06f          	j	10664 <__call_exitprocs+0xc0>
   106b8:	00058513          	mv	a0,a1
   106bc:	000680e7          	jalr	a3
   106c0:	fc1ff06f          	j	10680 <__call_exitprocs+0xdc>

000106c4 <register_fini>:
   106c4:	ffff0797          	auipc	a5,0xffff0
   106c8:	93c78793          	addi	a5,a5,-1732 # 0 <_start-0x10000>
   106cc:	00078863          	beqz	a5,106dc <register_fini+0x18>
   106d0:	00000517          	auipc	a0,0x0
   106d4:	c6450513          	addi	a0,a0,-924 # 10334 <__libc_fini_array>
   106d8:	c01ff06f          	j	102d8 <atexit>
   106dc:	00008067          	ret
