
Software/Sample_C_Codes/fibonacci/fibonacci_firmware.elf:     file format elf32-littleriscv


Disassembly of section .text:

00010000 <_start>:
   10000:	00017197          	auipc	gp,0x17
   10004:	57018193          	addi	gp,gp,1392 # 27570 <__global_pointer$>
   10008:	82818513          	addi	a0,gp,-2008 # 26d98 <_edata>
   1000c:	88018613          	addi	a2,gp,-1920 # 26df0 <_end>
   10010:	40a60633          	sub	a2,a2,a0
   10014:	00000593          	li	a1,0
   10018:	414000ef          	jal	ra,1042c <memset>
   1001c:	00000517          	auipc	a0,0x0
   10020:	31c50513          	addi	a0,a0,796 # 10338 <__libc_fini_array>
   10024:	2c0000ef          	jal	ra,102e4 <atexit>
   10028:	370000ef          	jal	ra,10398 <__libc_init_array>
   1002c:	00012503          	lw	a0,0(sp)
   10030:	00410593          	addi	a1,sp,4
   10034:	00000613          	li	a2,0
   10038:	07c000ef          	jal	ra,100b4 <main>
   1003c:	2c80006f          	j	10304 <exit>

00010040 <__do_global_dtors_aux>:
   10040:	8341c783          	lbu	a5,-1996(gp) # 26da4 <completed.5434>
   10044:	04079463          	bnez	a5,1008c <__do_global_dtors_aux+0x4c>
   10048:	ffff0797          	auipc	a5,0xffff0
   1004c:	fb878793          	addi	a5,a5,-72 # 0 <_start-0x10000>
   10050:	02078863          	beqz	a5,10080 <__do_global_dtors_aux+0x40>
   10054:	ff010113          	addi	sp,sp,-16
   10058:	00016517          	auipc	a0,0x16
   1005c:	2b450513          	addi	a0,a0,692 # 2630c <__EH_FRAME_BEGIN__>
   10060:	00112623          	sw	ra,12(sp)
   10064:	00000097          	auipc	ra,0x0
   10068:	000000e7          	jalr	zero # 0 <_start-0x10000>
   1006c:	00c12083          	lw	ra,12(sp)
   10070:	00100793          	li	a5,1
   10074:	82f18a23          	sb	a5,-1996(gp) # 26da4 <completed.5434>
   10078:	01010113          	addi	sp,sp,16
   1007c:	00008067          	ret
   10080:	00100793          	li	a5,1
   10084:	82f18a23          	sb	a5,-1996(gp) # 26da4 <completed.5434>
   10088:	00008067          	ret
   1008c:	00008067          	ret

00010090 <frame_dummy>:
   10090:	ffff0797          	auipc	a5,0xffff0
   10094:	f7078793          	addi	a5,a5,-144 # 0 <_start-0x10000>
   10098:	00078c63          	beqz	a5,100b0 <frame_dummy+0x20>
   1009c:	83818593          	addi	a1,gp,-1992 # 26da8 <object.5439>
   100a0:	00016517          	auipc	a0,0x16
   100a4:	26c50513          	addi	a0,a0,620 # 2630c <__EH_FRAME_BEGIN__>
   100a8:	00000317          	auipc	t1,0x0
   100ac:	00000067          	jr	zero # 0 <_start-0x10000>
   100b0:	00008067          	ret

000100b4 <main>:
   100b4:	fd010113          	addi	sp,sp,-48
   100b8:	02112623          	sw	ra,44(sp)
   100bc:	02812423          	sw	s0,40(sp)
   100c0:	03010413          	addi	s0,sp,48
   100c4:	fe042623          	sw	zero,-20(s0)
   100c8:	00100793          	li	a5,1
   100cc:	fef42423          	sw	a5,-24(s0)
   100d0:	00a00793          	li	a5,10
   100d4:	fcf42e23          	sw	a5,-36(s0)
   100d8:	00200793          	li	a5,2
   100dc:	fef42023          	sw	a5,-32(s0)
   100e0:	0300006f          	j	10110 <main+0x5c>
   100e4:	fec42703          	lw	a4,-20(s0)
   100e8:	fe842783          	lw	a5,-24(s0)
   100ec:	00f707b3          	add	a5,a4,a5
   100f0:	fef42223          	sw	a5,-28(s0)
   100f4:	fe842783          	lw	a5,-24(s0)
   100f8:	fef42623          	sw	a5,-20(s0)
   100fc:	fe442783          	lw	a5,-28(s0)
   10100:	fef42423          	sw	a5,-24(s0)
   10104:	fe042783          	lw	a5,-32(s0)
   10108:	00178793          	addi	a5,a5,1
   1010c:	fef42023          	sw	a5,-32(s0)
   10110:	fe042703          	lw	a4,-32(s0)
   10114:	fdc42783          	lw	a5,-36(s0)
   10118:	fcf746e3          	blt	a4,a5,100e4 <main+0x30>
   1011c:	fe442603          	lw	a2,-28(s0)
   10120:	fdc42583          	lw	a1,-36(s0)
   10124:	000247b7          	lui	a5,0x24
   10128:	5d878513          	addi	a0,a5,1496 # 245d8 <register_fini+0x20>
   1012c:	420000ef          	jal	ra,1054c <printf>
   10130:	00000793          	li	a5,0
   10134:	00078513          	mv	a0,a5
   10138:	02c12083          	lw	ra,44(sp)
   1013c:	02812403          	lw	s0,40(sp)
   10140:	03010113          	addi	sp,sp,48
   10144:	00008067          	ret

00010148 <_access>:
   10148:	0040006f          	j	1014c <unimplemented_syscall>

0001014c <unimplemented_syscall>:
   1014c:	fe010113          	addi	sp,sp,-32
   10150:	00812e23          	sw	s0,28(sp)
   10154:	02010413          	addi	s0,sp,32
   10158:	000247b7          	lui	a5,0x24
   1015c:	60478793          	addi	a5,a5,1540 # 24604 <register_fini+0x4c>
   10160:	fef42623          	sw	a5,-20(s0)
   10164:	01c0006f          	j	10180 <unimplemented_syscall+0x34>
   10168:	fec42783          	lw	a5,-20(s0)
   1016c:	00178713          	addi	a4,a5,1
   10170:	fee42623          	sw	a4,-20(s0)
   10174:	0007c703          	lbu	a4,0(a5)
   10178:	100007b7          	lui	a5,0x10000
   1017c:	00e7a023          	sw	a4,0(a5) # 10000000 <__global_pointer$+0xffd8a90>
   10180:	fec42783          	lw	a5,-20(s0)
   10184:	0007c783          	lbu	a5,0(a5)
   10188:	fe0790e3          	bnez	a5,10168 <unimplemented_syscall+0x1c>
   1018c:	00100073          	ebreak

00010190 <_read>:
   10190:	fe010113          	addi	sp,sp,-32
   10194:	00812e23          	sw	s0,28(sp)
   10198:	02010413          	addi	s0,sp,32
   1019c:	fea42623          	sw	a0,-20(s0)
   101a0:	feb42423          	sw	a1,-24(s0)
   101a4:	fec42223          	sw	a2,-28(s0)
   101a8:	00000793          	li	a5,0
   101ac:	00078513          	mv	a0,a5
   101b0:	01c12403          	lw	s0,28(sp)
   101b4:	02010113          	addi	sp,sp,32
   101b8:	00008067          	ret

000101bc <_write>:
   101bc:	fd010113          	addi	sp,sp,-48
   101c0:	02812623          	sw	s0,44(sp)
   101c4:	03010413          	addi	s0,sp,48
   101c8:	fca42e23          	sw	a0,-36(s0)
   101cc:	fcb42c23          	sw	a1,-40(s0)
   101d0:	fcc42a23          	sw	a2,-44(s0)
   101d4:	fd842703          	lw	a4,-40(s0)
   101d8:	fd442783          	lw	a5,-44(s0)
   101dc:	00f707b3          	add	a5,a4,a5
   101e0:	fef42623          	sw	a5,-20(s0)
   101e4:	01c0006f          	j	10200 <_write+0x44>
   101e8:	fd842783          	lw	a5,-40(s0)
   101ec:	00178713          	addi	a4,a5,1
   101f0:	fce42c23          	sw	a4,-40(s0)
   101f4:	0007c703          	lbu	a4,0(a5)
   101f8:	100007b7          	lui	a5,0x10000
   101fc:	00e7a023          	sw	a4,0(a5) # 10000000 <__global_pointer$+0xffd8a90>
   10200:	fd842703          	lw	a4,-40(s0)
   10204:	fec42783          	lw	a5,-20(s0)
   10208:	fef710e3          	bne	a4,a5,101e8 <_write+0x2c>
   1020c:	fd442783          	lw	a5,-44(s0)
   10210:	00078513          	mv	a0,a5
   10214:	02c12403          	lw	s0,44(sp)
   10218:	03010113          	addi	sp,sp,48
   1021c:	00008067          	ret

00010220 <_close>:
   10220:	fe010113          	addi	sp,sp,-32
   10224:	00812e23          	sw	s0,28(sp)
   10228:	02010413          	addi	s0,sp,32
   1022c:	fea42623          	sw	a0,-20(s0)
   10230:	00000793          	li	a5,0
   10234:	00078513          	mv	a0,a5
   10238:	01c12403          	lw	s0,28(sp)
   1023c:	02010113          	addi	sp,sp,32
   10240:	00008067          	ret

00010244 <_fstat>:
   10244:	fe010113          	addi	sp,sp,-32
   10248:	00112e23          	sw	ra,28(sp)
   1024c:	00812c23          	sw	s0,24(sp)
   10250:	02010413          	addi	s0,sp,32
   10254:	fea42623          	sw	a0,-20(s0)
   10258:	feb42423          	sw	a1,-24(s0)
   1025c:	09c000ef          	jal	ra,102f8 <__errno>
   10260:	00050713          	mv	a4,a0
   10264:	00200793          	li	a5,2
   10268:	00f72023          	sw	a5,0(a4)
   1026c:	fff00793          	li	a5,-1
   10270:	00078513          	mv	a0,a5
   10274:	01c12083          	lw	ra,28(sp)
   10278:	01812403          	lw	s0,24(sp)
   1027c:	02010113          	addi	sp,sp,32
   10280:	00008067          	ret

00010284 <_sbrk>:
   10284:	fe010113          	addi	sp,sp,-32
   10288:	00812e23          	sw	s0,28(sp)
   1028c:	02010413          	addi	s0,sp,32
   10290:	fea42623          	sw	a0,-20(s0)
   10294:	8501a783          	lw	a5,-1968(gp) # 26dc0 <heap_end.2320>
   10298:	00079663          	bnez	a5,102a4 <_sbrk+0x20>
   1029c:	88018713          	addi	a4,gp,-1920 # 26df0 <_end>
   102a0:	84e1a823          	sw	a4,-1968(gp) # 26dc0 <heap_end.2320>
   102a4:	8501a703          	lw	a4,-1968(gp) # 26dc0 <heap_end.2320>
   102a8:	fec42783          	lw	a5,-20(s0)
   102ac:	00f70733          	add	a4,a4,a5
   102b0:	84e1a823          	sw	a4,-1968(gp) # 26dc0 <heap_end.2320>
   102b4:	8501a703          	lw	a4,-1968(gp) # 26dc0 <heap_end.2320>
   102b8:	fec42783          	lw	a5,-20(s0)
   102bc:	40f707b3          	sub	a5,a4,a5
   102c0:	00078513          	mv	a0,a5
   102c4:	01c12403          	lw	s0,28(sp)
   102c8:	02010113          	addi	sp,sp,32
   102cc:	00008067          	ret

000102d0 <_exit>:
   102d0:	fe010113          	addi	sp,sp,-32
   102d4:	00812e23          	sw	s0,28(sp)
   102d8:	02010413          	addi	s0,sp,32
   102dc:	fea42623          	sw	a0,-20(s0)
   102e0:	00100073          	ebreak

000102e4 <atexit>:
   102e4:	00050593          	mv	a1,a0
   102e8:	00000693          	li	a3,0
   102ec:	00000613          	li	a2,0
   102f0:	00000513          	li	a0,0
   102f4:	7d90206f          	j	132cc <__register_exitproc>

000102f8 <__errno>:
   102f8:	81c18793          	addi	a5,gp,-2020 # 26d8c <_impure_ptr>
   102fc:	0007a503          	lw	a0,0(a5)
   10300:	00008067          	ret

00010304 <exit>:
   10304:	ff010113          	addi	sp,sp,-16
   10308:	00000593          	li	a1,0
   1030c:	00812423          	sw	s0,8(sp)
   10310:	00112623          	sw	ra,12(sp)
   10314:	00050413          	mv	s0,a0
   10318:	050030ef          	jal	ra,13368 <__call_exitprocs>
   1031c:	81818793          	addi	a5,gp,-2024 # 26d88 <_global_impure_ptr>
   10320:	0007a503          	lw	a0,0(a5)
   10324:	03c52783          	lw	a5,60(a0)
   10328:	00078463          	beqz	a5,10330 <exit+0x2c>
   1032c:	000780e7          	jalr	a5
   10330:	00040513          	mv	a0,s0
   10334:	f9dff0ef          	jal	ra,102d0 <_exit>

00010338 <__libc_fini_array>:
   10338:	ff010113          	addi	sp,sp,-16
   1033c:	00812423          	sw	s0,8(sp)
   10340:	00016797          	auipc	a5,0x16
   10344:	08878793          	addi	a5,a5,136 # 263c8 <__init_array_end>
   10348:	00016417          	auipc	s0,0x16
   1034c:	08440413          	addi	s0,s0,132 # 263cc <__fini_array_end>
   10350:	40f40433          	sub	s0,s0,a5
   10354:	00112623          	sw	ra,12(sp)
   10358:	00912223          	sw	s1,4(sp)
   1035c:	40245413          	srai	s0,s0,0x2
   10360:	02040263          	beqz	s0,10384 <__libc_fini_array+0x4c>
   10364:	00241493          	slli	s1,s0,0x2
   10368:	ffc48493          	addi	s1,s1,-4
   1036c:	00f484b3          	add	s1,s1,a5
   10370:	0004a783          	lw	a5,0(s1)
   10374:	fff40413          	addi	s0,s0,-1
   10378:	ffc48493          	addi	s1,s1,-4
   1037c:	000780e7          	jalr	a5
   10380:	fe0418e3          	bnez	s0,10370 <__libc_fini_array+0x38>
   10384:	00c12083          	lw	ra,12(sp)
   10388:	00812403          	lw	s0,8(sp)
   1038c:	00412483          	lw	s1,4(sp)
   10390:	01010113          	addi	sp,sp,16
   10394:	00008067          	ret

00010398 <__libc_init_array>:
   10398:	ff010113          	addi	sp,sp,-16
   1039c:	00812423          	sw	s0,8(sp)
   103a0:	01212023          	sw	s2,0(sp)
   103a4:	00016417          	auipc	s0,0x16
   103a8:	01c40413          	addi	s0,s0,28 # 263c0 <__init_array_start>
   103ac:	00016917          	auipc	s2,0x16
   103b0:	01490913          	addi	s2,s2,20 # 263c0 <__init_array_start>
   103b4:	40890933          	sub	s2,s2,s0
   103b8:	00112623          	sw	ra,12(sp)
   103bc:	00912223          	sw	s1,4(sp)
   103c0:	40295913          	srai	s2,s2,0x2
   103c4:	00090e63          	beqz	s2,103e0 <__libc_init_array+0x48>
   103c8:	00000493          	li	s1,0
   103cc:	00042783          	lw	a5,0(s0)
   103d0:	00148493          	addi	s1,s1,1
   103d4:	00440413          	addi	s0,s0,4
   103d8:	000780e7          	jalr	a5
   103dc:	fe9918e3          	bne	s2,s1,103cc <__libc_init_array+0x34>
   103e0:	00016417          	auipc	s0,0x16
   103e4:	fe040413          	addi	s0,s0,-32 # 263c0 <__init_array_start>
   103e8:	00016917          	auipc	s2,0x16
   103ec:	fe090913          	addi	s2,s2,-32 # 263c8 <__init_array_end>
   103f0:	40890933          	sub	s2,s2,s0
   103f4:	40295913          	srai	s2,s2,0x2
   103f8:	00090e63          	beqz	s2,10414 <__libc_init_array+0x7c>
   103fc:	00000493          	li	s1,0
   10400:	00042783          	lw	a5,0(s0)
   10404:	00148493          	addi	s1,s1,1
   10408:	00440413          	addi	s0,s0,4
   1040c:	000780e7          	jalr	a5
   10410:	fe9918e3          	bne	s2,s1,10400 <__libc_init_array+0x68>
   10414:	00c12083          	lw	ra,12(sp)
   10418:	00812403          	lw	s0,8(sp)
   1041c:	00412483          	lw	s1,4(sp)
   10420:	00012903          	lw	s2,0(sp)
   10424:	01010113          	addi	sp,sp,16
   10428:	00008067          	ret

0001042c <memset>:
   1042c:	00f00313          	li	t1,15
   10430:	00050713          	mv	a4,a0
   10434:	02c37e63          	bgeu	t1,a2,10470 <memset+0x44>
   10438:	00f77793          	andi	a5,a4,15
   1043c:	0a079063          	bnez	a5,104dc <memset+0xb0>
   10440:	08059263          	bnez	a1,104c4 <memset+0x98>
   10444:	ff067693          	andi	a3,a2,-16
   10448:	00f67613          	andi	a2,a2,15
   1044c:	00e686b3          	add	a3,a3,a4
   10450:	00b72023          	sw	a1,0(a4)
   10454:	00b72223          	sw	a1,4(a4)
   10458:	00b72423          	sw	a1,8(a4)
   1045c:	00b72623          	sw	a1,12(a4)
   10460:	01070713          	addi	a4,a4,16
   10464:	fed766e3          	bltu	a4,a3,10450 <memset+0x24>
   10468:	00061463          	bnez	a2,10470 <memset+0x44>
   1046c:	00008067          	ret
   10470:	40c306b3          	sub	a3,t1,a2
   10474:	00269693          	slli	a3,a3,0x2
   10478:	00000297          	auipc	t0,0x0
   1047c:	005686b3          	add	a3,a3,t0
   10480:	00c68067          	jr	12(a3)
   10484:	00b70723          	sb	a1,14(a4)
   10488:	00b706a3          	sb	a1,13(a4)
   1048c:	00b70623          	sb	a1,12(a4)
   10490:	00b705a3          	sb	a1,11(a4)
   10494:	00b70523          	sb	a1,10(a4)
   10498:	00b704a3          	sb	a1,9(a4)
   1049c:	00b70423          	sb	a1,8(a4)
   104a0:	00b703a3          	sb	a1,7(a4)
   104a4:	00b70323          	sb	a1,6(a4)
   104a8:	00b702a3          	sb	a1,5(a4)
   104ac:	00b70223          	sb	a1,4(a4)
   104b0:	00b701a3          	sb	a1,3(a4)
   104b4:	00b70123          	sb	a1,2(a4)
   104b8:	00b700a3          	sb	a1,1(a4)
   104bc:	00b70023          	sb	a1,0(a4)
   104c0:	00008067          	ret
   104c4:	0ff5f593          	andi	a1,a1,255
   104c8:	00859693          	slli	a3,a1,0x8
   104cc:	00d5e5b3          	or	a1,a1,a3
   104d0:	01059693          	slli	a3,a1,0x10
   104d4:	00d5e5b3          	or	a1,a1,a3
   104d8:	f6dff06f          	j	10444 <memset+0x18>
   104dc:	00279693          	slli	a3,a5,0x2
   104e0:	00000297          	auipc	t0,0x0
   104e4:	005686b3          	add	a3,a3,t0
   104e8:	00008293          	mv	t0,ra
   104ec:	fa0680e7          	jalr	-96(a3)
   104f0:	00028093          	mv	ra,t0
   104f4:	ff078793          	addi	a5,a5,-16
   104f8:	40f70733          	sub	a4,a4,a5
   104fc:	00f60633          	add	a2,a2,a5
   10500:	f6c378e3          	bgeu	t1,a2,10470 <memset+0x44>
   10504:	f3dff06f          	j	10440 <memset+0x14>

00010508 <_printf_r>:
   10508:	fc010113          	addi	sp,sp,-64
   1050c:	02c12423          	sw	a2,40(sp)
   10510:	02d12623          	sw	a3,44(sp)
   10514:	02f12a23          	sw	a5,52(sp)
   10518:	02e12823          	sw	a4,48(sp)
   1051c:	03012c23          	sw	a6,56(sp)
   10520:	03112e23          	sw	a7,60(sp)
   10524:	00058613          	mv	a2,a1
   10528:	00852583          	lw	a1,8(a0)
   1052c:	02810793          	addi	a5,sp,40
   10530:	00078693          	mv	a3,a5
   10534:	00112e23          	sw	ra,28(sp)
   10538:	00f12623          	sw	a5,12(sp)
   1053c:	064000ef          	jal	ra,105a0 <_vfprintf_r>
   10540:	01c12083          	lw	ra,28(sp)
   10544:	04010113          	addi	sp,sp,64
   10548:	00008067          	ret

0001054c <printf>:
   1054c:	81c18313          	addi	t1,gp,-2020 # 26d8c <_impure_ptr>
   10550:	00032303          	lw	t1,0(t1) # 100a8 <frame_dummy+0x18>
   10554:	fc010113          	addi	sp,sp,-64
   10558:	02c12423          	sw	a2,40(sp)
   1055c:	02d12623          	sw	a3,44(sp)
   10560:	02f12a23          	sw	a5,52(sp)
   10564:	02b12223          	sw	a1,36(sp)
   10568:	02e12823          	sw	a4,48(sp)
   1056c:	03012c23          	sw	a6,56(sp)
   10570:	03112e23          	sw	a7,60(sp)
   10574:	00832583          	lw	a1,8(t1)
   10578:	02410793          	addi	a5,sp,36
   1057c:	00050613          	mv	a2,a0
   10580:	00078693          	mv	a3,a5
   10584:	00030513          	mv	a0,t1
   10588:	00112e23          	sw	ra,28(sp)
   1058c:	00f12623          	sw	a5,12(sp)
   10590:	010000ef          	jal	ra,105a0 <_vfprintf_r>
   10594:	01c12083          	lw	ra,28(sp)
   10598:	04010113          	addi	sp,sp,64
   1059c:	00008067          	ret

000105a0 <_vfprintf_r>:
   105a0:	e1010113          	addi	sp,sp,-496
   105a4:	1e112623          	sw	ra,492(sp)
   105a8:	1e812423          	sw	s0,488(sp)
   105ac:	1d912223          	sw	s9,452(sp)
   105b0:	00b12223          	sw	a1,4(sp)
   105b4:	00060c93          	mv	s9,a2
   105b8:	00d12623          	sw	a3,12(sp)
   105bc:	1e912223          	sw	s1,484(sp)
   105c0:	1f212023          	sw	s2,480(sp)
   105c4:	1d312e23          	sw	s3,476(sp)
   105c8:	1d412c23          	sw	s4,472(sp)
   105cc:	1d512a23          	sw	s5,468(sp)
   105d0:	1d612823          	sw	s6,464(sp)
   105d4:	1d712623          	sw	s7,460(sp)
   105d8:	1d812423          	sw	s8,456(sp)
   105dc:	1da12023          	sw	s10,448(sp)
   105e0:	1bb12e23          	sw	s11,444(sp)
   105e4:	00050413          	mv	s0,a0
   105e8:	00a12e23          	sw	a0,28(sp)
   105ec:	624060ef          	jal	ra,16c10 <_localeconv_r>
   105f0:	00052783          	lw	a5,0(a0)
   105f4:	00078513          	mv	a0,a5
   105f8:	02f12823          	sw	a5,48(sp)
   105fc:	041080ef          	jal	ra,18e3c <strlen>
   10600:	02a12423          	sw	a0,40(sp)
   10604:	0e012823          	sw	zero,240(sp)
   10608:	0e012a23          	sw	zero,244(sp)
   1060c:	0e012c23          	sw	zero,248(sp)
   10610:	0e012e23          	sw	zero,252(sp)
   10614:	00040663          	beqz	s0,10620 <_vfprintf_r+0x80>
   10618:	03842783          	lw	a5,56(s0)
   1061c:	56078ae3          	beqz	a5,11390 <_vfprintf_r+0xdf0>
   10620:	00412603          	lw	a2,4(sp)
   10624:	00c61703          	lh	a4,12(a2)
   10628:	01071793          	slli	a5,a4,0x10
   1062c:	0107d793          	srli	a5,a5,0x10
   10630:	01279693          	slli	a3,a5,0x12
   10634:	0206c663          	bltz	a3,10660 <_vfprintf_r+0xc0>
   10638:	06462683          	lw	a3,100(a2)
   1063c:	000027b7          	lui	a5,0x2
   10640:	00f767b3          	or	a5,a4,a5
   10644:	ffffe737          	lui	a4,0xffffe
   10648:	fff70713          	addi	a4,a4,-1 # ffffdfff <__global_pointer$+0xfffd6a8f>
   1064c:	00e6f733          	and	a4,a3,a4
   10650:	00f61623          	sh	a5,12(a2)
   10654:	01079793          	slli	a5,a5,0x10
   10658:	06e62223          	sw	a4,100(a2)
   1065c:	0107d793          	srli	a5,a5,0x10
   10660:	0087f713          	andi	a4,a5,8
   10664:	16070463          	beqz	a4,107cc <_vfprintf_r+0x22c>
   10668:	00412703          	lw	a4,4(sp)
   1066c:	01072703          	lw	a4,16(a4)
   10670:	14070e63          	beqz	a4,107cc <_vfprintf_r+0x22c>
   10674:	01a7f793          	andi	a5,a5,26
   10678:	00a00713          	li	a4,10
   1067c:	16e78c63          	beq	a5,a4,107f4 <_vfprintf_r+0x254>
   10680:	10c10793          	addi	a5,sp,268
   10684:	000c8d13          	mv	s10,s9
   10688:	0ef12223          	sw	a5,228(sp)
   1068c:	00078d93          	mv	s11,a5
   10690:	000d4783          	lbu	a5,0(s10)
   10694:	0e012623          	sw	zero,236(sp)
   10698:	0e012423          	sw	zero,232(sp)
   1069c:	00012c23          	sw	zero,24(sp)
   106a0:	02012623          	sw	zero,44(sp)
   106a4:	02012c23          	sw	zero,56(sp)
   106a8:	02012e23          	sw	zero,60(sp)
   106ac:	04012023          	sw	zero,64(sp)
   106b0:	04012223          	sw	zero,68(sp)
   106b4:	00012423          	sw	zero,8(sp)
   106b8:	01000c13          	li	s8,16
   106bc:	01c12a83          	lw	s5,28(sp)
   106c0:	3e078463          	beqz	a5,10aa8 <_vfprintf_r+0x508>
   106c4:	02500713          	li	a4,37
   106c8:	00e79463          	bne	a5,a4,106d0 <_vfprintf_r+0x130>
   106cc:	7340106f          	j	11e00 <_vfprintf_r+0x1860>
   106d0:	000d0413          	mv	s0,s10
   106d4:	00c0006f          	j	106e0 <_vfprintf_r+0x140>
   106d8:	14e78263          	beq	a5,a4,1081c <_vfprintf_r+0x27c>
   106dc:	00048413          	mv	s0,s1
   106e0:	00144783          	lbu	a5,1(s0)
   106e4:	00140493          	addi	s1,s0,1
   106e8:	fe0798e3          	bnez	a5,106d8 <_vfprintf_r+0x138>
   106ec:	41a48933          	sub	s2,s1,s10
   106f0:	3a090c63          	beqz	s2,10aa8 <_vfprintf_r+0x508>
   106f4:	0ec12703          	lw	a4,236(sp)
   106f8:	0e812783          	lw	a5,232(sp)
   106fc:	01ada023          	sw	s10,0(s11)
   10700:	01270733          	add	a4,a4,s2
   10704:	00178793          	addi	a5,a5,1 # 2001 <_start-0xdfff>
   10708:	012da223          	sw	s2,4(s11)
   1070c:	0ee12623          	sw	a4,236(sp)
   10710:	0ef12423          	sw	a5,232(sp)
   10714:	00700713          	li	a4,7
   10718:	008d8d93          	addi	s11,s11,8
   1071c:	10f74663          	blt	a4,a5,10828 <_vfprintf_r+0x288>
   10720:	00812703          	lw	a4,8(sp)
   10724:	00144783          	lbu	a5,1(s0)
   10728:	01270733          	add	a4,a4,s2
   1072c:	00e12423          	sw	a4,8(sp)
   10730:	36078c63          	beqz	a5,10aa8 <_vfprintf_r+0x508>
   10734:	00148913          	addi	s2,s1,1
   10738:	0014c403          	lbu	s0,1(s1)
   1073c:	0c0103a3          	sb	zero,199(sp)
   10740:	fff00b13          	li	s6,-1
   10744:	00000493          	li	s1,0
   10748:	00000993          	li	s3,0
   1074c:	00900a13          	li	s4,9
   10750:	02a00b93          	li	s7,42
   10754:	00190913          	addi	s2,s2,1
   10758:	05a00713          	li	a4,90
   1075c:	fe040793          	addi	a5,s0,-32
   10760:	22f76c63          	bltu	a4,a5,10998 <_vfprintf_r+0x3f8>
   10764:	00014697          	auipc	a3,0x14
   10768:	ec468693          	addi	a3,a3,-316 # 24628 <register_fini+0x70>
   1076c:	00279793          	slli	a5,a5,0x2
   10770:	00d787b3          	add	a5,a5,a3
   10774:	0007a783          	lw	a5,0(a5)
   10778:	00d787b3          	add	a5,a5,a3
   1077c:	00078067          	jr	a5
   10780:	000a8513          	mv	a0,s5
   10784:	48c060ef          	jal	ra,16c10 <_localeconv_r>
   10788:	00452783          	lw	a5,4(a0)
   1078c:	00078513          	mv	a0,a5
   10790:	04f12223          	sw	a5,68(sp)
   10794:	6a8080ef          	jal	ra,18e3c <strlen>
   10798:	04a12023          	sw	a0,64(sp)
   1079c:	00050413          	mv	s0,a0
   107a0:	000a8513          	mv	a0,s5
   107a4:	46c060ef          	jal	ra,16c10 <_localeconv_r>
   107a8:	00852783          	lw	a5,8(a0)
   107ac:	02f12e23          	sw	a5,60(sp)
   107b0:	00040463          	beqz	s0,107b8 <_vfprintf_r+0x218>
   107b4:	4ec0106f          	j	11ca0 <_vfprintf_r+0x1700>
   107b8:	00094403          	lbu	s0,0(s2)
   107bc:	f99ff06f          	j	10754 <_vfprintf_r+0x1b4>
   107c0:	0209e993          	ori	s3,s3,32
   107c4:	00094403          	lbu	s0,0(s2)
   107c8:	f8dff06f          	j	10754 <_vfprintf_r+0x1b4>
   107cc:	00412583          	lw	a1,4(sp)
   107d0:	01c12503          	lw	a0,28(sp)
   107d4:	191020ef          	jal	ra,13164 <__swsetup_r>
   107d8:	00050463          	beqz	a0,107e0 <_vfprintf_r+0x240>
   107dc:	4380206f          	j	12c14 <_vfprintf_r+0x2674>
   107e0:	00412783          	lw	a5,4(sp)
   107e4:	00a00713          	li	a4,10
   107e8:	00c7d783          	lhu	a5,12(a5)
   107ec:	01a7f793          	andi	a5,a5,26
   107f0:	e8e798e3          	bne	a5,a4,10680 <_vfprintf_r+0xe0>
   107f4:	00412783          	lw	a5,4(sp)
   107f8:	00e79783          	lh	a5,14(a5)
   107fc:	e807c2e3          	bltz	a5,10680 <_vfprintf_r+0xe0>
   10800:	00c12683          	lw	a3,12(sp)
   10804:	00412583          	lw	a1,4(sp)
   10808:	01c12503          	lw	a0,28(sp)
   1080c:	000c8613          	mv	a2,s9
   10810:	095020ef          	jal	ra,130a4 <__sbprintf>
   10814:	00a12423          	sw	a0,8(sp)
   10818:	0680006f          	j	10880 <_vfprintf_r+0x2e0>
   1081c:	41a48933          	sub	s2,s1,s10
   10820:	f0090ae3          	beqz	s2,10734 <_vfprintf_r+0x194>
   10824:	ed1ff06f          	j	106f4 <_vfprintf_r+0x154>
   10828:	00412583          	lw	a1,4(sp)
   1082c:	0e410613          	addi	a2,sp,228
   10830:	000a8513          	mv	a0,s5
   10834:	2e80b0ef          	jal	ra,1bb1c <__sprint_r>
   10838:	02051a63          	bnez	a0,1086c <_vfprintf_r+0x2cc>
   1083c:	10c10d93          	addi	s11,sp,268
   10840:	ee1ff06f          	j	10720 <_vfprintf_r+0x180>
   10844:	00412583          	lw	a1,4(sp)
   10848:	0e410613          	addi	a2,sp,228
   1084c:	000a8513          	mv	a0,s5
   10850:	2cc0b0ef          	jal	ra,1bb1c <__sprint_r>
   10854:	52050063          	beqz	a0,10d74 <_vfprintf_r+0x7d4>
   10858:	01012783          	lw	a5,16(sp)
   1085c:	00078863          	beqz	a5,1086c <_vfprintf_r+0x2cc>
   10860:	01c12503          	lw	a0,28(sp)
   10864:	00078593          	mv	a1,a5
   10868:	3a4030ef          	jal	ra,13c0c <_free_r>
   1086c:	00412783          	lw	a5,4(sp)
   10870:	00c7d783          	lhu	a5,12(a5)
   10874:	0407f793          	andi	a5,a5,64
   10878:	00078463          	beqz	a5,10880 <_vfprintf_r+0x2e0>
   1087c:	3980206f          	j	12c14 <_vfprintf_r+0x2674>
   10880:	1ec12083          	lw	ra,492(sp)
   10884:	1e812403          	lw	s0,488(sp)
   10888:	00812503          	lw	a0,8(sp)
   1088c:	1e412483          	lw	s1,484(sp)
   10890:	1e012903          	lw	s2,480(sp)
   10894:	1dc12983          	lw	s3,476(sp)
   10898:	1d812a03          	lw	s4,472(sp)
   1089c:	1d412a83          	lw	s5,468(sp)
   108a0:	1d012b03          	lw	s6,464(sp)
   108a4:	1cc12b83          	lw	s7,460(sp)
   108a8:	1c812c03          	lw	s8,456(sp)
   108ac:	1c412c83          	lw	s9,452(sp)
   108b0:	1c012d03          	lw	s10,448(sp)
   108b4:	1bc12d83          	lw	s11,444(sp)
   108b8:	1f010113          	addi	sp,sp,496
   108bc:	00008067          	ret
   108c0:	00014797          	auipc	a5,0x14
   108c4:	f0478793          	addi	a5,a5,-252 # 247c4 <zeroes.4505+0x20>
   108c8:	02f12623          	sw	a5,44(sp)
   108cc:	0209f793          	andi	a5,s3,32
   108d0:	0e078c63          	beqz	a5,109c8 <_vfprintf_r+0x428>
   108d4:	00c12783          	lw	a5,12(sp)
   108d8:	00778793          	addi	a5,a5,7
   108dc:	ff87f793          	andi	a5,a5,-8
   108e0:	0007ac83          	lw	s9,0(a5)
   108e4:	0047ab83          	lw	s7,4(a5)
   108e8:	00878713          	addi	a4,a5,8
   108ec:	00e12623          	sw	a4,12(sp)
   108f0:	0019f713          	andi	a4,s3,1
   108f4:	00070863          	beqz	a4,10904 <_vfprintf_r+0x364>
   108f8:	017ce733          	or	a4,s9,s7
   108fc:	00070463          	beqz	a4,10904 <_vfprintf_r+0x364>
   10900:	3640106f          	j	11c64 <_vfprintf_r+0x16c4>
   10904:	bff9fa13          	andi	s4,s3,-1025
   10908:	00200713          	li	a4,2
   1090c:	0c0103a3          	sb	zero,199(sp)
   10910:	fff00693          	li	a3,-1
   10914:	0edb0ee3          	beq	s6,a3,11210 <_vfprintf_r+0xc70>
   10918:	017ce6b3          	or	a3,s9,s7
   1091c:	f7fa7993          	andi	s3,s4,-129
   10920:	780698e3          	bnez	a3,118b0 <_vfprintf_r+0x1310>
   10924:	300b1ce3          	bnez	s6,1143c <_vfprintf_r+0xe9c>
   10928:	22071663          	bnez	a4,10b54 <_vfprintf_r+0x5b4>
   1092c:	001a7b93          	andi	s7,s4,1
   10930:	1b010d13          	addi	s10,sp,432
   10934:	000b8463          	beqz	s7,1093c <_vfprintf_r+0x39c>
   10938:	2d80106f          	j	11c10 <_vfprintf_r+0x1670>
   1093c:	000b8a13          	mv	s4,s7
   10940:	016bd463          	bge	s7,s6,10948 <_vfprintf_r+0x3a8>
   10944:	000b0a13          	mv	s4,s6
   10948:	0c714783          	lbu	a5,199(sp)
   1094c:	00012823          	sw	zero,16(sp)
   10950:	02012223          	sw	zero,36(sp)
   10954:	02012023          	sw	zero,32(sp)
   10958:	00012a23          	sw	zero,20(sp)
   1095c:	32078263          	beqz	a5,10c80 <_vfprintf_r+0x6e0>
   10960:	001a0a13          	addi	s4,s4,1
   10964:	31c0006f          	j	10c80 <_vfprintf_r+0x6e0>
   10968:	00000493          	li	s1,0
   1096c:	fd040693          	addi	a3,s0,-48
   10970:	00190913          	addi	s2,s2,1
   10974:	00249793          	slli	a5,s1,0x2
   10978:	fff94403          	lbu	s0,-1(s2)
   1097c:	009787b3          	add	a5,a5,s1
   10980:	00179793          	slli	a5,a5,0x1
   10984:	00f684b3          	add	s1,a3,a5
   10988:	fd040693          	addi	a3,s0,-48
   1098c:	feda72e3          	bgeu	s4,a3,10970 <_vfprintf_r+0x3d0>
   10990:	fe040793          	addi	a5,s0,-32
   10994:	dcf778e3          	bgeu	a4,a5,10764 <_vfprintf_r+0x1c4>
   10998:	10040863          	beqz	s0,10aa8 <_vfprintf_r+0x508>
   1099c:	14810623          	sb	s0,332(sp)
   109a0:	0c0103a3          	sb	zero,199(sp)
   109a4:	00100a13          	li	s4,1
   109a8:	00100b93          	li	s7,1
   109ac:	14c10d13          	addi	s10,sp,332
   109b0:	2bc0006f          	j	10c6c <_vfprintf_r+0x6cc>
   109b4:	00014797          	auipc	a5,0x14
   109b8:	e2478793          	addi	a5,a5,-476 # 247d8 <zeroes.4505+0x34>
   109bc:	02f12623          	sw	a5,44(sp)
   109c0:	0209f793          	andi	a5,s3,32
   109c4:	f00798e3          	bnez	a5,108d4 <_vfprintf_r+0x334>
   109c8:	00c12703          	lw	a4,12(sp)
   109cc:	0109f793          	andi	a5,s3,16
   109d0:	00072c83          	lw	s9,0(a4)
   109d4:	00470713          	addi	a4,a4,4
   109d8:	00e12623          	sw	a4,12(sp)
   109dc:	00078463          	beqz	a5,109e4 <_vfprintf_r+0x444>
   109e0:	2480106f          	j	11c28 <_vfprintf_r+0x1688>
   109e4:	0409f793          	andi	a5,s3,64
   109e8:	00079463          	bnez	a5,109f0 <_vfprintf_r+0x450>
   109ec:	2340106f          	j	11c20 <_vfprintf_r+0x1680>
   109f0:	010c9c93          	slli	s9,s9,0x10
   109f4:	010cdc93          	srli	s9,s9,0x10
   109f8:	00000b93          	li	s7,0
   109fc:	ef5ff06f          	j	108f0 <_vfprintf_r+0x350>
   10a00:	00094403          	lbu	s0,0(s2)
   10a04:	0049e993          	ori	s3,s3,4
   10a08:	d4dff06f          	j	10754 <_vfprintf_r+0x1b4>
   10a0c:	00094403          	lbu	s0,0(s2)
   10a10:	00190793          	addi	a5,s2,1
   10a14:	01741463          	bne	s0,s7,10a1c <_vfprintf_r+0x47c>
   10a18:	6180206f          	j	13030 <_vfprintf_r+0x2a90>
   10a1c:	fd040693          	addi	a3,s0,-48
   10a20:	00078913          	mv	s2,a5
   10a24:	00000b13          	li	s6,0
   10a28:	d2da6ae3          	bltu	s4,a3,1075c <_vfprintf_r+0x1bc>
   10a2c:	00190913          	addi	s2,s2,1
   10a30:	002b1793          	slli	a5,s6,0x2
   10a34:	fff94403          	lbu	s0,-1(s2)
   10a38:	016787b3          	add	a5,a5,s6
   10a3c:	00179793          	slli	a5,a5,0x1
   10a40:	00d78b33          	add	s6,a5,a3
   10a44:	fd040693          	addi	a3,s0,-48
   10a48:	feda72e3          	bgeu	s4,a3,10a2c <_vfprintf_r+0x48c>
   10a4c:	d11ff06f          	j	1075c <_vfprintf_r+0x1bc>
   10a50:	00c12683          	lw	a3,12(sp)
   10a54:	0209f793          	andi	a5,s3,32
   10a58:	00468713          	addi	a4,a3,4
   10a5c:	00078463          	beqz	a5,10a64 <_vfprintf_r+0x4c4>
   10a60:	2200106f          	j	11c80 <_vfprintf_r+0x16e0>
   10a64:	0109f793          	andi	a5,s3,16
   10a68:	00078463          	beqz	a5,10a70 <_vfprintf_r+0x4d0>
   10a6c:	6380106f          	j	120a4 <_vfprintf_r+0x1b04>
   10a70:	0409f793          	andi	a5,s3,64
   10a74:	00078463          	beqz	a5,10a7c <_vfprintf_r+0x4dc>
   10a78:	2250106f          	j	1249c <_vfprintf_r+0x1efc>
   10a7c:	2009f993          	andi	s3,s3,512
   10a80:	00099463          	bnez	s3,10a88 <_vfprintf_r+0x4e8>
   10a84:	6200106f          	j	120a4 <_vfprintf_r+0x1b04>
   10a88:	00c12783          	lw	a5,12(sp)
   10a8c:	00e12623          	sw	a4,12(sp)
   10a90:	00812703          	lw	a4,8(sp)
   10a94:	0007a783          	lw	a5,0(a5)
   10a98:	00090d13          	mv	s10,s2
   10a9c:	00e78023          	sb	a4,0(a5)
   10aa0:	000d4783          	lbu	a5,0(s10)
   10aa4:	c20790e3          	bnez	a5,106c4 <_vfprintf_r+0x124>
   10aa8:	0ec12783          	lw	a5,236(sp)
   10aac:	dc0780e3          	beqz	a5,1086c <_vfprintf_r+0x2cc>
   10ab0:	00412583          	lw	a1,4(sp)
   10ab4:	01c12503          	lw	a0,28(sp)
   10ab8:	0e410613          	addi	a2,sp,228
   10abc:	0600b0ef          	jal	ra,1bb1c <__sprint_r>
   10ac0:	dadff06f          	j	1086c <_vfprintf_r+0x2cc>
   10ac4:	00094403          	lbu	s0,0(s2)
   10ac8:	06c00793          	li	a5,108
   10acc:	00f41463          	bne	s0,a5,10ad4 <_vfprintf_r+0x534>
   10ad0:	2940106f          	j	11d64 <_vfprintf_r+0x17c4>
   10ad4:	0109e993          	ori	s3,s3,16
   10ad8:	c7dff06f          	j	10754 <_vfprintf_r+0x1b4>
   10adc:	00094403          	lbu	s0,0(s2)
   10ae0:	06800793          	li	a5,104
   10ae4:	00f41463          	bne	s0,a5,10aec <_vfprintf_r+0x54c>
   10ae8:	26c0106f          	j	11d54 <_vfprintf_r+0x17b4>
   10aec:	0409e993          	ori	s3,s3,64
   10af0:	c65ff06f          	j	10754 <_vfprintf_r+0x1b4>
   10af4:	0209f793          	andi	a5,s3,32
   10af8:	0a0792e3          	bnez	a5,1139c <_vfprintf_r+0xdfc>
   10afc:	00c12703          	lw	a4,12(sp)
   10b00:	0109f793          	andi	a5,s3,16
   10b04:	00470713          	addi	a4,a4,4
   10b08:	00078463          	beqz	a5,10b10 <_vfprintf_r+0x570>
   10b0c:	5700206f          	j	1307c <_vfprintf_r+0x2adc>
   10b10:	0409f793          	andi	a5,s3,64
   10b14:	00079463          	bnez	a5,10b1c <_vfprintf_r+0x57c>
   10b18:	65c0106f          	j	12174 <_vfprintf_r+0x1bd4>
   10b1c:	00c12783          	lw	a5,12(sp)
   10b20:	00098a13          	mv	s4,s3
   10b24:	00e12623          	sw	a4,12(sp)
   10b28:	00079c83          	lh	s9,0(a5)
   10b2c:	41fcdb93          	srai	s7,s9,0x1f
   10b30:	000b8713          	mv	a4,s7
   10b34:	6a074c63          	bltz	a4,111ec <_vfprintf_r+0xc4c>
   10b38:	fff00713          	li	a4,-1
   10b3c:	0ceb0ee3          	beq	s6,a4,11418 <_vfprintf_r+0xe78>
   10b40:	017ce733          	or	a4,s9,s7
   10b44:	f7fa7993          	andi	s3,s4,-129
   10b48:	0c0716e3          	bnez	a4,11414 <_vfprintf_r+0xe74>
   10b4c:	000b0463          	beqz	s6,10b54 <_vfprintf_r+0x5b4>
   10b50:	5b10106f          	j	12900 <_vfprintf_r+0x2360>
   10b54:	00000b13          	li	s6,0
   10b58:	00000b93          	li	s7,0
   10b5c:	1b010d13          	addi	s10,sp,432
   10b60:	dddff06f          	j	1093c <_vfprintf_r+0x39c>
   10b64:	0809e993          	ori	s3,s3,128
   10b68:	00094403          	lbu	s0,0(s2)
   10b6c:	be9ff06f          	j	10754 <_vfprintf_r+0x1b4>
   10b70:	0209f793          	andi	a5,s3,32
   10b74:	0109ea13          	ori	s4,s3,16
   10b78:	040798e3          	bnez	a5,113c8 <_vfprintf_r+0xe28>
   10b7c:	00c12783          	lw	a5,12(sp)
   10b80:	00478713          	addi	a4,a5,4
   10b84:	00c12783          	lw	a5,12(sp)
   10b88:	00000b93          	li	s7,0
   10b8c:	00e12623          	sw	a4,12(sp)
   10b90:	0007ac83          	lw	s9,0(a5)
   10b94:	00100713          	li	a4,1
   10b98:	d75ff06f          	j	1090c <_vfprintf_r+0x36c>
   10b9c:	00c12783          	lw	a5,12(sp)
   10ba0:	0c0103a3          	sb	zero,199(sp)
   10ba4:	0007ad03          	lw	s10,0(a5)
   10ba8:	00478c93          	addi	s9,a5,4
   10bac:	000d1463          	bnez	s10,10bb4 <_vfprintf_r+0x614>
   10bb0:	1c40106f          	j	11d74 <_vfprintf_r+0x17d4>
   10bb4:	fff00793          	li	a5,-1
   10bb8:	00fb1463          	bne	s6,a5,10bc0 <_vfprintf_r+0x620>
   10bbc:	5a80106f          	j	12164 <_vfprintf_r+0x1bc4>
   10bc0:	000b0613          	mv	a2,s6
   10bc4:	00000593          	li	a1,0
   10bc8:	000d0513          	mv	a0,s10
   10bcc:	369060ef          	jal	ra,17734 <memchr>
   10bd0:	00a12823          	sw	a0,16(sp)
   10bd4:	00051463          	bnez	a0,10bdc <_vfprintf_r+0x63c>
   10bd8:	7890106f          	j	12b60 <_vfprintf_r+0x25c0>
   10bdc:	01012783          	lw	a5,16(sp)
   10be0:	41a78bb3          	sub	s7,a5,s10
   10be4:	0c714783          	lbu	a5,199(sp)
   10be8:	fffbca13          	not	s4,s7
   10bec:	41fa5a13          	srai	s4,s4,0x1f
   10bf0:	01912623          	sw	s9,12(sp)
   10bf4:	00012823          	sw	zero,16(sp)
   10bf8:	02012223          	sw	zero,36(sp)
   10bfc:	02012023          	sw	zero,32(sp)
   10c00:	00012a23          	sw	zero,20(sp)
   10c04:	014bfa33          	and	s4,s7,s4
   10c08:	00000b13          	li	s6,0
   10c0c:	d4079ae3          	bnez	a5,10960 <_vfprintf_r+0x3c0>
   10c10:	0700006f          	j	10c80 <_vfprintf_r+0x6e0>
   10c14:	0209f793          	andi	a5,s3,32
   10c18:	0109e993          	ori	s3,s3,16
   10c1c:	7c079863          	bnez	a5,113ec <_vfprintf_r+0xe4c>
   10c20:	00c12783          	lw	a5,12(sp)
   10c24:	00478713          	addi	a4,a5,4
   10c28:	00c12783          	lw	a5,12(sp)
   10c2c:	00000b93          	li	s7,0
   10c30:	00e12623          	sw	a4,12(sp)
   10c34:	0007ac83          	lw	s9,0(a5)
   10c38:	7d00006f          	j	11408 <_vfprintf_r+0xe68>
   10c3c:	0089e993          	ori	s3,s3,8
   10c40:	00094403          	lbu	s0,0(s2)
   10c44:	b11ff06f          	j	10754 <_vfprintf_r+0x1b4>
   10c48:	00c12703          	lw	a4,12(sp)
   10c4c:	0c0103a3          	sb	zero,199(sp)
   10c50:	00100a13          	li	s4,1
   10c54:	00072783          	lw	a5,0(a4)
   10c58:	00470713          	addi	a4,a4,4
   10c5c:	00e12623          	sw	a4,12(sp)
   10c60:	14f10623          	sb	a5,332(sp)
   10c64:	00100b93          	li	s7,1
   10c68:	14c10d13          	addi	s10,sp,332
   10c6c:	00012823          	sw	zero,16(sp)
   10c70:	00000b13          	li	s6,0
   10c74:	02012223          	sw	zero,36(sp)
   10c78:	02012023          	sw	zero,32(sp)
   10c7c:	00012a23          	sw	zero,20(sp)
   10c80:	0029ff13          	andi	t5,s3,2
   10c84:	000f0463          	beqz	t5,10c8c <_vfprintf_r+0x6ec>
   10c88:	002a0a13          	addi	s4,s4,2
   10c8c:	0849fe93          	andi	t4,s3,132
   10c90:	0ec12783          	lw	a5,236(sp)
   10c94:	000e9663          	bnez	t4,10ca0 <_vfprintf_r+0x700>
   10c98:	414486b3          	sub	a3,s1,s4
   10c9c:	40d04ee3          	bgtz	a3,118b8 <_vfprintf_r+0x1318>
   10ca0:	0c714703          	lbu	a4,199(sp)
   10ca4:	02070a63          	beqz	a4,10cd8 <_vfprintf_r+0x738>
   10ca8:	0e812703          	lw	a4,232(sp)
   10cac:	0c710693          	addi	a3,sp,199
   10cb0:	00dda023          	sw	a3,0(s11)
   10cb4:	00178793          	addi	a5,a5,1
   10cb8:	00100693          	li	a3,1
   10cbc:	00170713          	addi	a4,a4,1
   10cc0:	00dda223          	sw	a3,4(s11)
   10cc4:	0ef12623          	sw	a5,236(sp)
   10cc8:	0ee12423          	sw	a4,232(sp)
   10ccc:	00700693          	li	a3,7
   10cd0:	008d8d93          	addi	s11,s11,8
   10cd4:	0ce6c263          	blt	a3,a4,10d98 <_vfprintf_r+0x7f8>
   10cd8:	020f0a63          	beqz	t5,10d0c <_vfprintf_r+0x76c>
   10cdc:	0e812703          	lw	a4,232(sp)
   10ce0:	0c810693          	addi	a3,sp,200
   10ce4:	00dda023          	sw	a3,0(s11)
   10ce8:	00278793          	addi	a5,a5,2
   10cec:	00200693          	li	a3,2
   10cf0:	00170713          	addi	a4,a4,1
   10cf4:	00dda223          	sw	a3,4(s11)
   10cf8:	0ef12623          	sw	a5,236(sp)
   10cfc:	0ee12423          	sw	a4,232(sp)
   10d00:	00700693          	li	a3,7
   10d04:	008d8d93          	addi	s11,s11,8
   10d08:	4ee6c2e3          	blt	a3,a4,119ec <_vfprintf_r+0x144c>
   10d0c:	08000713          	li	a4,128
   10d10:	0cee88e3          	beq	t4,a4,115e0 <_vfprintf_r+0x1040>
   10d14:	417b0b33          	sub	s6,s6,s7
   10d18:	1b604ee3          	bgtz	s6,116d4 <_vfprintf_r+0x1134>
   10d1c:	1009f713          	andi	a4,s3,256
   10d20:	76071c63          	bnez	a4,11498 <_vfprintf_r+0xef8>
   10d24:	0e812703          	lw	a4,232(sp)
   10d28:	017787b3          	add	a5,a5,s7
   10d2c:	01ada023          	sw	s10,0(s11)
   10d30:	00170713          	addi	a4,a4,1
   10d34:	017da223          	sw	s7,4(s11)
   10d38:	0ef12623          	sw	a5,236(sp)
   10d3c:	0ee12423          	sw	a4,232(sp)
   10d40:	00700693          	li	a3,7
   10d44:	0ce6c663          	blt	a3,a4,10e10 <_vfprintf_r+0x870>
   10d48:	008d8d93          	addi	s11,s11,8
   10d4c:	0049f993          	andi	s3,s3,4
   10d50:	00098663          	beqz	s3,10d5c <_vfprintf_r+0x7bc>
   10d54:	41448433          	sub	s0,s1,s4
   10d58:	0c804c63          	bgtz	s0,10e30 <_vfprintf_r+0x890>
   10d5c:	0144d463          	bge	s1,s4,10d64 <_vfprintf_r+0x7c4>
   10d60:	000a0493          	mv	s1,s4
   10d64:	00812703          	lw	a4,8(sp)
   10d68:	00970733          	add	a4,a4,s1
   10d6c:	00e12423          	sw	a4,8(sp)
   10d70:	ac079ae3          	bnez	a5,10844 <_vfprintf_r+0x2a4>
   10d74:	01012783          	lw	a5,16(sp)
   10d78:	0e012423          	sw	zero,232(sp)
   10d7c:	00078863          	beqz	a5,10d8c <_vfprintf_r+0x7ec>
   10d80:	01012583          	lw	a1,16(sp)
   10d84:	000a8513          	mv	a0,s5
   10d88:	685020ef          	jal	ra,13c0c <_free_r>
   10d8c:	10c10d93          	addi	s11,sp,268
   10d90:	00090d13          	mv	s10,s2
   10d94:	d0dff06f          	j	10aa0 <_vfprintf_r+0x500>
   10d98:	00412583          	lw	a1,4(sp)
   10d9c:	0e410613          	addi	a2,sp,228
   10da0:	000a8513          	mv	a0,s5
   10da4:	05d12423          	sw	t4,72(sp)
   10da8:	03e12a23          	sw	t5,52(sp)
   10dac:	5710a0ef          	jal	ra,1bb1c <__sprint_r>
   10db0:	aa0514e3          	bnez	a0,10858 <_vfprintf_r+0x2b8>
   10db4:	0ec12783          	lw	a5,236(sp)
   10db8:	10c10d93          	addi	s11,sp,268
   10dbc:	04812e83          	lw	t4,72(sp)
   10dc0:	03412f03          	lw	t5,52(sp)
   10dc4:	f15ff06f          	j	10cd8 <_vfprintf_r+0x738>
   10dc8:	0019f613          	andi	a2,s3,1
   10dcc:	200614e3          	bnez	a2,117d4 <_vfprintf_r+0x1234>
   10dd0:	00eda223          	sw	a4,4(s11)
   10dd4:	0f912623          	sw	s9,236(sp)
   10dd8:	0e812423          	sw	s0,232(sp)
   10ddc:	00700713          	li	a4,7
   10de0:	728740e3          	blt	a4,s0,11d00 <_vfprintf_r+0x1760>
   10de4:	00268b13          	addi	s6,a3,2
   10de8:	010d8d93          	addi	s11,s11,16
   10dec:	03812683          	lw	a3,56(sp)
   10df0:	0d410713          	addi	a4,sp,212
   10df4:	00eba023          	sw	a4,0(s7)
   10df8:	019687b3          	add	a5,a3,s9
   10dfc:	00dba223          	sw	a3,4(s7)
   10e00:	0ef12623          	sw	a5,236(sp)
   10e04:	0f612423          	sw	s6,232(sp)
   10e08:	00700713          	li	a4,7
   10e0c:	f56750e3          	bge	a4,s6,10d4c <_vfprintf_r+0x7ac>
   10e10:	00412583          	lw	a1,4(sp)
   10e14:	0e410613          	addi	a2,sp,228
   10e18:	000a8513          	mv	a0,s5
   10e1c:	5010a0ef          	jal	ra,1bb1c <__sprint_r>
   10e20:	a2051ce3          	bnez	a0,10858 <_vfprintf_r+0x2b8>
   10e24:	0ec12783          	lw	a5,236(sp)
   10e28:	10c10d93          	addi	s11,sp,268
   10e2c:	f21ff06f          	j	10d4c <_vfprintf_r+0x7ac>
   10e30:	0e812703          	lw	a4,232(sp)
   10e34:	00014c97          	auipc	s9,0x14
   10e38:	960c8c93          	addi	s9,s9,-1696 # 24794 <blanks.4504>
   10e3c:	068c5063          	bge	s8,s0,10e9c <_vfprintf_r+0x8fc>
   10e40:	00700993          	li	s3,7
   10e44:	00412b03          	lw	s6,4(sp)
   10e48:	00c0006f          	j	10e54 <_vfprintf_r+0x8b4>
   10e4c:	ff040413          	addi	s0,s0,-16
   10e50:	048c5663          	bge	s8,s0,10e9c <_vfprintf_r+0x8fc>
   10e54:	01078793          	addi	a5,a5,16
   10e58:	00170713          	addi	a4,a4,1
   10e5c:	019da023          	sw	s9,0(s11)
   10e60:	018da223          	sw	s8,4(s11)
   10e64:	0ef12623          	sw	a5,236(sp)
   10e68:	0ee12423          	sw	a4,232(sp)
   10e6c:	008d8d93          	addi	s11,s11,8
   10e70:	fce9dee3          	bge	s3,a4,10e4c <_vfprintf_r+0x8ac>
   10e74:	0e410613          	addi	a2,sp,228
   10e78:	000b0593          	mv	a1,s6
   10e7c:	000a8513          	mv	a0,s5
   10e80:	49d0a0ef          	jal	ra,1bb1c <__sprint_r>
   10e84:	9c051ae3          	bnez	a0,10858 <_vfprintf_r+0x2b8>
   10e88:	ff040413          	addi	s0,s0,-16
   10e8c:	0ec12783          	lw	a5,236(sp)
   10e90:	0e812703          	lw	a4,232(sp)
   10e94:	10c10d93          	addi	s11,sp,268
   10e98:	fa8c4ee3          	blt	s8,s0,10e54 <_vfprintf_r+0x8b4>
   10e9c:	008787b3          	add	a5,a5,s0
   10ea0:	00170713          	addi	a4,a4,1
   10ea4:	019da023          	sw	s9,0(s11)
   10ea8:	008da223          	sw	s0,4(s11)
   10eac:	0ef12623          	sw	a5,236(sp)
   10eb0:	0ee12423          	sw	a4,232(sp)
   10eb4:	00700693          	li	a3,7
   10eb8:	eae6d2e3          	bge	a3,a4,10d5c <_vfprintf_r+0x7bc>
   10ebc:	00412583          	lw	a1,4(sp)
   10ec0:	0e410613          	addi	a2,sp,228
   10ec4:	000a8513          	mv	a0,s5
   10ec8:	4550a0ef          	jal	ra,1bb1c <__sprint_r>
   10ecc:	980516e3          	bnez	a0,10858 <_vfprintf_r+0x2b8>
   10ed0:	0ec12783          	lw	a5,236(sp)
   10ed4:	e89ff06f          	j	10d5c <_vfprintf_r+0x7bc>
   10ed8:	0089f793          	andi	a5,s3,8
   10edc:	54079ae3          	bnez	a5,11c30 <_vfprintf_r+0x1690>
   10ee0:	00c12783          	lw	a5,12(sp)
   10ee4:	0b010513          	addi	a0,sp,176
   10ee8:	00778793          	addi	a5,a5,7
   10eec:	ff87f793          	andi	a5,a5,-8
   10ef0:	0007a583          	lw	a1,0(a5)
   10ef4:	0047a603          	lw	a2,4(a5)
   10ef8:	00878793          	addi	a5,a5,8
   10efc:	00f12623          	sw	a5,12(sp)
   10f00:	058130ef          	jal	ra,23f58 <__extenddftf2>
   10f04:	0b012783          	lw	a5,176(sp)
   10f08:	0ef12823          	sw	a5,240(sp)
   10f0c:	0b412783          	lw	a5,180(sp)
   10f10:	0ef12a23          	sw	a5,244(sp)
   10f14:	0b812783          	lw	a5,184(sp)
   10f18:	0ef12c23          	sw	a5,248(sp)
   10f1c:	0bc12783          	lw	a5,188(sp)
   10f20:	0ef12e23          	sw	a5,252(sp)
   10f24:	0f010513          	addi	a0,sp,240
   10f28:	47d050ef          	jal	ra,16ba4 <_ldcheck>
   10f2c:	0ca12623          	sw	a0,204(sp)
   10f30:	00200793          	li	a5,2
   10f34:	00f51463          	bne	a0,a5,10f3c <_vfprintf_r+0x99c>
   10f38:	0ec0106f          	j	12024 <_vfprintf_r+0x1a84>
   10f3c:	00100793          	li	a5,1
   10f40:	00f51463          	bne	a0,a5,10f48 <_vfprintf_r+0x9a8>
   10f44:	28c0106f          	j	121d0 <_vfprintf_r+0x1c30>
   10f48:	06100793          	li	a5,97
   10f4c:	00f41463          	bne	s0,a5,10f54 <_vfprintf_r+0x9b4>
   10f50:	5a10106f          	j	12cf0 <_vfprintf_r+0x2750>
   10f54:	04100793          	li	a5,65
   10f58:	00f41463          	bne	s0,a5,10f60 <_vfprintf_r+0x9c0>
   10f5c:	5dc0106f          	j	12538 <_vfprintf_r+0x1f98>
   10f60:	fdf47713          	andi	a4,s0,-33
   10f64:	fff00793          	li	a5,-1
   10f68:	04e12423          	sw	a4,72(sp)
   10f6c:	00fb1463          	bne	s6,a5,10f74 <_vfprintf_r+0x9d4>
   10f70:	61d0106f          	j	12d8c <_vfprintf_r+0x27ec>
   10f74:	04700793          	li	a5,71
   10f78:	00f71463          	bne	a4,a5,10f80 <_vfprintf_r+0x9e0>
   10f7c:	6010106f          	j	12d7c <_vfprintf_r+0x27dc>
   10f80:	0fc12e03          	lw	t3,252(sp)
   10f84:	05312a23          	sw	s3,84(sp)
   10f88:	1009e793          	ori	a5,s3,256
   10f8c:	0f012e83          	lw	t4,240(sp)
   10f90:	0f412f03          	lw	t5,244(sp)
   10f94:	0f812f83          	lw	t6,248(sp)
   10f98:	000e5463          	bgez	t3,10fa0 <_vfprintf_r+0xa00>
   10f9c:	2250106f          	j	129c0 <_vfprintf_r+0x2420>
   10fa0:	04012e23          	sw	zero,92(sp)
   10fa4:	00078993          	mv	s3,a5
   10fa8:	00012823          	sw	zero,16(sp)
   10fac:	04812703          	lw	a4,72(sp)
   10fb0:	04600793          	li	a5,70
   10fb4:	00f71463          	bne	a4,a5,10fbc <_vfprintf_r+0xa1c>
   10fb8:	29d0106f          	j	12a54 <_vfprintf_r+0x24b4>
   10fbc:	04500793          	li	a5,69
   10fc0:	00f71463          	bne	a4,a5,10fc8 <_vfprintf_r+0xa28>
   10fc4:	4c10106f          	j	12c84 <_vfprintf_r+0x26e4>
   10fc8:	0b010b93          	addi	s7,sp,176
   10fcc:	0d010793          	addi	a5,sp,208
   10fd0:	0cc10713          	addi	a4,sp,204
   10fd4:	0dc10813          	addi	a6,sp,220
   10fd8:	000b0693          	mv	a3,s6
   10fdc:	00200613          	li	a2,2
   10fe0:	000b8593          	mv	a1,s7
   10fe4:	000a8513          	mv	a0,s5
   10fe8:	0bd12823          	sw	t4,176(sp)
   10fec:	03d12223          	sw	t4,36(sp)
   10ff0:	0be12a23          	sw	t5,180(sp)
   10ff4:	03e12023          	sw	t5,32(sp)
   10ff8:	0bf12c23          	sw	t6,184(sp)
   10ffc:	01f12c23          	sw	t6,24(sp)
   11000:	0bc12e23          	sw	t3,188(sp)
   11004:	01c12a23          	sw	t3,20(sp)
   11008:	0a9040ef          	jal	ra,158b0 <_ldtoa_r>
   1100c:	04812703          	lw	a4,72(sp)
   11010:	04700793          	li	a5,71
   11014:	00050d13          	mv	s10,a0
   11018:	01412e03          	lw	t3,20(sp)
   1101c:	01812f83          	lw	t6,24(sp)
   11020:	02012f03          	lw	t5,32(sp)
   11024:	02412e83          	lw	t4,36(sp)
   11028:	00f70463          	beq	a4,a5,11030 <_vfprintf_r+0xa90>
   1102c:	0580206f          	j	13084 <_vfprintf_r+0x2ae4>
   11030:	05412783          	lw	a5,84(sp)
   11034:	0017f793          	andi	a5,a5,1
   11038:	00078463          	beqz	a5,11040 <_vfprintf_r+0xaa0>
   1103c:	4390106f          	j	12c74 <_vfprintf_r+0x26d4>
   11040:	0dc12783          	lw	a5,220(sp)
   11044:	41a787b3          	sub	a5,a5,s10
   11048:	00f12c23          	sw	a5,24(sp)
   1104c:	0cc12703          	lw	a4,204(sp)
   11050:	04700793          	li	a5,71
   11054:	00e12a23          	sw	a4,20(sp)
   11058:	04812703          	lw	a4,72(sp)
   1105c:	00f71463          	bne	a4,a5,11064 <_vfprintf_r+0xac4>
   11060:	0d90106f          	j	12938 <_vfprintf_r+0x2398>
   11064:	04812703          	lw	a4,72(sp)
   11068:	04600793          	li	a5,70
   1106c:	00f71463          	bne	a4,a5,11074 <_vfprintf_r+0xad4>
   11070:	3810106f          	j	12bf0 <_vfprintf_r+0x2650>
   11074:	01412783          	lw	a5,20(sp)
   11078:	04812603          	lw	a2,72(sp)
   1107c:	04100693          	li	a3,65
   11080:	fff78a13          	addi	s4,a5,-1
   11084:	0d412623          	sw	s4,204(sp)
   11088:	0ff47793          	andi	a5,s0,255
   1108c:	00000713          	li	a4,0
   11090:	00d61863          	bne	a2,a3,110a0 <_vfprintf_r+0xb00>
   11094:	00f78793          	addi	a5,a5,15
   11098:	0ff7f793          	andi	a5,a5,255
   1109c:	00100713          	li	a4,1
   110a0:	0cf10a23          	sb	a5,212(sp)
   110a4:	02b00793          	li	a5,43
   110a8:	000a5a63          	bgez	s4,110bc <_vfprintf_r+0xb1c>
   110ac:	01412783          	lw	a5,20(sp)
   110b0:	00100a13          	li	s4,1
   110b4:	40fa0a33          	sub	s4,s4,a5
   110b8:	02d00793          	li	a5,45
   110bc:	0cf10aa3          	sb	a5,213(sp)
   110c0:	00900793          	li	a5,9
   110c4:	0147c463          	blt	a5,s4,110cc <_vfprintf_r+0xb2c>
   110c8:	5550106f          	j	12e1c <_vfprintf_r+0x287c>
   110cc:	0e310b13          	addi	s6,sp,227
   110d0:	000b0b93          	mv	s7,s6
   110d4:	06300993          	li	s3,99
   110d8:	00c0006f          	j	110e4 <_vfprintf_r+0xb44>
   110dc:	00068b93          	mv	s7,a3
   110e0:	00050a13          	mv	s4,a0
   110e4:	00a00593          	li	a1,10
   110e8:	000a0513          	mv	a0,s4
   110ec:	450130ef          	jal	ra,2453c <__modsi3>
   110f0:	03050513          	addi	a0,a0,48
   110f4:	feab8fa3          	sb	a0,-1(s7)
   110f8:	00a00593          	li	a1,10
   110fc:	000a0513          	mv	a0,s4
   11100:	3b8130ef          	jal	ra,244b8 <__divsi3>
   11104:	fffb8693          	addi	a3,s7,-1
   11108:	fd49cae3          	blt	s3,s4,110dc <_vfprintf_r+0xb3c>
   1110c:	03050793          	addi	a5,a0,48
   11110:	0ff7f793          	andi	a5,a5,255
   11114:	ffeb8713          	addi	a4,s7,-2
   11118:	fef68fa3          	sb	a5,-1(a3)
   1111c:	01676463          	bltu	a4,s6,11124 <_vfprintf_r+0xb84>
   11120:	73d0106f          	j	1305c <_vfprintf_r+0x2abc>
   11124:	0d610693          	addi	a3,sp,214
   11128:	0080006f          	j	11130 <_vfprintf_r+0xb90>
   1112c:	00074783          	lbu	a5,0(a4)
   11130:	00168693          	addi	a3,a3,1
   11134:	00170713          	addi	a4,a4,1
   11138:	fef68fa3          	sb	a5,-1(a3)
   1113c:	ff6718e3          	bne	a4,s6,1112c <_vfprintf_r+0xb8c>
   11140:	0e510793          	addi	a5,sp,229
   11144:	0d610713          	addi	a4,sp,214
   11148:	417787b3          	sub	a5,a5,s7
   1114c:	00f707b3          	add	a5,a4,a5
   11150:	0d410713          	addi	a4,sp,212
   11154:	40e787b3          	sub	a5,a5,a4
   11158:	02f12c23          	sw	a5,56(sp)
   1115c:	01812703          	lw	a4,24(sp)
   11160:	03812683          	lw	a3,56(sp)
   11164:	00100793          	li	a5,1
   11168:	00d70bb3          	add	s7,a4,a3
   1116c:	00e7c463          	blt	a5,a4,11174 <_vfprintf_r+0xbd4>
   11170:	5f50106f          	j	12f64 <_vfprintf_r+0x29c4>
   11174:	02812783          	lw	a5,40(sp)
   11178:	00fb8bb3          	add	s7,s7,a5
   1117c:	05412783          	lw	a5,84(sp)
   11180:	fffbca13          	not	s4,s7
   11184:	41fa5a13          	srai	s4,s4,0x1f
   11188:	bff7f993          	andi	s3,a5,-1025
   1118c:	1009e993          	ori	s3,s3,256
   11190:	014bfa33          	and	s4,s7,s4
   11194:	02012223          	sw	zero,36(sp)
   11198:	02012023          	sw	zero,32(sp)
   1119c:	00012a23          	sw	zero,20(sp)
   111a0:	05c12783          	lw	a5,92(sp)
   111a4:	00079463          	bnez	a5,111ac <_vfprintf_r+0xc0c>
   111a8:	0050106f          	j	129ac <_vfprintf_r+0x240c>
   111ac:	02d00793          	li	a5,45
   111b0:	0cf103a3          	sb	a5,199(sp)
   111b4:	00000b13          	li	s6,0
   111b8:	001a0a13          	addi	s4,s4,1
   111bc:	ac5ff06f          	j	10c80 <_vfprintf_r+0x6e0>
   111c0:	0209f793          	andi	a5,s3,32
   111c4:	0109ea13          	ori	s4,s3,16
   111c8:	1c079c63          	bnez	a5,113a0 <_vfprintf_r+0xe00>
   111cc:	00c12783          	lw	a5,12(sp)
   111d0:	00478713          	addi	a4,a5,4
   111d4:	00c12783          	lw	a5,12(sp)
   111d8:	00e12623          	sw	a4,12(sp)
   111dc:	0007ac83          	lw	s9,0(a5)
   111e0:	41fcdb93          	srai	s7,s9,0x1f
   111e4:	000b8713          	mv	a4,s7
   111e8:	940758e3          	bgez	a4,10b38 <_vfprintf_r+0x598>
   111ec:	41900cb3          	neg	s9,s9
   111f0:	01903733          	snez	a4,s9
   111f4:	417007b3          	neg	a5,s7
   111f8:	40e78bb3          	sub	s7,a5,a4
   111fc:	02d00713          	li	a4,45
   11200:	0ce103a3          	sb	a4,199(sp)
   11204:	fff00693          	li	a3,-1
   11208:	00100713          	li	a4,1
   1120c:	f0db1663          	bne	s6,a3,10918 <_vfprintf_r+0x378>
   11210:	00100693          	li	a3,1
   11214:	20d70263          	beq	a4,a3,11418 <_vfprintf_r+0xe78>
   11218:	00200693          	li	a3,2
   1121c:	22d70c63          	beq	a4,a3,11454 <_vfprintf_r+0xeb4>
   11220:	1b010693          	addi	a3,sp,432
   11224:	0080006f          	j	1122c <_vfprintf_r+0xc8c>
   11228:	000d0693          	mv	a3,s10
   1122c:	01db9793          	slli	a5,s7,0x1d
   11230:	007cf713          	andi	a4,s9,7
   11234:	003cdc93          	srli	s9,s9,0x3
   11238:	03070713          	addi	a4,a4,48
   1123c:	0197ecb3          	or	s9,a5,s9
   11240:	003bdb93          	srli	s7,s7,0x3
   11244:	fee68fa3          	sb	a4,-1(a3)
   11248:	017ce7b3          	or	a5,s9,s7
   1124c:	fff68d13          	addi	s10,a3,-1
   11250:	fc079ce3          	bnez	a5,11228 <_vfprintf_r+0xc88>
   11254:	001a7793          	andi	a5,s4,1
   11258:	22078863          	beqz	a5,11488 <_vfprintf_r+0xee8>
   1125c:	03000793          	li	a5,48
   11260:	22f70463          	beq	a4,a5,11488 <_vfprintf_r+0xee8>
   11264:	ffe68693          	addi	a3,a3,-2
   11268:	fefd0fa3          	sb	a5,-1(s10)
   1126c:	1b010793          	addi	a5,sp,432
   11270:	40d78bb3          	sub	s7,a5,a3
   11274:	000a0993          	mv	s3,s4
   11278:	00068d13          	mv	s10,a3
   1127c:	ec0ff06f          	j	1093c <_vfprintf_r+0x39c>
   11280:	00c12783          	lw	a5,12(sp)
   11284:	ffff8737          	lui	a4,0xffff8
   11288:	83074713          	xori	a4,a4,-2000
   1128c:	0007ac83          	lw	s9,0(a5)
   11290:	00478793          	addi	a5,a5,4
   11294:	00f12623          	sw	a5,12(sp)
   11298:	00013797          	auipc	a5,0x13
   1129c:	52c78793          	addi	a5,a5,1324 # 247c4 <zeroes.4505+0x20>
   112a0:	0ce11423          	sh	a4,200(sp)
   112a4:	00000b93          	li	s7,0
   112a8:	0029ea13          	ori	s4,s3,2
   112ac:	02f12623          	sw	a5,44(sp)
   112b0:	00200713          	li	a4,2
   112b4:	07800413          	li	s0,120
   112b8:	e54ff06f          	j	1090c <_vfprintf_r+0x36c>
   112bc:	0c714783          	lbu	a5,199(sp)
   112c0:	00094403          	lbu	s0,0(s2)
   112c4:	c8079863          	bnez	a5,10754 <_vfprintf_r+0x1b4>
   112c8:	02000793          	li	a5,32
   112cc:	0cf103a3          	sb	a5,199(sp)
   112d0:	c84ff06f          	j	10754 <_vfprintf_r+0x1b4>
   112d4:	02b00793          	li	a5,43
   112d8:	0cf103a3          	sb	a5,199(sp)
   112dc:	00094403          	lbu	s0,0(s2)
   112e0:	c74ff06f          	j	10754 <_vfprintf_r+0x1b4>
   112e4:	00c12783          	lw	a5,12(sp)
   112e8:	00094403          	lbu	s0,0(s2)
   112ec:	0007a483          	lw	s1,0(a5)
   112f0:	00478793          	addi	a5,a5,4
   112f4:	00f12623          	sw	a5,12(sp)
   112f8:	c404de63          	bgez	s1,10754 <_vfprintf_r+0x1b4>
   112fc:	409004b3          	neg	s1,s1
   11300:	0049e993          	ori	s3,s3,4
   11304:	c50ff06f          	j	10754 <_vfprintf_r+0x1b4>
   11308:	0019e993          	ori	s3,s3,1
   1130c:	00094403          	lbu	s0,0(s2)
   11310:	c44ff06f          	j	10754 <_vfprintf_r+0x1b4>
   11314:	0209f793          	andi	a5,s3,32
   11318:	0c079a63          	bnez	a5,113ec <_vfprintf_r+0xe4c>
   1131c:	00c12683          	lw	a3,12(sp)
   11320:	0109f793          	andi	a5,s3,16
   11324:	00468713          	addi	a4,a3,4
   11328:	0006ac83          	lw	s9,0(a3)
   1132c:	8e079ee3          	bnez	a5,10c28 <_vfprintf_r+0x688>
   11330:	0409f793          	andi	a5,s3,64
   11334:	660782e3          	beqz	a5,12198 <_vfprintf_r+0x1bf8>
   11338:	010c9c93          	slli	s9,s9,0x10
   1133c:	010cdc93          	srli	s9,s9,0x10
   11340:	00000b93          	li	s7,0
   11344:	00e12623          	sw	a4,12(sp)
   11348:	0c00006f          	j	11408 <_vfprintf_r+0xe68>
   1134c:	0209f793          	andi	a5,s3,32
   11350:	06079a63          	bnez	a5,113c4 <_vfprintf_r+0xe24>
   11354:	00c12683          	lw	a3,12(sp)
   11358:	0109f793          	andi	a5,s3,16
   1135c:	00468713          	addi	a4,a3,4
   11360:	0006ac83          	lw	s9,0(a3)
   11364:	00078463          	beqz	a5,1136c <_vfprintf_r+0xdcc>
   11368:	4ed0106f          	j	13054 <_vfprintf_r+0x2ab4>
   1136c:	0409f793          	andi	a5,s3,64
   11370:	640780e3          	beqz	a5,121b0 <_vfprintf_r+0x1c10>
   11374:	010c9c93          	slli	s9,s9,0x10
   11378:	00e12623          	sw	a4,12(sp)
   1137c:	010cdc93          	srli	s9,s9,0x10
   11380:	00000b93          	li	s7,0
   11384:	00098a13          	mv	s4,s3
   11388:	00100713          	li	a4,1
   1138c:	d80ff06f          	j	1090c <_vfprintf_r+0x36c>
   11390:	01c12503          	lw	a0,28(sp)
   11394:	704020ef          	jal	ra,13a98 <__sinit>
   11398:	a88ff06f          	j	10620 <_vfprintf_r+0x80>
   1139c:	00098a13          	mv	s4,s3
   113a0:	00c12783          	lw	a5,12(sp)
   113a4:	00778793          	addi	a5,a5,7
   113a8:	ff87f793          	andi	a5,a5,-8
   113ac:	0047a703          	lw	a4,4(a5)
   113b0:	00878693          	addi	a3,a5,8
   113b4:	00d12623          	sw	a3,12(sp)
   113b8:	0007ac83          	lw	s9,0(a5)
   113bc:	00070b93          	mv	s7,a4
   113c0:	f74ff06f          	j	10b34 <_vfprintf_r+0x594>
   113c4:	00098a13          	mv	s4,s3
   113c8:	00c12783          	lw	a5,12(sp)
   113cc:	00778793          	addi	a5,a5,7
   113d0:	ff87f793          	andi	a5,a5,-8
   113d4:	00878713          	addi	a4,a5,8
   113d8:	00e12623          	sw	a4,12(sp)
   113dc:	0007ac83          	lw	s9,0(a5)
   113e0:	0047ab83          	lw	s7,4(a5)
   113e4:	00100713          	li	a4,1
   113e8:	d24ff06f          	j	1090c <_vfprintf_r+0x36c>
   113ec:	00c12783          	lw	a5,12(sp)
   113f0:	00778793          	addi	a5,a5,7
   113f4:	ff87f793          	andi	a5,a5,-8
   113f8:	0007ac83          	lw	s9,0(a5)
   113fc:	0047ab83          	lw	s7,4(a5)
   11400:	00878713          	addi	a4,a5,8
   11404:	00e12623          	sw	a4,12(sp)
   11408:	bff9fa13          	andi	s4,s3,-1025
   1140c:	00000713          	li	a4,0
   11410:	cfcff06f          	j	1090c <_vfprintf_r+0x36c>
   11414:	00098a13          	mv	s4,s3
   11418:	2e0b96e3          	bnez	s7,11f04 <_vfprintf_r+0x1964>
   1141c:	00900713          	li	a4,9
   11420:	2f9762e3          	bltu	a4,s9,11f04 <_vfprintf_r+0x1964>
   11424:	030c8c93          	addi	s9,s9,48
   11428:	1b9107a3          	sb	s9,431(sp)
   1142c:	000a0993          	mv	s3,s4
   11430:	00100b93          	li	s7,1
   11434:	1af10d13          	addi	s10,sp,431
   11438:	d04ff06f          	j	1093c <_vfprintf_r+0x39c>
   1143c:	00100693          	li	a3,1
   11440:	00d71463          	bne	a4,a3,11448 <_vfprintf_r+0xea8>
   11444:	4bc0106f          	j	12900 <_vfprintf_r+0x2360>
   11448:	00200693          	li	a3,2
   1144c:	00098a13          	mv	s4,s3
   11450:	dcd718e3          	bne	a4,a3,11220 <_vfprintf_r+0xc80>
   11454:	02c12683          	lw	a3,44(sp)
   11458:	1b010d13          	addi	s10,sp,432
   1145c:	00fcf793          	andi	a5,s9,15
   11460:	00f687b3          	add	a5,a3,a5
   11464:	0007c783          	lbu	a5,0(a5)
   11468:	01cb9713          	slli	a4,s7,0x1c
   1146c:	004cdc93          	srli	s9,s9,0x4
   11470:	fffd0d13          	addi	s10,s10,-1
   11474:	01976cb3          	or	s9,a4,s9
   11478:	004bdb93          	srli	s7,s7,0x4
   1147c:	00fd0023          	sb	a5,0(s10)
   11480:	017ce7b3          	or	a5,s9,s7
   11484:	fc079ce3          	bnez	a5,1145c <_vfprintf_r+0xebc>
   11488:	1b010793          	addi	a5,sp,432
   1148c:	41a78bb3          	sub	s7,a5,s10
   11490:	000a0993          	mv	s3,s4
   11494:	ca8ff06f          	j	1093c <_vfprintf_r+0x39c>
   11498:	06500713          	li	a4,101
   1149c:	30875c63          	bge	a4,s0,117b4 <_vfprintf_r+0x1214>
   114a0:	0f012703          	lw	a4,240(sp)
   114a4:	0a010593          	addi	a1,sp,160
   114a8:	0b010513          	addi	a0,sp,176
   114ac:	0ae12823          	sw	a4,176(sp)
   114b0:	0f412703          	lw	a4,244(sp)
   114b4:	02f12a23          	sw	a5,52(sp)
   114b8:	0a012023          	sw	zero,160(sp)
   114bc:	0ae12a23          	sw	a4,180(sp)
   114c0:	0f812703          	lw	a4,248(sp)
   114c4:	0a012223          	sw	zero,164(sp)
   114c8:	0a012423          	sw	zero,168(sp)
   114cc:	0ae12c23          	sw	a4,184(sp)
   114d0:	0fc12703          	lw	a4,252(sp)
   114d4:	0a012623          	sw	zero,172(sp)
   114d8:	0ae12e23          	sw	a4,188(sp)
   114dc:	3450f0ef          	jal	ra,21020 <__eqtf2>
   114e0:	03412783          	lw	a5,52(sp)
   114e4:	52051a63          	bnez	a0,11a18 <_vfprintf_r+0x1478>
   114e8:	0e812703          	lw	a4,232(sp)
   114ec:	00013697          	auipc	a3,0x13
   114f0:	30868693          	addi	a3,a3,776 # 247f4 <zeroes.4505+0x50>
   114f4:	00178793          	addi	a5,a5,1
   114f8:	00dda023          	sw	a3,0(s11)
   114fc:	00170713          	addi	a4,a4,1 # ffff8001 <__global_pointer$+0xfffd0a91>
   11500:	00100693          	li	a3,1
   11504:	00dda223          	sw	a3,4(s11)
   11508:	0ef12623          	sw	a5,236(sp)
   1150c:	0ee12423          	sw	a4,232(sp)
   11510:	00700793          	li	a5,7
   11514:	008d8d93          	addi	s11,s11,8
   11518:	2ae7cee3          	blt	a5,a4,11fd4 <_vfprintf_r+0x1a34>
   1151c:	0cc12783          	lw	a5,204(sp)
   11520:	01812703          	lw	a4,24(sp)
   11524:	00e7ca63          	blt	a5,a4,11538 <_vfprintf_r+0xf98>
   11528:	0019f793          	andi	a5,s3,1
   1152c:	00079663          	bnez	a5,11538 <_vfprintf_r+0xf98>
   11530:	0ec12783          	lw	a5,236(sp)
   11534:	819ff06f          	j	10d4c <_vfprintf_r+0x7ac>
   11538:	03012783          	lw	a5,48(sp)
   1153c:	02812683          	lw	a3,40(sp)
   11540:	0e812703          	lw	a4,232(sp)
   11544:	00fda023          	sw	a5,0(s11)
   11548:	0ec12783          	lw	a5,236(sp)
   1154c:	00170713          	addi	a4,a4,1
   11550:	00dda223          	sw	a3,4(s11)
   11554:	00f687b3          	add	a5,a3,a5
   11558:	0ef12623          	sw	a5,236(sp)
   1155c:	0ee12423          	sw	a4,232(sp)
   11560:	00700693          	li	a3,7
   11564:	008d8d93          	addi	s11,s11,8
   11568:	7ce6c463          	blt	a3,a4,11d30 <_vfprintf_r+0x1790>
   1156c:	01812703          	lw	a4,24(sp)
   11570:	fff70413          	addi	s0,a4,-1
   11574:	fc805c63          	blez	s0,10d4c <_vfprintf_r+0x7ac>
   11578:	0e812703          	lw	a4,232(sp)
   1157c:	268c5ce3          	bge	s8,s0,11ff4 <_vfprintf_r+0x1a54>
   11580:	00700b93          	li	s7,7
   11584:	00412b03          	lw	s6,4(sp)
   11588:	00c0006f          	j	11594 <_vfprintf_r+0xff4>
   1158c:	ff040413          	addi	s0,s0,-16
   11590:	268c52e3          	bge	s8,s0,11ff4 <_vfprintf_r+0x1a54>
   11594:	01078793          	addi	a5,a5,16
   11598:	00170713          	addi	a4,a4,1
   1159c:	00013697          	auipc	a3,0x13
   115a0:	20868693          	addi	a3,a3,520 # 247a4 <zeroes.4505>
   115a4:	00dda023          	sw	a3,0(s11)
   115a8:	018da223          	sw	s8,4(s11)
   115ac:	0ef12623          	sw	a5,236(sp)
   115b0:	0ee12423          	sw	a4,232(sp)
   115b4:	008d8d93          	addi	s11,s11,8
   115b8:	fcebdae3          	bge	s7,a4,1158c <_vfprintf_r+0xfec>
   115bc:	0e410613          	addi	a2,sp,228
   115c0:	000b0593          	mv	a1,s6
   115c4:	000a8513          	mv	a0,s5
   115c8:	5540a0ef          	jal	ra,1bb1c <__sprint_r>
   115cc:	a8051663          	bnez	a0,10858 <_vfprintf_r+0x2b8>
   115d0:	0ec12783          	lw	a5,236(sp)
   115d4:	0e812703          	lw	a4,232(sp)
   115d8:	10c10d93          	addi	s11,sp,268
   115dc:	fb1ff06f          	j	1158c <_vfprintf_r+0xfec>
   115e0:	41448cb3          	sub	s9,s1,s4
   115e4:	f3905863          	blez	s9,10d14 <_vfprintf_r+0x774>
   115e8:	0e812703          	lw	a4,232(sp)
   115ec:	099c5e63          	bge	s8,s9,11688 <_vfprintf_r+0x10e8>
   115f0:	000c8693          	mv	a3,s9
   115f4:	02812a23          	sw	s0,52(sp)
   115f8:	000b8c93          	mv	s9,s7
   115fc:	00700e13          	li	t3,7
   11600:	000a0b93          	mv	s7,s4
   11604:	00412403          	lw	s0,4(sp)
   11608:	00048a13          	mv	s4,s1
   1160c:	00068493          	mv	s1,a3
   11610:	00c0006f          	j	1161c <_vfprintf_r+0x107c>
   11614:	ff048493          	addi	s1,s1,-16
   11618:	049c5c63          	bge	s8,s1,11670 <_vfprintf_r+0x10d0>
   1161c:	01078793          	addi	a5,a5,16
   11620:	00170713          	addi	a4,a4,1
   11624:	00013697          	auipc	a3,0x13
   11628:	18068693          	addi	a3,a3,384 # 247a4 <zeroes.4505>
   1162c:	00dda023          	sw	a3,0(s11)
   11630:	018da223          	sw	s8,4(s11)
   11634:	0ef12623          	sw	a5,236(sp)
   11638:	0ee12423          	sw	a4,232(sp)
   1163c:	008d8d93          	addi	s11,s11,8
   11640:	fcee5ae3          	bge	t3,a4,11614 <_vfprintf_r+0x1074>
   11644:	0e410613          	addi	a2,sp,228
   11648:	00040593          	mv	a1,s0
   1164c:	000a8513          	mv	a0,s5
   11650:	4cc0a0ef          	jal	ra,1bb1c <__sprint_r>
   11654:	a0051263          	bnez	a0,10858 <_vfprintf_r+0x2b8>
   11658:	ff048493          	addi	s1,s1,-16
   1165c:	0ec12783          	lw	a5,236(sp)
   11660:	0e812703          	lw	a4,232(sp)
   11664:	10c10d93          	addi	s11,sp,268
   11668:	00700e13          	li	t3,7
   1166c:	fa9c48e3          	blt	s8,s1,1161c <_vfprintf_r+0x107c>
   11670:	03412403          	lw	s0,52(sp)
   11674:	00048693          	mv	a3,s1
   11678:	000a0493          	mv	s1,s4
   1167c:	000b8a13          	mv	s4,s7
   11680:	000c8b93          	mv	s7,s9
   11684:	00068c93          	mv	s9,a3
   11688:	00013697          	auipc	a3,0x13
   1168c:	11c68693          	addi	a3,a3,284 # 247a4 <zeroes.4505>
   11690:	019787b3          	add	a5,a5,s9
   11694:	00170713          	addi	a4,a4,1
   11698:	00dda023          	sw	a3,0(s11)
   1169c:	019da223          	sw	s9,4(s11)
   116a0:	0ef12623          	sw	a5,236(sp)
   116a4:	0ee12423          	sw	a4,232(sp)
   116a8:	00700693          	li	a3,7
   116ac:	008d8d93          	addi	s11,s11,8
   116b0:	e6e6d263          	bge	a3,a4,10d14 <_vfprintf_r+0x774>
   116b4:	00412583          	lw	a1,4(sp)
   116b8:	0e410613          	addi	a2,sp,228
   116bc:	000a8513          	mv	a0,s5
   116c0:	45c0a0ef          	jal	ra,1bb1c <__sprint_r>
   116c4:	98051a63          	bnez	a0,10858 <_vfprintf_r+0x2b8>
   116c8:	0ec12783          	lw	a5,236(sp)
   116cc:	10c10d93          	addi	s11,sp,268
   116d0:	e44ff06f          	j	10d14 <_vfprintf_r+0x774>
   116d4:	0e812703          	lw	a4,232(sp)
   116d8:	096c5863          	bge	s8,s6,11768 <_vfprintf_r+0x11c8>
   116dc:	000a0693          	mv	a3,s4
   116e0:	02812a23          	sw	s0,52(sp)
   116e4:	00048a13          	mv	s4,s1
   116e8:	00700c93          	li	s9,7
   116ec:	000b0493          	mv	s1,s6
   116f0:	00412403          	lw	s0,4(sp)
   116f4:	00068b13          	mv	s6,a3
   116f8:	00c0006f          	j	11704 <_vfprintf_r+0x1164>
   116fc:	ff048493          	addi	s1,s1,-16
   11700:	049c5a63          	bge	s8,s1,11754 <_vfprintf_r+0x11b4>
   11704:	01078793          	addi	a5,a5,16
   11708:	00170713          	addi	a4,a4,1
   1170c:	00013697          	auipc	a3,0x13
   11710:	09868693          	addi	a3,a3,152 # 247a4 <zeroes.4505>
   11714:	00dda023          	sw	a3,0(s11)
   11718:	018da223          	sw	s8,4(s11)
   1171c:	0ef12623          	sw	a5,236(sp)
   11720:	0ee12423          	sw	a4,232(sp)
   11724:	008d8d93          	addi	s11,s11,8
   11728:	fcecdae3          	bge	s9,a4,116fc <_vfprintf_r+0x115c>
   1172c:	0e410613          	addi	a2,sp,228
   11730:	00040593          	mv	a1,s0
   11734:	000a8513          	mv	a0,s5
   11738:	3e40a0ef          	jal	ra,1bb1c <__sprint_r>
   1173c:	90051e63          	bnez	a0,10858 <_vfprintf_r+0x2b8>
   11740:	ff048493          	addi	s1,s1,-16
   11744:	0ec12783          	lw	a5,236(sp)
   11748:	0e812703          	lw	a4,232(sp)
   1174c:	10c10d93          	addi	s11,sp,268
   11750:	fa9c4ae3          	blt	s8,s1,11704 <_vfprintf_r+0x1164>
   11754:	03412403          	lw	s0,52(sp)
   11758:	000b0693          	mv	a3,s6
   1175c:	00048b13          	mv	s6,s1
   11760:	000a0493          	mv	s1,s4
   11764:	00068a13          	mv	s4,a3
   11768:	00013697          	auipc	a3,0x13
   1176c:	03c68693          	addi	a3,a3,60 # 247a4 <zeroes.4505>
   11770:	016787b3          	add	a5,a5,s6
   11774:	00170713          	addi	a4,a4,1
   11778:	00dda023          	sw	a3,0(s11)
   1177c:	016da223          	sw	s6,4(s11)
   11780:	0ef12623          	sw	a5,236(sp)
   11784:	0ee12423          	sw	a4,232(sp)
   11788:	00700693          	li	a3,7
   1178c:	008d8d93          	addi	s11,s11,8
   11790:	d8e6d663          	bge	a3,a4,10d1c <_vfprintf_r+0x77c>
   11794:	00412583          	lw	a1,4(sp)
   11798:	0e410613          	addi	a2,sp,228
   1179c:	000a8513          	mv	a0,s5
   117a0:	37c0a0ef          	jal	ra,1bb1c <__sprint_r>
   117a4:	8a051a63          	bnez	a0,10858 <_vfprintf_r+0x2b8>
   117a8:	0ec12783          	lw	a5,236(sp)
   117ac:	10c10d93          	addi	s11,sp,268
   117b0:	d6cff06f          	j	10d1c <_vfprintf_r+0x77c>
   117b4:	0e812683          	lw	a3,232(sp)
   117b8:	00178c93          	addi	s9,a5,1
   117bc:	01812783          	lw	a5,24(sp)
   117c0:	00100713          	li	a4,1
   117c4:	01ada023          	sw	s10,0(s11)
   117c8:	00168413          	addi	s0,a3,1
   117cc:	008d8b93          	addi	s7,s11,8
   117d0:	def75c63          	bge	a4,a5,10dc8 <_vfprintf_r+0x828>
   117d4:	00100713          	li	a4,1
   117d8:	00eda223          	sw	a4,4(s11)
   117dc:	0f912623          	sw	s9,236(sp)
   117e0:	0e812423          	sw	s0,232(sp)
   117e4:	00700713          	li	a4,7
   117e8:	62874063          	blt	a4,s0,11e08 <_vfprintf_r+0x1868>
   117ec:	02812783          	lw	a5,40(sp)
   117f0:	03012703          	lw	a4,48(sp)
   117f4:	00140413          	addi	s0,s0,1
   117f8:	00fc8cb3          	add	s9,s9,a5
   117fc:	00eba023          	sw	a4,0(s7)
   11800:	00fba223          	sw	a5,4(s7)
   11804:	0f912623          	sw	s9,236(sp)
   11808:	0e812423          	sw	s0,232(sp)
   1180c:	00700713          	li	a4,7
   11810:	008b8b93          	addi	s7,s7,8
   11814:	60874e63          	blt	a4,s0,11e30 <_vfprintf_r+0x1890>
   11818:	0f012703          	lw	a4,240(sp)
   1181c:	01812783          	lw	a5,24(sp)
   11820:	00140613          	addi	a2,s0,1
   11824:	0ae12823          	sw	a4,176(sp)
   11828:	0f412703          	lw	a4,244(sp)
   1182c:	0a010593          	addi	a1,sp,160
   11830:	0b010513          	addi	a0,sp,176
   11834:	0ae12a23          	sw	a4,180(sp)
   11838:	0f812703          	lw	a4,248(sp)
   1183c:	00060b13          	mv	s6,a2
   11840:	02c12023          	sw	a2,32(sp)
   11844:	0ae12c23          	sw	a4,184(sp)
   11848:	0fc12703          	lw	a4,252(sp)
   1184c:	0a012023          	sw	zero,160(sp)
   11850:	0a012223          	sw	zero,164(sp)
   11854:	0ae12e23          	sw	a4,188(sp)
   11858:	fff78713          	addi	a4,a5,-1
   1185c:	00e12a23          	sw	a4,20(sp)
   11860:	0a012423          	sw	zero,168(sp)
   11864:	0a012623          	sw	zero,172(sp)
   11868:	7b80f0ef          	jal	ra,21020 <__eqtf2>
   1186c:	008b8d93          	addi	s11,s7,8
   11870:	01412703          	lw	a4,20(sp)
   11874:	02012603          	lw	a2,32(sp)
   11878:	32050063          	beqz	a0,11b98 <_vfprintf_r+0x15f8>
   1187c:	00ec8cb3          	add	s9,s9,a4
   11880:	001d0813          	addi	a6,s10,1
   11884:	00eba223          	sw	a4,4(s7)
   11888:	010ba023          	sw	a6,0(s7)
   1188c:	0f912623          	sw	s9,236(sp)
   11890:	0f612423          	sw	s6,232(sp)
   11894:	00700713          	li	a4,7
   11898:	47674463          	blt	a4,s6,11d00 <_vfprintf_r+0x1760>
   1189c:	010b8713          	addi	a4,s7,16
   118a0:	00240b13          	addi	s6,s0,2
   118a4:	000d8b93          	mv	s7,s11
   118a8:	00070d93          	mv	s11,a4
   118ac:	d40ff06f          	j	10dec <_vfprintf_r+0x84c>
   118b0:	00098a13          	mv	s4,s3
   118b4:	95dff06f          	j	11210 <_vfprintf_r+0xc70>
   118b8:	0e812703          	lw	a4,232(sp)
   118bc:	00013c97          	auipc	s9,0x13
   118c0:	ed8c8c93          	addi	s9,s9,-296 # 24794 <blanks.4504>
   118c4:	0cdc5863          	bge	s8,a3,11994 <_vfprintf_r+0x13f4>
   118c8:	05212623          	sw	s2,76(sp)
   118cc:	000d8613          	mv	a2,s11
   118d0:	000c8913          	mv	s2,s9
   118d4:	000d0d93          	mv	s11,s10
   118d8:	000a0c93          	mv	s9,s4
   118dc:	000b8d13          	mv	s10,s7
   118e0:	00098a13          	mv	s4,s3
   118e4:	000b0b93          	mv	s7,s6
   118e8:	00040993          	mv	s3,s0
   118ec:	00048b13          	mv	s6,s1
   118f0:	00700f93          	li	t6,7
   118f4:	03e12a23          	sw	t5,52(sp)
   118f8:	05d12423          	sw	t4,72(sp)
   118fc:	00412483          	lw	s1,4(sp)
   11900:	00068413          	mv	s0,a3
   11904:	00c0006f          	j	11910 <_vfprintf_r+0x1370>
   11908:	ff040413          	addi	s0,s0,-16
   1190c:	048c5a63          	bge	s8,s0,11960 <_vfprintf_r+0x13c0>
   11910:	01078793          	addi	a5,a5,16
   11914:	00170713          	addi	a4,a4,1
   11918:	01262023          	sw	s2,0(a2)
   1191c:	01862223          	sw	s8,4(a2)
   11920:	0ef12623          	sw	a5,236(sp)
   11924:	0ee12423          	sw	a4,232(sp)
   11928:	00860613          	addi	a2,a2,8
   1192c:	fcefdee3          	bge	t6,a4,11908 <_vfprintf_r+0x1368>
   11930:	0e410613          	addi	a2,sp,228
   11934:	00048593          	mv	a1,s1
   11938:	000a8513          	mv	a0,s5
   1193c:	1e00a0ef          	jal	ra,1bb1c <__sprint_r>
   11940:	00050463          	beqz	a0,11948 <_vfprintf_r+0x13a8>
   11944:	f15fe06f          	j	10858 <_vfprintf_r+0x2b8>
   11948:	ff040413          	addi	s0,s0,-16
   1194c:	0ec12783          	lw	a5,236(sp)
   11950:	0e812703          	lw	a4,232(sp)
   11954:	10c10613          	addi	a2,sp,268
   11958:	00700f93          	li	t6,7
   1195c:	fa8c4ae3          	blt	s8,s0,11910 <_vfprintf_r+0x1370>
   11960:	00040693          	mv	a3,s0
   11964:	03412f03          	lw	t5,52(sp)
   11968:	00098413          	mv	s0,s3
   1196c:	04812e83          	lw	t4,72(sp)
   11970:	000a0993          	mv	s3,s4
   11974:	000c8a13          	mv	s4,s9
   11978:	00090c93          	mv	s9,s2
   1197c:	04c12903          	lw	s2,76(sp)
   11980:	000b0493          	mv	s1,s6
   11984:	000b8b13          	mv	s6,s7
   11988:	000d0b93          	mv	s7,s10
   1198c:	000d8d13          	mv	s10,s11
   11990:	00060d93          	mv	s11,a2
   11994:	00d787b3          	add	a5,a5,a3
   11998:	00170713          	addi	a4,a4,1
   1199c:	00dda223          	sw	a3,4(s11)
   119a0:	019da023          	sw	s9,0(s11)
   119a4:	0ef12623          	sw	a5,236(sp)
   119a8:	0ee12423          	sw	a4,232(sp)
   119ac:	00700693          	li	a3,7
   119b0:	008d8d93          	addi	s11,s11,8
   119b4:	aee6d663          	bge	a3,a4,10ca0 <_vfprintf_r+0x700>
   119b8:	00412583          	lw	a1,4(sp)
   119bc:	0e410613          	addi	a2,sp,228
   119c0:	000a8513          	mv	a0,s5
   119c4:	05d12423          	sw	t4,72(sp)
   119c8:	03e12a23          	sw	t5,52(sp)
   119cc:	1500a0ef          	jal	ra,1bb1c <__sprint_r>
   119d0:	00050463          	beqz	a0,119d8 <_vfprintf_r+0x1438>
   119d4:	e85fe06f          	j	10858 <_vfprintf_r+0x2b8>
   119d8:	0ec12783          	lw	a5,236(sp)
   119dc:	10c10d93          	addi	s11,sp,268
   119e0:	04812e83          	lw	t4,72(sp)
   119e4:	03412f03          	lw	t5,52(sp)
   119e8:	ab8ff06f          	j	10ca0 <_vfprintf_r+0x700>
   119ec:	00412583          	lw	a1,4(sp)
   119f0:	0e410613          	addi	a2,sp,228
   119f4:	000a8513          	mv	a0,s5
   119f8:	03d12a23          	sw	t4,52(sp)
   119fc:	1200a0ef          	jal	ra,1bb1c <__sprint_r>
   11a00:	00050463          	beqz	a0,11a08 <_vfprintf_r+0x1468>
   11a04:	e55fe06f          	j	10858 <_vfprintf_r+0x2b8>
   11a08:	0ec12783          	lw	a5,236(sp)
   11a0c:	10c10d93          	addi	s11,sp,268
   11a10:	03412e83          	lw	t4,52(sp)
   11a14:	af8ff06f          	j	10d0c <_vfprintf_r+0x76c>
   11a18:	0cc12683          	lw	a3,204(sp)
   11a1c:	42d05e63          	blez	a3,11e58 <_vfprintf_r+0x18b8>
   11a20:	01812703          	lw	a4,24(sp)
   11a24:	01412683          	lw	a3,20(sp)
   11a28:	00070413          	mv	s0,a4
   11a2c:	28e6cc63          	blt	a3,a4,11cc4 <_vfprintf_r+0x1724>
   11a30:	02805663          	blez	s0,11a5c <_vfprintf_r+0x14bc>
   11a34:	0e812703          	lw	a4,232(sp)
   11a38:	008787b3          	add	a5,a5,s0
   11a3c:	01ada023          	sw	s10,0(s11)
   11a40:	00170713          	addi	a4,a4,1
   11a44:	008da223          	sw	s0,4(s11)
   11a48:	0ef12623          	sw	a5,236(sp)
   11a4c:	0ee12423          	sw	a4,232(sp)
   11a50:	00700693          	li	a3,7
   11a54:	008d8d93          	addi	s11,s11,8
   11a58:	1ee6cee3          	blt	a3,a4,12454 <_vfprintf_r+0x1eb4>
   11a5c:	fff44713          	not	a4,s0
   11a60:	41f75713          	srai	a4,a4,0x1f
   11a64:	00e47433          	and	s0,s0,a4
   11a68:	01412703          	lw	a4,20(sp)
   11a6c:	40870433          	sub	s0,a4,s0
   11a70:	32804263          	bgtz	s0,11d94 <_vfprintf_r+0x17f4>
   11a74:	01412683          	lw	a3,20(sp)
   11a78:	4009f713          	andi	a4,s3,1024
   11a7c:	00dd0b33          	add	s6,s10,a3
   11a80:	7c071663          	bnez	a4,1224c <_vfprintf_r+0x1cac>
   11a84:	0cc12403          	lw	s0,204(sp)
   11a88:	01812703          	lw	a4,24(sp)
   11a8c:	00e44663          	blt	s0,a4,11a98 <_vfprintf_r+0x14f8>
   11a90:	0019f713          	andi	a4,s3,1
   11a94:	1e0706e3          	beqz	a4,12480 <_vfprintf_r+0x1ee0>
   11a98:	03012703          	lw	a4,48(sp)
   11a9c:	02812683          	lw	a3,40(sp)
   11aa0:	008d8d93          	addi	s11,s11,8
   11aa4:	feedac23          	sw	a4,-8(s11)
   11aa8:	0e812703          	lw	a4,232(sp)
   11aac:	00d787b3          	add	a5,a5,a3
   11ab0:	feddae23          	sw	a3,-4(s11)
   11ab4:	00170713          	addi	a4,a4,1
   11ab8:	0ef12623          	sw	a5,236(sp)
   11abc:	0ee12423          	sw	a4,232(sp)
   11ac0:	00700693          	li	a3,7
   11ac4:	00e6d463          	bge	a3,a4,11acc <_vfprintf_r+0x152c>
   11ac8:	0700106f          	j	12b38 <_vfprintf_r+0x2598>
   11acc:	01812683          	lw	a3,24(sp)
   11ad0:	00dd0733          	add	a4,s10,a3
   11ad4:	40868433          	sub	s0,a3,s0
   11ad8:	41670733          	sub	a4,a4,s6
   11adc:	00040b93          	mv	s7,s0
   11ae0:	00875463          	bge	a4,s0,11ae8 <_vfprintf_r+0x1548>
   11ae4:	00070b93          	mv	s7,a4
   11ae8:	03705863          	blez	s7,11b18 <_vfprintf_r+0x1578>
   11aec:	0e812703          	lw	a4,232(sp)
   11af0:	017787b3          	add	a5,a5,s7
   11af4:	016da023          	sw	s6,0(s11)
   11af8:	00170713          	addi	a4,a4,1
   11afc:	017da223          	sw	s7,4(s11)
   11b00:	0ef12623          	sw	a5,236(sp)
   11b04:	0ee12423          	sw	a4,232(sp)
   11b08:	00700693          	li	a3,7
   11b0c:	008d8d93          	addi	s11,s11,8
   11b10:	00e6d463          	bge	a3,a4,11b18 <_vfprintf_r+0x1578>
   11b14:	0ac0106f          	j	12bc0 <_vfprintf_r+0x2620>
   11b18:	fffbc713          	not	a4,s7
   11b1c:	41f75713          	srai	a4,a4,0x1f
   11b20:	00ebfbb3          	and	s7,s7,a4
   11b24:	41740433          	sub	s0,s0,s7
   11b28:	a2805263          	blez	s0,10d4c <_vfprintf_r+0x7ac>
   11b2c:	0e812703          	lw	a4,232(sp)
   11b30:	4c8c5263          	bge	s8,s0,11ff4 <_vfprintf_r+0x1a54>
   11b34:	00700b93          	li	s7,7
   11b38:	00412b03          	lw	s6,4(sp)
   11b3c:	00c0006f          	j	11b48 <_vfprintf_r+0x15a8>
   11b40:	ff040413          	addi	s0,s0,-16
   11b44:	4a8c5863          	bge	s8,s0,11ff4 <_vfprintf_r+0x1a54>
   11b48:	01078793          	addi	a5,a5,16
   11b4c:	00170713          	addi	a4,a4,1
   11b50:	00013697          	auipc	a3,0x13
   11b54:	c5468693          	addi	a3,a3,-940 # 247a4 <zeroes.4505>
   11b58:	00dda023          	sw	a3,0(s11)
   11b5c:	018da223          	sw	s8,4(s11)
   11b60:	0ef12623          	sw	a5,236(sp)
   11b64:	0ee12423          	sw	a4,232(sp)
   11b68:	008d8d93          	addi	s11,s11,8
   11b6c:	fcebdae3          	bge	s7,a4,11b40 <_vfprintf_r+0x15a0>
   11b70:	0e410613          	addi	a2,sp,228
   11b74:	000b0593          	mv	a1,s6
   11b78:	000a8513          	mv	a0,s5
   11b7c:	7a1090ef          	jal	ra,1bb1c <__sprint_r>
   11b80:	00050463          	beqz	a0,11b88 <_vfprintf_r+0x15e8>
   11b84:	cd5fe06f          	j	10858 <_vfprintf_r+0x2b8>
   11b88:	0ec12783          	lw	a5,236(sp)
   11b8c:	0e812703          	lw	a4,232(sp)
   11b90:	10c10d93          	addi	s11,sp,268
   11b94:	fadff06f          	j	11b40 <_vfprintf_r+0x15a0>
   11b98:	a4e05a63          	blez	a4,10dec <_vfprintf_r+0x84c>
   11b9c:	00ec4463          	blt	s8,a4,11ba4 <_vfprintf_r+0x1604>
   11ba0:	4880106f          	j	13028 <_vfprintf_r+0x2a88>
   11ba4:	00700b13          	li	s6,7
   11ba8:	00070d93          	mv	s11,a4
   11bac:	00412d03          	lw	s10,4(sp)
   11bb0:	00060413          	mv	s0,a2
   11bb4:	0100006f          	j	11bc4 <_vfprintf_r+0x1624>
   11bb8:	ff0d8d93          	addi	s11,s11,-16
   11bbc:	11bc5a63          	bge	s8,s11,11cd0 <_vfprintf_r+0x1730>
   11bc0:	00140413          	addi	s0,s0,1
   11bc4:	010c8c93          	addi	s9,s9,16
   11bc8:	00013797          	auipc	a5,0x13
   11bcc:	bdc78793          	addi	a5,a5,-1060 # 247a4 <zeroes.4505>
   11bd0:	00fba023          	sw	a5,0(s7)
   11bd4:	018ba223          	sw	s8,4(s7)
   11bd8:	0f912623          	sw	s9,236(sp)
   11bdc:	0e812423          	sw	s0,232(sp)
   11be0:	008b8b93          	addi	s7,s7,8
   11be4:	fc8b5ae3          	bge	s6,s0,11bb8 <_vfprintf_r+0x1618>
   11be8:	0e410613          	addi	a2,sp,228
   11bec:	000d0593          	mv	a1,s10
   11bf0:	000a8513          	mv	a0,s5
   11bf4:	729090ef          	jal	ra,1bb1c <__sprint_r>
   11bf8:	00050463          	beqz	a0,11c00 <_vfprintf_r+0x1660>
   11bfc:	c5dfe06f          	j	10858 <_vfprintf_r+0x2b8>
   11c00:	0ec12c83          	lw	s9,236(sp)
   11c04:	0e812403          	lw	s0,232(sp)
   11c08:	10c10b93          	addi	s7,sp,268
   11c0c:	fadff06f          	j	11bb8 <_vfprintf_r+0x1618>
   11c10:	03000793          	li	a5,48
   11c14:	1af107a3          	sb	a5,431(sp)
   11c18:	1af10d13          	addi	s10,sp,431
   11c1c:	d21fe06f          	j	1093c <_vfprintf_r+0x39c>
   11c20:	2009f793          	andi	a5,s3,512
   11c24:	0c0798e3          	bnez	a5,124f4 <_vfprintf_r+0x1f54>
   11c28:	00000b93          	li	s7,0
   11c2c:	cc5fe06f          	j	108f0 <_vfprintf_r+0x350>
   11c30:	00c12703          	lw	a4,12(sp)
   11c34:	00072783          	lw	a5,0(a4)
   11c38:	00470713          	addi	a4,a4,4
   11c3c:	00e12623          	sw	a4,12(sp)
   11c40:	0007a603          	lw	a2,0(a5)
   11c44:	0047a683          	lw	a3,4(a5)
   11c48:	0087a703          	lw	a4,8(a5)
   11c4c:	00c7a783          	lw	a5,12(a5)
   11c50:	0ec12823          	sw	a2,240(sp)
   11c54:	0ed12a23          	sw	a3,244(sp)
   11c58:	0ee12c23          	sw	a4,248(sp)
   11c5c:	0ef12e23          	sw	a5,252(sp)
   11c60:	ac4ff06f          	j	10f24 <_vfprintf_r+0x984>
   11c64:	03000713          	li	a4,48
   11c68:	0029e993          	ori	s3,s3,2
   11c6c:	0ce10423          	sb	a4,200(sp)
   11c70:	0c8104a3          	sb	s0,201(sp)
   11c74:	bff9fa13          	andi	s4,s3,-1025
   11c78:	00200713          	li	a4,2
   11c7c:	c91fe06f          	j	1090c <_vfprintf_r+0x36c>
   11c80:	00812603          	lw	a2,8(sp)
   11c84:	0006a783          	lw	a5,0(a3)
   11c88:	00e12623          	sw	a4,12(sp)
   11c8c:	41f65693          	srai	a3,a2,0x1f
   11c90:	00c7a023          	sw	a2,0(a5)
   11c94:	00d7a223          	sw	a3,4(a5)
   11c98:	00090d13          	mv	s10,s2
   11c9c:	e05fe06f          	j	10aa0 <_vfprintf_r+0x500>
   11ca0:	03c12783          	lw	a5,60(sp)
   11ca4:	00094403          	lbu	s0,0(s2)
   11ca8:	00079463          	bnez	a5,11cb0 <_vfprintf_r+0x1710>
   11cac:	aa9fe06f          	j	10754 <_vfprintf_r+0x1b4>
   11cb0:	0007c783          	lbu	a5,0(a5)
   11cb4:	00079463          	bnez	a5,11cbc <_vfprintf_r+0x171c>
   11cb8:	a9dfe06f          	j	10754 <_vfprintf_r+0x1b4>
   11cbc:	4009e993          	ori	s3,s3,1024
   11cc0:	a95fe06f          	j	10754 <_vfprintf_r+0x1b4>
   11cc4:	00068413          	mv	s0,a3
   11cc8:	d68046e3          	bgtz	s0,11a34 <_vfprintf_r+0x1494>
   11ccc:	d91ff06f          	j	11a5c <_vfprintf_r+0x14bc>
   11cd0:	000d8713          	mv	a4,s11
   11cd4:	00140b13          	addi	s6,s0,1
   11cd8:	008b8613          	addi	a2,s7,8
   11cdc:	00ec8cb3          	add	s9,s9,a4
   11ce0:	00013797          	auipc	a5,0x13
   11ce4:	ac478793          	addi	a5,a5,-1340 # 247a4 <zeroes.4505>
   11ce8:	00eba223          	sw	a4,4(s7)
   11cec:	00fba023          	sw	a5,0(s7)
   11cf0:	0f912623          	sw	s9,236(sp)
   11cf4:	0f612423          	sw	s6,232(sp)
   11cf8:	00700713          	li	a4,7
   11cfc:	71675a63          	bge	a4,s6,12410 <_vfprintf_r+0x1e70>
   11d00:	00412583          	lw	a1,4(sp)
   11d04:	0e410613          	addi	a2,sp,228
   11d08:	000a8513          	mv	a0,s5
   11d0c:	611090ef          	jal	ra,1bb1c <__sprint_r>
   11d10:	00050463          	beqz	a0,11d18 <_vfprintf_r+0x1778>
   11d14:	b45fe06f          	j	10858 <_vfprintf_r+0x2b8>
   11d18:	0e812683          	lw	a3,232(sp)
   11d1c:	0ec12c83          	lw	s9,236(sp)
   11d20:	11410d93          	addi	s11,sp,276
   11d24:	00168b13          	addi	s6,a3,1
   11d28:	10c10b93          	addi	s7,sp,268
   11d2c:	8c0ff06f          	j	10dec <_vfprintf_r+0x84c>
   11d30:	00412583          	lw	a1,4(sp)
   11d34:	0e410613          	addi	a2,sp,228
   11d38:	000a8513          	mv	a0,s5
   11d3c:	5e1090ef          	jal	ra,1bb1c <__sprint_r>
   11d40:	00050463          	beqz	a0,11d48 <_vfprintf_r+0x17a8>
   11d44:	b15fe06f          	j	10858 <_vfprintf_r+0x2b8>
   11d48:	0ec12783          	lw	a5,236(sp)
   11d4c:	10c10d93          	addi	s11,sp,268
   11d50:	81dff06f          	j	1156c <_vfprintf_r+0xfcc>
   11d54:	00194403          	lbu	s0,1(s2)
   11d58:	2009e993          	ori	s3,s3,512
   11d5c:	00190913          	addi	s2,s2,1
   11d60:	9f5fe06f          	j	10754 <_vfprintf_r+0x1b4>
   11d64:	00194403          	lbu	s0,1(s2)
   11d68:	0209e993          	ori	s3,s3,32
   11d6c:	00190913          	addi	s2,s2,1
   11d70:	9e5fe06f          	j	10754 <_vfprintf_r+0x1b4>
   11d74:	00600793          	li	a5,6
   11d78:	000b0b93          	mv	s7,s6
   11d7c:	6f67ee63          	bltu	a5,s6,12478 <_vfprintf_r+0x1ed8>
   11d80:	000b8a13          	mv	s4,s7
   11d84:	01912623          	sw	s9,12(sp)
   11d88:	00013d17          	auipc	s10,0x13
   11d8c:	a64d0d13          	addi	s10,s10,-1436 # 247ec <zeroes.4505+0x48>
   11d90:	eddfe06f          	j	10c6c <_vfprintf_r+0x6cc>
   11d94:	0e812703          	lw	a4,232(sp)
   11d98:	468c5263          	bge	s8,s0,121fc <_vfprintf_r+0x1c5c>
   11d9c:	00700b93          	li	s7,7
   11da0:	00412b03          	lw	s6,4(sp)
   11da4:	00c0006f          	j	11db0 <_vfprintf_r+0x1810>
   11da8:	ff040413          	addi	s0,s0,-16
   11dac:	448c5863          	bge	s8,s0,121fc <_vfprintf_r+0x1c5c>
   11db0:	01078793          	addi	a5,a5,16
   11db4:	00170713          	addi	a4,a4,1
   11db8:	00013697          	auipc	a3,0x13
   11dbc:	9ec68693          	addi	a3,a3,-1556 # 247a4 <zeroes.4505>
   11dc0:	00dda023          	sw	a3,0(s11)
   11dc4:	018da223          	sw	s8,4(s11)
   11dc8:	0ef12623          	sw	a5,236(sp)
   11dcc:	0ee12423          	sw	a4,232(sp)
   11dd0:	008d8d93          	addi	s11,s11,8
   11dd4:	fcebdae3          	bge	s7,a4,11da8 <_vfprintf_r+0x1808>
   11dd8:	0e410613          	addi	a2,sp,228
   11ddc:	000b0593          	mv	a1,s6
   11de0:	000a8513          	mv	a0,s5
   11de4:	539090ef          	jal	ra,1bb1c <__sprint_r>
   11de8:	00050463          	beqz	a0,11df0 <_vfprintf_r+0x1850>
   11dec:	a6dfe06f          	j	10858 <_vfprintf_r+0x2b8>
   11df0:	0ec12783          	lw	a5,236(sp)
   11df4:	0e812703          	lw	a4,232(sp)
   11df8:	10c10d93          	addi	s11,sp,268
   11dfc:	fadff06f          	j	11da8 <_vfprintf_r+0x1808>
   11e00:	000d0493          	mv	s1,s10
   11e04:	931fe06f          	j	10734 <_vfprintf_r+0x194>
   11e08:	00412583          	lw	a1,4(sp)
   11e0c:	0e410613          	addi	a2,sp,228
   11e10:	000a8513          	mv	a0,s5
   11e14:	509090ef          	jal	ra,1bb1c <__sprint_r>
   11e18:	00050463          	beqz	a0,11e20 <_vfprintf_r+0x1880>
   11e1c:	a3dfe06f          	j	10858 <_vfprintf_r+0x2b8>
   11e20:	0ec12c83          	lw	s9,236(sp)
   11e24:	0e812403          	lw	s0,232(sp)
   11e28:	10c10b93          	addi	s7,sp,268
   11e2c:	9c1ff06f          	j	117ec <_vfprintf_r+0x124c>
   11e30:	00412583          	lw	a1,4(sp)
   11e34:	0e410613          	addi	a2,sp,228
   11e38:	000a8513          	mv	a0,s5
   11e3c:	4e1090ef          	jal	ra,1bb1c <__sprint_r>
   11e40:	00050463          	beqz	a0,11e48 <_vfprintf_r+0x18a8>
   11e44:	a15fe06f          	j	10858 <_vfprintf_r+0x2b8>
   11e48:	0ec12c83          	lw	s9,236(sp)
   11e4c:	0e812403          	lw	s0,232(sp)
   11e50:	10c10b93          	addi	s7,sp,268
   11e54:	9c5ff06f          	j	11818 <_vfprintf_r+0x1278>
   11e58:	0e812703          	lw	a4,232(sp)
   11e5c:	00013617          	auipc	a2,0x13
   11e60:	99860613          	addi	a2,a2,-1640 # 247f4 <zeroes.4505+0x50>
   11e64:	00cda023          	sw	a2,0(s11)
   11e68:	00178793          	addi	a5,a5,1
   11e6c:	00100613          	li	a2,1
   11e70:	00170713          	addi	a4,a4,1
   11e74:	00cda223          	sw	a2,4(s11)
   11e78:	0ef12623          	sw	a5,236(sp)
   11e7c:	0ee12423          	sw	a4,232(sp)
   11e80:	00700613          	li	a2,7
   11e84:	008d8d93          	addi	s11,s11,8
   11e88:	58e64c63          	blt	a2,a4,12420 <_vfprintf_r+0x1e80>
   11e8c:	22069a63          	bnez	a3,120c0 <_vfprintf_r+0x1b20>
   11e90:	01812683          	lw	a3,24(sp)
   11e94:	0019f713          	andi	a4,s3,1
   11e98:	00d76733          	or	a4,a4,a3
   11e9c:	00071463          	bnez	a4,11ea4 <_vfprintf_r+0x1904>
   11ea0:	eadfe06f          	j	10d4c <_vfprintf_r+0x7ac>
   11ea4:	03012703          	lw	a4,48(sp)
   11ea8:	02812683          	lw	a3,40(sp)
   11eac:	008d8893          	addi	a7,s11,8
   11eb0:	00eda023          	sw	a4,0(s11)
   11eb4:	0e812703          	lw	a4,232(sp)
   11eb8:	00f687b3          	add	a5,a3,a5
   11ebc:	00dda223          	sw	a3,4(s11)
   11ec0:	00170713          	addi	a4,a4,1
   11ec4:	0ef12623          	sw	a5,236(sp)
   11ec8:	0ee12423          	sw	a4,232(sp)
   11ecc:	00700693          	li	a3,7
   11ed0:	62e6cc63          	blt	a3,a4,12508 <_vfprintf_r+0x1f68>
   11ed4:	01812683          	lw	a3,24(sp)
   11ed8:	00170713          	addi	a4,a4,1
   11edc:	01a8a023          	sw	s10,0(a7)
   11ee0:	00f687b3          	add	a5,a3,a5
   11ee4:	00d8a223          	sw	a3,4(a7)
   11ee8:	0ef12623          	sw	a5,236(sp)
   11eec:	0ee12423          	sw	a4,232(sp)
   11ef0:	00700693          	li	a3,7
   11ef4:	00888d93          	addi	s11,a7,8
   11ef8:	00e6c463          	blt	a3,a4,11f00 <_vfprintf_r+0x1960>
   11efc:	e51fe06f          	j	10d4c <_vfprintf_r+0x7ac>
   11f00:	f11fe06f          	j	10e10 <_vfprintf_r+0x870>
   11f04:	1b010d13          	addi	s10,sp,432
   11f08:	00000793          	li	a5,0
   11f0c:	400a7993          	andi	s3,s4,1024
   11f10:	01212823          	sw	s2,16(sp)
   11f14:	00812a23          	sw	s0,20(sp)
   11f18:	000d0913          	mv	s2,s10
   11f1c:	00078413          	mv	s0,a5
   11f20:	000a8d13          	mv	s10,s5
   11f24:	000a0a93          	mv	s5,s4
   11f28:	000b8a13          	mv	s4,s7
   11f2c:	000b0b93          	mv	s7,s6
   11f30:	00048b13          	mv	s6,s1
   11f34:	03c12483          	lw	s1,60(sp)
   11f38:	0240006f          	j	11f5c <_vfprintf_r+0x19bc>
   11f3c:	00a00613          	li	a2,10
   11f40:	00000693          	li	a3,0
   11f44:	000c8513          	mv	a0,s9
   11f48:	000a0593          	mv	a1,s4
   11f4c:	7d00d0ef          	jal	ra,1f71c <__udivdi3>
   11f50:	2e0a0ce3          	beqz	s4,12a48 <_vfprintf_r+0x24a8>
   11f54:	00050c93          	mv	s9,a0
   11f58:	00058a13          	mv	s4,a1
   11f5c:	00a00613          	li	a2,10
   11f60:	00000693          	li	a3,0
   11f64:	000c8513          	mv	a0,s9
   11f68:	000a0593          	mv	a1,s4
   11f6c:	5850d0ef          	jal	ra,1fcf0 <__umoddi3>
   11f70:	03050513          	addi	a0,a0,48
   11f74:	fea90fa3          	sb	a0,-1(s2)
   11f78:	00140413          	addi	s0,s0,1
   11f7c:	fff90913          	addi	s2,s2,-1
   11f80:	fa098ee3          	beqz	s3,11f3c <_vfprintf_r+0x199c>
   11f84:	0004c683          	lbu	a3,0(s1)
   11f88:	fad41ae3          	bne	s0,a3,11f3c <_vfprintf_r+0x199c>
   11f8c:	0ff00793          	li	a5,255
   11f90:	faf406e3          	beq	s0,a5,11f3c <_vfprintf_r+0x199c>
   11f94:	260a1ae3          	bnez	s4,12a08 <_vfprintf_r+0x2468>
   11f98:	00900793          	li	a5,9
   11f9c:	2797e6e3          	bltu	a5,s9,12a08 <_vfprintf_r+0x2468>
   11fa0:	000a8a13          	mv	s4,s5
   11fa4:	1b010793          	addi	a5,sp,432
   11fa8:	000d0a93          	mv	s5,s10
   11fac:	00090d13          	mv	s10,s2
   11fb0:	00812c23          	sw	s0,24(sp)
   11fb4:	02912e23          	sw	s1,60(sp)
   11fb8:	01412403          	lw	s0,20(sp)
   11fbc:	000b0493          	mv	s1,s6
   11fc0:	01012903          	lw	s2,16(sp)
   11fc4:	000b8b13          	mv	s6,s7
   11fc8:	000a0993          	mv	s3,s4
   11fcc:	41a78bb3          	sub	s7,a5,s10
   11fd0:	96dfe06f          	j	1093c <_vfprintf_r+0x39c>
   11fd4:	00412583          	lw	a1,4(sp)
   11fd8:	0e410613          	addi	a2,sp,228
   11fdc:	000a8513          	mv	a0,s5
   11fe0:	33d090ef          	jal	ra,1bb1c <__sprint_r>
   11fe4:	00050463          	beqz	a0,11fec <_vfprintf_r+0x1a4c>
   11fe8:	871fe06f          	j	10858 <_vfprintf_r+0x2b8>
   11fec:	10c10d93          	addi	s11,sp,268
   11ff0:	d2cff06f          	j	1151c <_vfprintf_r+0xf7c>
   11ff4:	00012697          	auipc	a3,0x12
   11ff8:	7b068693          	addi	a3,a3,1968 # 247a4 <zeroes.4505>
   11ffc:	00dda023          	sw	a3,0(s11)
   12000:	008da223          	sw	s0,4(s11)
   12004:	008787b3          	add	a5,a5,s0
   12008:	00170713          	addi	a4,a4,1
   1200c:	0ef12623          	sw	a5,236(sp)
   12010:	0ee12423          	sw	a4,232(sp)
   12014:	00700693          	li	a3,7
   12018:	00e6c463          	blt	a3,a4,12020 <_vfprintf_r+0x1a80>
   1201c:	d2dfe06f          	j	10d48 <_vfprintf_r+0x7a8>
   12020:	df1fe06f          	j	10e10 <_vfprintf_r+0x870>
   12024:	0f012783          	lw	a5,240(sp)
   12028:	0a010593          	addi	a1,sp,160
   1202c:	0b010513          	addi	a0,sp,176
   12030:	0af12823          	sw	a5,176(sp)
   12034:	0f412783          	lw	a5,244(sp)
   12038:	0a012023          	sw	zero,160(sp)
   1203c:	0a012223          	sw	zero,164(sp)
   12040:	0af12a23          	sw	a5,180(sp)
   12044:	0f812783          	lw	a5,248(sp)
   12048:	0a012423          	sw	zero,168(sp)
   1204c:	0a012623          	sw	zero,172(sp)
   12050:	0af12c23          	sw	a5,184(sp)
   12054:	0fc12783          	lw	a5,252(sp)
   12058:	0af12e23          	sw	a5,188(sp)
   1205c:	1d40f0ef          	jal	ra,21230 <__letf2>
   12060:	2c0546e3          	bltz	a0,12b2c <_vfprintf_r+0x258c>
   12064:	0c714783          	lbu	a5,199(sp)
   12068:	04700713          	li	a4,71
   1206c:	00012d17          	auipc	s10,0x12
   12070:	748d0d13          	addi	s10,s10,1864 # 247b4 <zeroes.4505+0x10>
   12074:	3c874a63          	blt	a4,s0,12448 <_vfprintf_r+0x1ea8>
   12078:	00012823          	sw	zero,16(sp)
   1207c:	02012223          	sw	zero,36(sp)
   12080:	02012023          	sw	zero,32(sp)
   12084:	00012a23          	sw	zero,20(sp)
   12088:	f7f9f993          	andi	s3,s3,-129
   1208c:	00300a13          	li	s4,3
   12090:	00300b93          	li	s7,3
   12094:	00000b13          	li	s6,0
   12098:	00078463          	beqz	a5,120a0 <_vfprintf_r+0x1b00>
   1209c:	8c5fe06f          	j	10960 <_vfprintf_r+0x3c0>
   120a0:	be1fe06f          	j	10c80 <_vfprintf_r+0x6e0>
   120a4:	00c12783          	lw	a5,12(sp)
   120a8:	00090d13          	mv	s10,s2
   120ac:	0007a783          	lw	a5,0(a5)
   120b0:	00e12623          	sw	a4,12(sp)
   120b4:	00812703          	lw	a4,8(sp)
   120b8:	00e7a023          	sw	a4,0(a5)
   120bc:	9e5fe06f          	j	10aa0 <_vfprintf_r+0x500>
   120c0:	03012703          	lw	a4,48(sp)
   120c4:	02812603          	lw	a2,40(sp)
   120c8:	008d8893          	addi	a7,s11,8
   120cc:	00eda023          	sw	a4,0(s11)
   120d0:	0e812703          	lw	a4,232(sp)
   120d4:	00f607b3          	add	a5,a2,a5
   120d8:	00cda223          	sw	a2,4(s11)
   120dc:	00170713          	addi	a4,a4,1
   120e0:	0ef12623          	sw	a5,236(sp)
   120e4:	0ee12423          	sw	a4,232(sp)
   120e8:	00700613          	li	a2,7
   120ec:	40e64e63          	blt	a2,a4,12508 <_vfprintf_r+0x1f68>
   120f0:	de06d2e3          	bgez	a3,11ed4 <_vfprintf_r+0x1934>
   120f4:	ff000613          	li	a2,-16
   120f8:	40d00433          	neg	s0,a3
   120fc:	32c6d2e3          	bge	a3,a2,12c20 <_vfprintf_r+0x2680>
   12100:	00700b93          	li	s7,7
   12104:	00412b03          	lw	s6,4(sp)
   12108:	00c0006f          	j	12114 <_vfprintf_r+0x1b74>
   1210c:	ff040413          	addi	s0,s0,-16
   12110:	308c58e3          	bge	s8,s0,12c20 <_vfprintf_r+0x2680>
   12114:	01078793          	addi	a5,a5,16
   12118:	00170713          	addi	a4,a4,1
   1211c:	00012697          	auipc	a3,0x12
   12120:	68868693          	addi	a3,a3,1672 # 247a4 <zeroes.4505>
   12124:	00d8a023          	sw	a3,0(a7)
   12128:	0188a223          	sw	s8,4(a7)
   1212c:	0ef12623          	sw	a5,236(sp)
   12130:	0ee12423          	sw	a4,232(sp)
   12134:	00888893          	addi	a7,a7,8
   12138:	fcebdae3          	bge	s7,a4,1210c <_vfprintf_r+0x1b6c>
   1213c:	0e410613          	addi	a2,sp,228
   12140:	000b0593          	mv	a1,s6
   12144:	000a8513          	mv	a0,s5
   12148:	1d5090ef          	jal	ra,1bb1c <__sprint_r>
   1214c:	00050463          	beqz	a0,12154 <_vfprintf_r+0x1bb4>
   12150:	f08fe06f          	j	10858 <_vfprintf_r+0x2b8>
   12154:	0ec12783          	lw	a5,236(sp)
   12158:	0e812703          	lw	a4,232(sp)
   1215c:	10c10893          	addi	a7,sp,268
   12160:	fadff06f          	j	1210c <_vfprintf_r+0x1b6c>
   12164:	000d0513          	mv	a0,s10
   12168:	4d5060ef          	jal	ra,18e3c <strlen>
   1216c:	00050b93          	mv	s7,a0
   12170:	a75fe06f          	j	10be4 <_vfprintf_r+0x644>
   12174:	2009f793          	andi	a5,s3,512
   12178:	36078063          	beqz	a5,124d8 <_vfprintf_r+0x1f38>
   1217c:	00c12783          	lw	a5,12(sp)
   12180:	00098a13          	mv	s4,s3
   12184:	00e12623          	sw	a4,12(sp)
   12188:	00078c83          	lb	s9,0(a5)
   1218c:	41fcdb93          	srai	s7,s9,0x1f
   12190:	000b8713          	mv	a4,s7
   12194:	9a1fe06f          	j	10b34 <_vfprintf_r+0x594>
   12198:	2009f793          	andi	a5,s3,512
   1219c:	32078863          	beqz	a5,124cc <_vfprintf_r+0x1f2c>
   121a0:	0ffcfc93          	andi	s9,s9,255
   121a4:	00000b93          	li	s7,0
   121a8:	00e12623          	sw	a4,12(sp)
   121ac:	a5cff06f          	j	11408 <_vfprintf_r+0xe68>
   121b0:	2009f793          	andi	a5,s3,512
   121b4:	30078263          	beqz	a5,124b8 <_vfprintf_r+0x1f18>
   121b8:	00e12623          	sw	a4,12(sp)
   121bc:	0ffcfc93          	andi	s9,s9,255
   121c0:	00000b93          	li	s7,0
   121c4:	00098a13          	mv	s4,s3
   121c8:	00100713          	li	a4,1
   121cc:	f40fe06f          	j	1090c <_vfprintf_r+0x36c>
   121d0:	0fc12783          	lw	a5,252(sp)
   121d4:	3207d663          	bgez	a5,12500 <_vfprintf_r+0x1f60>
   121d8:	02d00793          	li	a5,45
   121dc:	0cf103a3          	sb	a5,199(sp)
   121e0:	04700713          	li	a4,71
   121e4:	00012d17          	auipc	s10,0x12
   121e8:	5d8d0d13          	addi	s10,s10,1496 # 247bc <zeroes.4505+0x18>
   121ec:	e88756e3          	bge	a4,s0,12078 <_vfprintf_r+0x1ad8>
   121f0:	00012d17          	auipc	s10,0x12
   121f4:	5d0d0d13          	addi	s10,s10,1488 # 247c0 <zeroes.4505+0x1c>
   121f8:	e81ff06f          	j	12078 <_vfprintf_r+0x1ad8>
   121fc:	00012697          	auipc	a3,0x12
   12200:	5a868693          	addi	a3,a3,1448 # 247a4 <zeroes.4505>
   12204:	008787b3          	add	a5,a5,s0
   12208:	00170713          	addi	a4,a4,1
   1220c:	00dda023          	sw	a3,0(s11)
   12210:	008da223          	sw	s0,4(s11)
   12214:	0ef12623          	sw	a5,236(sp)
   12218:	0ee12423          	sw	a4,232(sp)
   1221c:	00700693          	li	a3,7
   12220:	008d8d93          	addi	s11,s11,8
   12224:	84e6d8e3          	bge	a3,a4,11a74 <_vfprintf_r+0x14d4>
   12228:	00412583          	lw	a1,4(sp)
   1222c:	0e410613          	addi	a2,sp,228
   12230:	000a8513          	mv	a0,s5
   12234:	0e9090ef          	jal	ra,1bb1c <__sprint_r>
   12238:	00050463          	beqz	a0,12240 <_vfprintf_r+0x1ca0>
   1223c:	e1cfe06f          	j	10858 <_vfprintf_r+0x2b8>
   12240:	0ec12783          	lw	a5,236(sp)
   12244:	10c10d93          	addi	s11,sp,268
   12248:	82dff06f          	j	11a74 <_vfprintf_r+0x14d4>
   1224c:	01812703          	lw	a4,24(sp)
   12250:	02012b83          	lw	s7,32(sp)
   12254:	01212a23          	sw	s2,20(sp)
   12258:	00ed0433          	add	s0,s10,a4
   1225c:	03312a23          	sw	s3,52(sp)
   12260:	04912423          	sw	s1,72(sp)
   12264:	02412903          	lw	s2,36(sp)
   12268:	03412023          	sw	s4,32(sp)
   1226c:	03a12223          	sw	s10,36(sp)
   12270:	00700c93          	li	s9,7
   12274:	00040d13          	mv	s10,s0
   12278:	04012983          	lw	s3,64(sp)
   1227c:	03c12483          	lw	s1,60(sp)
   12280:	000d8693          	mv	a3,s11
   12284:	00412a03          	lw	s4,4(sp)
   12288:	04412403          	lw	s0,68(sp)
   1228c:	080b8863          	beqz	s7,1231c <_vfprintf_r+0x1d7c>
   12290:	08091863          	bnez	s2,12320 <_vfprintf_r+0x1d80>
   12294:	fff48493          	addi	s1,s1,-1
   12298:	fffb8b93          	addi	s7,s7,-1
   1229c:	0e812703          	lw	a4,232(sp)
   122a0:	013787b3          	add	a5,a5,s3
   122a4:	0086a023          	sw	s0,0(a3)
   122a8:	00170713          	addi	a4,a4,1
   122ac:	0136a223          	sw	s3,4(a3)
   122b0:	0ef12623          	sw	a5,236(sp)
   122b4:	0ee12423          	sw	a4,232(sp)
   122b8:	00868693          	addi	a3,a3,8
   122bc:	10ecc463          	blt	s9,a4,123c4 <_vfprintf_r+0x1e24>
   122c0:	0004c603          	lbu	a2,0(s1)
   122c4:	416d05b3          	sub	a1,s10,s6
   122c8:	00060d93          	mv	s11,a2
   122cc:	00c5d463          	bge	a1,a2,122d4 <_vfprintf_r+0x1d34>
   122d0:	00058d93          	mv	s11,a1
   122d4:	03b05663          	blez	s11,12300 <_vfprintf_r+0x1d60>
   122d8:	0e812603          	lw	a2,232(sp)
   122dc:	01b787b3          	add	a5,a5,s11
   122e0:	0166a023          	sw	s6,0(a3)
   122e4:	00160613          	addi	a2,a2,1
   122e8:	01b6a223          	sw	s11,4(a3)
   122ec:	0ef12623          	sw	a5,236(sp)
   122f0:	0ec12423          	sw	a2,232(sp)
   122f4:	0eccca63          	blt	s9,a2,123e8 <_vfprintf_r+0x1e48>
   122f8:	0004c603          	lbu	a2,0(s1)
   122fc:	00868693          	addi	a3,a3,8
   12300:	fffdc593          	not	a1,s11
   12304:	41f5d593          	srai	a1,a1,0x1f
   12308:	00bdf733          	and	a4,s11,a1
   1230c:	40e60db3          	sub	s11,a2,a4
   12310:	01b04c63          	bgtz	s11,12328 <_vfprintf_r+0x1d88>
   12314:	00cb0b33          	add	s6,s6,a2
   12318:	f60b9ce3          	bnez	s7,12290 <_vfprintf_r+0x1cf0>
   1231c:	5e090663          	beqz	s2,12908 <_vfprintf_r+0x2368>
   12320:	fff90913          	addi	s2,s2,-1
   12324:	f79ff06f          	j	1229c <_vfprintf_r+0x1cfc>
   12328:	0e812603          	lw	a2,232(sp)
   1232c:	01bc4863          	blt	s8,s11,1233c <_vfprintf_r+0x1d9c>
   12330:	0600006f          	j	12390 <_vfprintf_r+0x1df0>
   12334:	ff0d8d93          	addi	s11,s11,-16
   12338:	05bc5c63          	bge	s8,s11,12390 <_vfprintf_r+0x1df0>
   1233c:	01078793          	addi	a5,a5,16
   12340:	00160613          	addi	a2,a2,1
   12344:	00012717          	auipc	a4,0x12
   12348:	46070713          	addi	a4,a4,1120 # 247a4 <zeroes.4505>
   1234c:	00e6a023          	sw	a4,0(a3)
   12350:	0186a223          	sw	s8,4(a3)
   12354:	0ef12623          	sw	a5,236(sp)
   12358:	0ec12423          	sw	a2,232(sp)
   1235c:	00868693          	addi	a3,a3,8
   12360:	fcccdae3          	bge	s9,a2,12334 <_vfprintf_r+0x1d94>
   12364:	0e410613          	addi	a2,sp,228
   12368:	000a0593          	mv	a1,s4
   1236c:	000a8513          	mv	a0,s5
   12370:	7ac090ef          	jal	ra,1bb1c <__sprint_r>
   12374:	00050463          	beqz	a0,1237c <_vfprintf_r+0x1ddc>
   12378:	ce0fe06f          	j	10858 <_vfprintf_r+0x2b8>
   1237c:	ff0d8d93          	addi	s11,s11,-16
   12380:	0ec12783          	lw	a5,236(sp)
   12384:	0e812603          	lw	a2,232(sp)
   12388:	10c10693          	addi	a3,sp,268
   1238c:	fbbc48e3          	blt	s8,s11,1233c <_vfprintf_r+0x1d9c>
   12390:	01b787b3          	add	a5,a5,s11
   12394:	00160613          	addi	a2,a2,1
   12398:	00012717          	auipc	a4,0x12
   1239c:	40c70713          	addi	a4,a4,1036 # 247a4 <zeroes.4505>
   123a0:	00e6a023          	sw	a4,0(a3)
   123a4:	01b6a223          	sw	s11,4(a3)
   123a8:	0ef12623          	sw	a5,236(sp)
   123ac:	0ec12423          	sw	a2,232(sp)
   123b0:	62ccc663          	blt	s9,a2,129dc <_vfprintf_r+0x243c>
   123b4:	0004c603          	lbu	a2,0(s1)
   123b8:	00868693          	addi	a3,a3,8
   123bc:	00cb0b33          	add	s6,s6,a2
   123c0:	f59ff06f          	j	12318 <_vfprintf_r+0x1d78>
   123c4:	0e410613          	addi	a2,sp,228
   123c8:	000a0593          	mv	a1,s4
   123cc:	000a8513          	mv	a0,s5
   123d0:	74c090ef          	jal	ra,1bb1c <__sprint_r>
   123d4:	00050463          	beqz	a0,123dc <_vfprintf_r+0x1e3c>
   123d8:	c80fe06f          	j	10858 <_vfprintf_r+0x2b8>
   123dc:	0ec12783          	lw	a5,236(sp)
   123e0:	10c10693          	addi	a3,sp,268
   123e4:	eddff06f          	j	122c0 <_vfprintf_r+0x1d20>
   123e8:	0e410613          	addi	a2,sp,228
   123ec:	000a0593          	mv	a1,s4
   123f0:	000a8513          	mv	a0,s5
   123f4:	728090ef          	jal	ra,1bb1c <__sprint_r>
   123f8:	00050463          	beqz	a0,12400 <_vfprintf_r+0x1e60>
   123fc:	c5cfe06f          	j	10858 <_vfprintf_r+0x2b8>
   12400:	0004c603          	lbu	a2,0(s1)
   12404:	0ec12783          	lw	a5,236(sp)
   12408:	10c10693          	addi	a3,sp,268
   1240c:	ef5ff06f          	j	12300 <_vfprintf_r+0x1d60>
   12410:	001b0b13          	addi	s6,s6,1
   12414:	00860d93          	addi	s11,a2,8
   12418:	00060b93          	mv	s7,a2
   1241c:	9d1fe06f          	j	10dec <_vfprintf_r+0x84c>
   12420:	00412583          	lw	a1,4(sp)
   12424:	0e410613          	addi	a2,sp,228
   12428:	000a8513          	mv	a0,s5
   1242c:	6f0090ef          	jal	ra,1bb1c <__sprint_r>
   12430:	00050463          	beqz	a0,12438 <_vfprintf_r+0x1e98>
   12434:	c24fe06f          	j	10858 <_vfprintf_r+0x2b8>
   12438:	0cc12683          	lw	a3,204(sp)
   1243c:	0ec12783          	lw	a5,236(sp)
   12440:	10c10d93          	addi	s11,sp,268
   12444:	a49ff06f          	j	11e8c <_vfprintf_r+0x18ec>
   12448:	00012d17          	auipc	s10,0x12
   1244c:	370d0d13          	addi	s10,s10,880 # 247b8 <zeroes.4505+0x14>
   12450:	c29ff06f          	j	12078 <_vfprintf_r+0x1ad8>
   12454:	00412583          	lw	a1,4(sp)
   12458:	0e410613          	addi	a2,sp,228
   1245c:	000a8513          	mv	a0,s5
   12460:	6bc090ef          	jal	ra,1bb1c <__sprint_r>
   12464:	00050463          	beqz	a0,1246c <_vfprintf_r+0x1ecc>
   12468:	bf0fe06f          	j	10858 <_vfprintf_r+0x2b8>
   1246c:	0ec12783          	lw	a5,236(sp)
   12470:	10c10d93          	addi	s11,sp,268
   12474:	de8ff06f          	j	11a5c <_vfprintf_r+0x14bc>
   12478:	00600b93          	li	s7,6
   1247c:	905ff06f          	j	11d80 <_vfprintf_r+0x17e0>
   12480:	01812703          	lw	a4,24(sp)
   12484:	00ed0833          	add	a6,s10,a4
   12488:	40870433          	sub	s0,a4,s0
   1248c:	41680bb3          	sub	s7,a6,s6
   12490:	e9745463          	bge	s0,s7,11b18 <_vfprintf_r+0x1578>
   12494:	00040b93          	mv	s7,s0
   12498:	e80ff06f          	j	11b18 <_vfprintf_r+0x1578>
   1249c:	00c12783          	lw	a5,12(sp)
   124a0:	00e12623          	sw	a4,12(sp)
   124a4:	00812703          	lw	a4,8(sp)
   124a8:	0007a783          	lw	a5,0(a5)
   124ac:	00090d13          	mv	s10,s2
   124b0:	00e79023          	sh	a4,0(a5)
   124b4:	decfe06f          	j	10aa0 <_vfprintf_r+0x500>
   124b8:	00e12623          	sw	a4,12(sp)
   124bc:	00000b93          	li	s7,0
   124c0:	00098a13          	mv	s4,s3
   124c4:	00100713          	li	a4,1
   124c8:	c44fe06f          	j	1090c <_vfprintf_r+0x36c>
   124cc:	00000b93          	li	s7,0
   124d0:	00e12623          	sw	a4,12(sp)
   124d4:	f35fe06f          	j	11408 <_vfprintf_r+0xe68>
   124d8:	00c12783          	lw	a5,12(sp)
   124dc:	00098a13          	mv	s4,s3
   124e0:	00e12623          	sw	a4,12(sp)
   124e4:	0007ac83          	lw	s9,0(a5)
   124e8:	41fcdb93          	srai	s7,s9,0x1f
   124ec:	000b8713          	mv	a4,s7
   124f0:	e44fe06f          	j	10b34 <_vfprintf_r+0x594>
   124f4:	0ffcfc93          	andi	s9,s9,255
   124f8:	00000b93          	li	s7,0
   124fc:	bf4fe06f          	j	108f0 <_vfprintf_r+0x350>
   12500:	0c714783          	lbu	a5,199(sp)
   12504:	cddff06f          	j	121e0 <_vfprintf_r+0x1c40>
   12508:	00412583          	lw	a1,4(sp)
   1250c:	0e410613          	addi	a2,sp,228
   12510:	000a8513          	mv	a0,s5
   12514:	608090ef          	jal	ra,1bb1c <__sprint_r>
   12518:	00050463          	beqz	a0,12520 <_vfprintf_r+0x1f80>
   1251c:	b3cfe06f          	j	10858 <_vfprintf_r+0x2b8>
   12520:	0cc12683          	lw	a3,204(sp)
   12524:	0ec12783          	lw	a5,236(sp)
   12528:	0e812703          	lw	a4,232(sp)
   1252c:	10c10893          	addi	a7,sp,268
   12530:	9a06d2e3          	bgez	a3,11ed4 <_vfprintf_r+0x1934>
   12534:	bc1ff06f          	j	120f4 <_vfprintf_r+0x1b54>
   12538:	03000793          	li	a5,48
   1253c:	0cf10423          	sb	a5,200(sp)
   12540:	05800793          	li	a5,88
   12544:	0029e713          	ori	a4,s3,2
   12548:	0cf104a3          	sb	a5,201(sp)
   1254c:	04e12a23          	sw	a4,84(sp)
   12550:	06300793          	li	a5,99
   12554:	00012823          	sw	zero,16(sp)
   12558:	14c10d13          	addi	s10,sp,332
   1255c:	7b67c263          	blt	a5,s6,12d00 <_vfprintf_r+0x2760>
   12560:	0fc12e03          	lw	t3,252(sp)
   12564:	fdf47793          	andi	a5,s0,-33
   12568:	04f12423          	sw	a5,72(sp)
   1256c:	04012e23          	sw	zero,92(sp)
   12570:	1029e993          	ori	s3,s3,258
   12574:	0f012e83          	lw	t4,240(sp)
   12578:	0f412f03          	lw	t5,244(sp)
   1257c:	0f812f83          	lw	t6,248(sp)
   12580:	440e4463          	bltz	t3,129c8 <_vfprintf_r+0x2428>
   12584:	06100793          	li	a5,97
   12588:	0cf40ce3          	beq	s0,a5,12e60 <_vfprintf_r+0x28c0>
   1258c:	04100793          	li	a5,65
   12590:	00f40463          	beq	s0,a5,12598 <_vfprintf_r+0x1ff8>
   12594:	a19fe06f          	j	10fac <_vfprintf_r+0xa0c>
   12598:	0b010b93          	addi	s7,sp,176
   1259c:	000b8513          	mv	a0,s7
   125a0:	0bd12823          	sw	t4,176(sp)
   125a4:	0be12a23          	sw	t5,180(sp)
   125a8:	0bf12c23          	sw	t6,184(sp)
   125ac:	0bc12e23          	sw	t3,188(sp)
   125b0:	3b1110ef          	jal	ra,24160 <__trunctfdf2>
   125b4:	0cc10613          	addi	a2,sp,204
   125b8:	364060ef          	jal	ra,1891c <frexp>
   125bc:	00058613          	mv	a2,a1
   125c0:	00050593          	mv	a1,a0
   125c4:	000b8513          	mv	a0,s7
   125c8:	191110ef          	jal	ra,23f58 <__extenddftf2>
   125cc:	09010793          	addi	a5,sp,144
   125d0:	00078593          	mv	a1,a5
   125d4:	00f12c23          	sw	a5,24(sp)
   125d8:	0b012783          	lw	a5,176(sp)
   125dc:	0a010a13          	addi	s4,sp,160
   125e0:	08010613          	addi	a2,sp,128
   125e4:	08f12823          	sw	a5,144(sp)
   125e8:	0b412783          	lw	a5,180(sp)
   125ec:	000a0513          	mv	a0,s4
   125f0:	04c12623          	sw	a2,76(sp)
   125f4:	08f12a23          	sw	a5,148(sp)
   125f8:	0b812783          	lw	a5,184(sp)
   125fc:	05412c23          	sw	s4,88(sp)
   12600:	08012023          	sw	zero,128(sp)
   12604:	08f12c23          	sw	a5,152(sp)
   12608:	0bc12783          	lw	a5,188(sp)
   1260c:	08012223          	sw	zero,132(sp)
   12610:	08012423          	sw	zero,136(sp)
   12614:	08f12e23          	sw	a5,156(sp)
   12618:	3ffc07b7          	lui	a5,0x3ffc0
   1261c:	08f12623          	sw	a5,140(sp)
   12620:	5550e0ef          	jal	ra,21374 <__multf3>
   12624:	0a012683          	lw	a3,160(sp)
   12628:	0a412e03          	lw	t3,164(sp)
   1262c:	0a812e83          	lw	t4,168(sp)
   12630:	0ac12f03          	lw	t5,172(sp)
   12634:	000a0593          	mv	a1,s4
   12638:	000b8513          	mv	a0,s7
   1263c:	0ad12823          	sw	a3,176(sp)
   12640:	02d12a23          	sw	a3,52(sp)
   12644:	0bc12a23          	sw	t3,180(sp)
   12648:	03c12223          	sw	t3,36(sp)
   1264c:	0bd12c23          	sw	t4,184(sp)
   12650:	03d12023          	sw	t4,32(sp)
   12654:	0be12e23          	sw	t5,188(sp)
   12658:	01e12a23          	sw	t5,20(sp)
   1265c:	0a012023          	sw	zero,160(sp)
   12660:	0a012223          	sw	zero,164(sp)
   12664:	0a012423          	sw	zero,168(sp)
   12668:	0a012623          	sw	zero,172(sp)
   1266c:	1b50e0ef          	jal	ra,21020 <__eqtf2>
   12670:	01412f03          	lw	t5,20(sp)
   12674:	02012e83          	lw	t4,32(sp)
   12678:	02412e03          	lw	t3,36(sp)
   1267c:	03412683          	lw	a3,52(sp)
   12680:	00051663          	bnez	a0,1268c <_vfprintf_r+0x20ec>
   12684:	00100793          	li	a5,1
   12688:	0cf12623          	sw	a5,204(sp)
   1268c:	00012797          	auipc	a5,0x12
   12690:	14c78793          	addi	a5,a5,332 # 247d8 <zeroes.4505+0x34>
   12694:	02f12a23          	sw	a5,52(sp)
   12698:	fffb0a13          	addi	s4,s6,-1
   1269c:	01a12a23          	sw	s10,20(sp)
   126a0:	000a0c93          	mv	s9,s4
   126a4:	07212023          	sw	s2,96(sp)
   126a8:	06912623          	sw	s1,108(sp)
   126ac:	07b12a23          	sw	s11,116(sp)
   126b0:	07512c23          	sw	s5,120(sp)
   126b4:	07a12e23          	sw	s10,124(sp)
   126b8:	06812223          	sw	s0,100(sp)
   126bc:	07312423          	sw	s3,104(sp)
   126c0:	07612823          	sw	s6,112(sp)
   126c4:	00068d13          	mv	s10,a3
   126c8:	000e0d93          	mv	s11,t3
   126cc:	000e8a13          	mv	s4,t4
   126d0:	000f0a93          	mv	s5,t5
   126d4:	01812903          	lw	s2,24(sp)
   126d8:	05812483          	lw	s1,88(sp)
   126dc:	0540006f          	j	12730 <_vfprintf_r+0x2190>
   126e0:	00048593          	mv	a1,s1
   126e4:	000b8513          	mv	a0,s7
   126e8:	02c12223          	sw	a2,36(sp)
   126ec:	03f12023          	sw	t6,32(sp)
   126f0:	00512c23          	sw	t0,24(sp)
   126f4:	0a512a23          	sw	t0,180(sp)
   126f8:	0bf12c23          	sw	t6,184(sp)
   126fc:	0ac12e23          	sw	a2,188(sp)
   12700:	0b312823          	sw	s3,176(sp)
   12704:	0a012023          	sw	zero,160(sp)
   12708:	0a012223          	sw	zero,164(sp)
   1270c:	0a012423          	sw	zero,168(sp)
   12710:	0a012623          	sw	zero,172(sp)
   12714:	10d0e0ef          	jal	ra,21020 <__eqtf2>
   12718:	fffc8c93          	addi	s9,s9,-1
   1271c:	01812283          	lw	t0,24(sp)
   12720:	02012f83          	lw	t6,32(sp)
   12724:	02412603          	lw	a2,36(sp)
   12728:	0e050463          	beqz	a0,12810 <_vfprintf_r+0x2270>
   1272c:	01612a23          	sw	s6,20(sp)
   12730:	400307b7          	lui	a5,0x40030
   12734:	00090613          	mv	a2,s2
   12738:	00048593          	mv	a1,s1
   1273c:	000b8513          	mv	a0,s7
   12740:	08f12e23          	sw	a5,156(sp)
   12744:	0ba12023          	sw	s10,160(sp)
   12748:	0bb12223          	sw	s11,164(sp)
   1274c:	0b412423          	sw	s4,168(sp)
   12750:	0b512623          	sw	s5,172(sp)
   12754:	08012823          	sw	zero,144(sp)
   12758:	08012a23          	sw	zero,148(sp)
   1275c:	08012c23          	sw	zero,152(sp)
   12760:	4150e0ef          	jal	ra,21374 <__multf3>
   12764:	000b8513          	mv	a0,s7
   12768:	518110ef          	jal	ra,23c80 <__fixtfsi>
   1276c:	00050593          	mv	a1,a0
   12770:	00050413          	mv	s0,a0
   12774:	000b8513          	mv	a0,s7
   12778:	0b012b03          	lw	s6,176(sp)
   1277c:	0b412a03          	lw	s4,180(sp)
   12780:	0b812983          	lw	s3,184(sp)
   12784:	0bc12a83          	lw	s5,188(sp)
   12788:	648110ef          	jal	ra,23dd0 <__floatsitf>
   1278c:	0b012703          	lw	a4,176(sp)
   12790:	04c12603          	lw	a2,76(sp)
   12794:	00090593          	mv	a1,s2
   12798:	08e12023          	sw	a4,128(sp)
   1279c:	0b412703          	lw	a4,180(sp)
   127a0:	00048513          	mv	a0,s1
   127a4:	09612823          	sw	s6,144(sp)
   127a8:	08e12223          	sw	a4,132(sp)
   127ac:	0b812703          	lw	a4,184(sp)
   127b0:	09412a23          	sw	s4,148(sp)
   127b4:	09312c23          	sw	s3,152(sp)
   127b8:	08e12423          	sw	a4,136(sp)
   127bc:	0bc12703          	lw	a4,188(sp)
   127c0:	09512e23          	sw	s5,156(sp)
   127c4:	08e12623          	sw	a4,140(sp)
   127c8:	7190f0ef          	jal	ra,226e0 <__subtf3>
   127cc:	03412783          	lw	a5,52(sp)
   127d0:	0a012983          	lw	s3,160(sp)
   127d4:	0a412283          	lw	t0,164(sp)
   127d8:	00878733          	add	a4,a5,s0
   127dc:	01412783          	lw	a5,20(sp)
   127e0:	00074683          	lbu	a3,0(a4)
   127e4:	0a812f83          	lw	t6,168(sp)
   127e8:	0ac12603          	lw	a2,172(sp)
   127ec:	00178b13          	addi	s6,a5,1 # 40030001 <__global_pointer$+0x40008a91>
   127f0:	fedb0fa3          	sb	a3,-1(s6)
   127f4:	05912823          	sw	s9,80(sp)
   127f8:	fff00793          	li	a5,-1
   127fc:	00098d13          	mv	s10,s3
   12800:	00028d93          	mv	s11,t0
   12804:	000f8a13          	mv	s4,t6
   12808:	00060a93          	mv	s5,a2
   1280c:	ecfc9ae3          	bne	s9,a5,126e0 <_vfprintf_r+0x2140>
   12810:	05812a03          	lw	s4,88(sp)
   12814:	00098393          	mv	t2,s3
   12818:	3ffe0737          	lui	a4,0x3ffe0
   1281c:	000a0593          	mv	a1,s4
   12820:	000b8513          	mv	a0,s7
   12824:	06012903          	lw	s2,96(sp)
   12828:	00812c23          	sw	s0,24(sp)
   1282c:	000b0c93          	mv	s9,s6
   12830:	06c12483          	lw	s1,108(sp)
   12834:	07412d83          	lw	s11,116(sp)
   12838:	06412403          	lw	s0,100(sp)
   1283c:	07012b03          	lw	s6,112(sp)
   12840:	07812a83          	lw	s5,120(sp)
   12844:	07c12d03          	lw	s10,124(sp)
   12848:	06812983          	lw	s3,104(sp)
   1284c:	0a712823          	sw	t2,176(sp)
   12850:	06712023          	sw	t2,96(sp)
   12854:	0a512a23          	sw	t0,180(sp)
   12858:	04512623          	sw	t0,76(sp)
   1285c:	0bf12c23          	sw	t6,184(sp)
   12860:	03f12223          	sw	t6,36(sp)
   12864:	0ac12e23          	sw	a2,188(sp)
   12868:	02c12023          	sw	a2,32(sp)
   1286c:	0a012023          	sw	zero,160(sp)
   12870:	0a012223          	sw	zero,164(sp)
   12874:	0a012423          	sw	zero,168(sp)
   12878:	0ae12623          	sw	a4,172(sp)
   1287c:	0710e0ef          	jal	ra,210ec <__getf2>
   12880:	48a04e63          	bgtz	a0,12d1c <_vfprintf_r+0x277c>
   12884:	06012383          	lw	t2,96(sp)
   12888:	04c12283          	lw	t0,76(sp)
   1288c:	02412f83          	lw	t6,36(sp)
   12890:	02012603          	lw	a2,32(sp)
   12894:	3ffe0737          	lui	a4,0x3ffe0
   12898:	000a0593          	mv	a1,s4
   1289c:	000b8513          	mv	a0,s7
   128a0:	0a712823          	sw	t2,176(sp)
   128a4:	0a512a23          	sw	t0,180(sp)
   128a8:	0bf12c23          	sw	t6,184(sp)
   128ac:	0ac12e23          	sw	a2,188(sp)
   128b0:	0a012023          	sw	zero,160(sp)
   128b4:	0a012223          	sw	zero,164(sp)
   128b8:	0a012423          	sw	zero,168(sp)
   128bc:	0ae12623          	sw	a4,172(sp)
   128c0:	7600e0ef          	jal	ra,21020 <__eqtf2>
   128c4:	00051863          	bnez	a0,128d4 <_vfprintf_r+0x2334>
   128c8:	01812783          	lw	a5,24(sp)
   128cc:	0017fa13          	andi	s4,a5,1
   128d0:	440a1663          	bnez	s4,12d1c <_vfprintf_r+0x277c>
   128d4:	05012783          	lw	a5,80(sp)
   128d8:	03000693          	li	a3,48
   128dc:	00178713          	addi	a4,a5,1
   128e0:	00ec8733          	add	a4,s9,a4
   128e4:	0007c863          	bltz	a5,128f4 <_vfprintf_r+0x2354>
   128e8:	001c8c93          	addi	s9,s9,1
   128ec:	fedc8fa3          	sb	a3,-1(s9)
   128f0:	ff971ce3          	bne	a4,s9,128e8 <_vfprintf_r+0x2348>
   128f4:	41ac87b3          	sub	a5,s9,s10
   128f8:	00f12c23          	sw	a5,24(sp)
   128fc:	f50fe06f          	j	1104c <_vfprintf_r+0xaac>
   12900:	00098a13          	mv	s4,s3
   12904:	b21fe06f          	j	11424 <_vfprintf_r+0xe84>
   12908:	02412d03          	lw	s10,36(sp)
   1290c:	01812703          	lw	a4,24(sp)
   12910:	02912e23          	sw	s1,60(sp)
   12914:	01412903          	lw	s2,20(sp)
   12918:	00ed0733          	add	a4,s10,a4
   1291c:	03412983          	lw	s3,52(sp)
   12920:	04812483          	lw	s1,72(sp)
   12924:	02012a03          	lw	s4,32(sp)
   12928:	00068d93          	mv	s11,a3
   1292c:	95677c63          	bgeu	a4,s6,11a84 <_vfprintf_r+0x14e4>
   12930:	00070b13          	mv	s6,a4
   12934:	950ff06f          	j	11a84 <_vfprintf_r+0x14e4>
   12938:	01412703          	lw	a4,20(sp)
   1293c:	ffd00793          	li	a5,-3
   12940:	00f74463          	blt	a4,a5,12948 <_vfprintf_r+0x23a8>
   12944:	00eb5a63          	bge	s6,a4,12958 <_vfprintf_r+0x23b8>
   12948:	ffe40413          	addi	s0,s0,-2
   1294c:	fdf47793          	andi	a5,s0,-33
   12950:	04f12423          	sw	a5,72(sp)
   12954:	f20fe06f          	j	11074 <_vfprintf_r+0xad4>
   12958:	01812783          	lw	a5,24(sp)
   1295c:	01412703          	lw	a4,20(sp)
   12960:	22f74663          	blt	a4,a5,12b8c <_vfprintf_r+0x25ec>
   12964:	05412783          	lw	a5,84(sp)
   12968:	00070b93          	mv	s7,a4
   1296c:	0017f793          	andi	a5,a5,1
   12970:	00078663          	beqz	a5,1297c <_vfprintf_r+0x23dc>
   12974:	02812783          	lw	a5,40(sp)
   12978:	00f70bb3          	add	s7,a4,a5
   1297c:	05412783          	lw	a5,84(sp)
   12980:	4007f793          	andi	a5,a5,1024
   12984:	00078663          	beqz	a5,12990 <_vfprintf_r+0x23f0>
   12988:	01412783          	lw	a5,20(sp)
   1298c:	40f04463          	bgtz	a5,12d94 <_vfprintf_r+0x27f4>
   12990:	fffbca13          	not	s4,s7
   12994:	41fa5a13          	srai	s4,s4,0x1f
   12998:	014bfa33          	and	s4,s7,s4
   1299c:	06700413          	li	s0,103
   129a0:	02012223          	sw	zero,36(sp)
   129a4:	02012023          	sw	zero,32(sp)
   129a8:	ff8fe06f          	j	111a0 <_vfprintf_r+0xc00>
   129ac:	0c714783          	lbu	a5,199(sp)
   129b0:	00000b13          	li	s6,0
   129b4:	00078463          	beqz	a5,129bc <_vfprintf_r+0x241c>
   129b8:	fa9fd06f          	j	10960 <_vfprintf_r+0x3c0>
   129bc:	ac4fe06f          	j	10c80 <_vfprintf_r+0x6e0>
   129c0:	00012823          	sw	zero,16(sp)
   129c4:	00078993          	mv	s3,a5
   129c8:	800007b7          	lui	a5,0x80000
   129cc:	01c7ce33          	xor	t3,a5,t3
   129d0:	02d00793          	li	a5,45
   129d4:	04f12e23          	sw	a5,92(sp)
   129d8:	badff06f          	j	12584 <_vfprintf_r+0x1fe4>
   129dc:	0e410613          	addi	a2,sp,228
   129e0:	000a0593          	mv	a1,s4
   129e4:	000a8513          	mv	a0,s5
   129e8:	134090ef          	jal	ra,1bb1c <__sprint_r>
   129ec:	00050463          	beqz	a0,129f4 <_vfprintf_r+0x2454>
   129f0:	e69fd06f          	j	10858 <_vfprintf_r+0x2b8>
   129f4:	0004c603          	lbu	a2,0(s1)
   129f8:	0ec12783          	lw	a5,236(sp)
   129fc:	10c10693          	addi	a3,sp,268
   12a00:	00cb0b33          	add	s6,s6,a2
   12a04:	915ff06f          	j	12318 <_vfprintf_r+0x1d78>
   12a08:	04012783          	lw	a5,64(sp)
   12a0c:	04412583          	lw	a1,68(sp)
   12a10:	00000413          	li	s0,0
   12a14:	40f90933          	sub	s2,s2,a5
   12a18:	00078613          	mv	a2,a5
   12a1c:	00090513          	mv	a0,s2
   12a20:	4a8060ef          	jal	ra,18ec8 <strncpy>
   12a24:	0014c803          	lbu	a6,1(s1)
   12a28:	00a00613          	li	a2,10
   12a2c:	00000693          	li	a3,0
   12a30:	01003833          	snez	a6,a6
   12a34:	000c8513          	mv	a0,s9
   12a38:	000a0593          	mv	a1,s4
   12a3c:	010484b3          	add	s1,s1,a6
   12a40:	4dd0c0ef          	jal	ra,1f71c <__udivdi3>
   12a44:	d10ff06f          	j	11f54 <_vfprintf_r+0x19b4>
   12a48:	00900793          	li	a5,9
   12a4c:	d197e463          	bltu	a5,s9,11f54 <_vfprintf_r+0x19b4>
   12a50:	d50ff06f          	j	11fa0 <_vfprintf_r+0x1a00>
   12a54:	0b010b93          	addi	s7,sp,176
   12a58:	0d010793          	addi	a5,sp,208
   12a5c:	0cc10713          	addi	a4,sp,204
   12a60:	0dc10813          	addi	a6,sp,220
   12a64:	000b0693          	mv	a3,s6
   12a68:	00300613          	li	a2,3
   12a6c:	000b8593          	mv	a1,s7
   12a70:	000a8513          	mv	a0,s5
   12a74:	0bd12823          	sw	t4,176(sp)
   12a78:	03d12223          	sw	t4,36(sp)
   12a7c:	0be12a23          	sw	t5,180(sp)
   12a80:	03e12023          	sw	t5,32(sp)
   12a84:	0bf12c23          	sw	t6,184(sp)
   12a88:	01f12c23          	sw	t6,24(sp)
   12a8c:	0bc12e23          	sw	t3,188(sp)
   12a90:	01c12a23          	sw	t3,20(sp)
   12a94:	61d020ef          	jal	ra,158b0 <_ldtoa_r>
   12a98:	00054703          	lbu	a4,0(a0)
   12a9c:	03000793          	li	a5,48
   12aa0:	00050d13          	mv	s10,a0
   12aa4:	01412e03          	lw	t3,20(sp)
   12aa8:	01812f83          	lw	t6,24(sp)
   12aac:	02012f03          	lw	t5,32(sp)
   12ab0:	02412e83          	lw	t4,36(sp)
   12ab4:	4cf70263          	beq	a4,a5,12f78 <_vfprintf_r+0x29d8>
   12ab8:	0a010793          	addi	a5,sp,160
   12abc:	04f12c23          	sw	a5,88(sp)
   12ac0:	0cc12783          	lw	a5,204(sp)
   12ac4:	016787b3          	add	a5,a5,s6
   12ac8:	00fd0a33          	add	s4,s10,a5
   12acc:	05812583          	lw	a1,88(sp)
   12ad0:	000b8513          	mv	a0,s7
   12ad4:	0bd12823          	sw	t4,176(sp)
   12ad8:	0be12a23          	sw	t5,180(sp)
   12adc:	0bf12c23          	sw	t6,184(sp)
   12ae0:	0bc12e23          	sw	t3,188(sp)
   12ae4:	0a012023          	sw	zero,160(sp)
   12ae8:	0a012223          	sw	zero,164(sp)
   12aec:	0a012423          	sw	zero,168(sp)
   12af0:	0a012623          	sw	zero,172(sp)
   12af4:	52c0e0ef          	jal	ra,21020 <__eqtf2>
   12af8:	000a0793          	mv	a5,s4
   12afc:	00051463          	bnez	a0,12b04 <_vfprintf_r+0x2564>
   12b00:	d44fe06f          	j	11044 <_vfprintf_r+0xaa4>
   12b04:	0dc12783          	lw	a5,220(sp)
   12b08:	03000693          	li	a3,48
   12b0c:	0147e463          	bltu	a5,s4,12b14 <_vfprintf_r+0x2574>
   12b10:	d34fe06f          	j	11044 <_vfprintf_r+0xaa4>
   12b14:	00178713          	addi	a4,a5,1 # 80000001 <__global_pointer$+0x7ffd8a91>
   12b18:	0ce12e23          	sw	a4,220(sp)
   12b1c:	00d78023          	sb	a3,0(a5)
   12b20:	0dc12783          	lw	a5,220(sp)
   12b24:	ff47e8e3          	bltu	a5,s4,12b14 <_vfprintf_r+0x2574>
   12b28:	d1cfe06f          	j	11044 <_vfprintf_r+0xaa4>
   12b2c:	02d00793          	li	a5,45
   12b30:	0cf103a3          	sb	a5,199(sp)
   12b34:	d34ff06f          	j	12068 <_vfprintf_r+0x1ac8>
   12b38:	00412583          	lw	a1,4(sp)
   12b3c:	0e410613          	addi	a2,sp,228
   12b40:	000a8513          	mv	a0,s5
   12b44:	7d9080ef          	jal	ra,1bb1c <__sprint_r>
   12b48:	00050463          	beqz	a0,12b50 <_vfprintf_r+0x25b0>
   12b4c:	d0dfd06f          	j	10858 <_vfprintf_r+0x2b8>
   12b50:	0cc12403          	lw	s0,204(sp)
   12b54:	0ec12783          	lw	a5,236(sp)
   12b58:	10c10d93          	addi	s11,sp,268
   12b5c:	f71fe06f          	j	11acc <_vfprintf_r+0x152c>
   12b60:	0c714783          	lbu	a5,199(sp)
   12b64:	01912623          	sw	s9,12(sp)
   12b68:	02012223          	sw	zero,36(sp)
   12b6c:	02012023          	sw	zero,32(sp)
   12b70:	00012a23          	sw	zero,20(sp)
   12b74:	000b0a13          	mv	s4,s6
   12b78:	000b0b93          	mv	s7,s6
   12b7c:	00000b13          	li	s6,0
   12b80:	00078463          	beqz	a5,12b88 <_vfprintf_r+0x25e8>
   12b84:	dddfd06f          	j	10960 <_vfprintf_r+0x3c0>
   12b88:	8f8fe06f          	j	10c80 <_vfprintf_r+0x6e0>
   12b8c:	01812783          	lw	a5,24(sp)
   12b90:	02812703          	lw	a4,40(sp)
   12b94:	06700413          	li	s0,103
   12b98:	00e78bb3          	add	s7,a5,a4
   12b9c:	01412783          	lw	a5,20(sp)
   12ba0:	42f05e63          	blez	a5,12fdc <_vfprintf_r+0x2a3c>
   12ba4:	05412783          	lw	a5,84(sp)
   12ba8:	4007f793          	andi	a5,a5,1024
   12bac:	1e079663          	bnez	a5,12d98 <_vfprintf_r+0x27f8>
   12bb0:	fffbca13          	not	s4,s7
   12bb4:	41fa5a13          	srai	s4,s4,0x1f
   12bb8:	014bfa33          	and	s4,s7,s4
   12bbc:	de5ff06f          	j	129a0 <_vfprintf_r+0x2400>
   12bc0:	00412583          	lw	a1,4(sp)
   12bc4:	0e410613          	addi	a2,sp,228
   12bc8:	000a8513          	mv	a0,s5
   12bcc:	751080ef          	jal	ra,1bb1c <__sprint_r>
   12bd0:	00050463          	beqz	a0,12bd8 <_vfprintf_r+0x2638>
   12bd4:	c85fd06f          	j	10858 <_vfprintf_r+0x2b8>
   12bd8:	0cc12403          	lw	s0,204(sp)
   12bdc:	01812703          	lw	a4,24(sp)
   12be0:	0ec12783          	lw	a5,236(sp)
   12be4:	10c10d93          	addi	s11,sp,268
   12be8:	40870433          	sub	s0,a4,s0
   12bec:	f2dfe06f          	j	11b18 <_vfprintf_r+0x1578>
   12bf0:	05412783          	lw	a5,84(sp)
   12bf4:	01412703          	lw	a4,20(sp)
   12bf8:	0017f793          	andi	a5,a5,1
   12bfc:	0167e7b3          	or	a5,a5,s6
   12c00:	3ee05a63          	blez	a4,12ff4 <_vfprintf_r+0x2a54>
   12c04:	24079463          	bnez	a5,12e4c <_vfprintf_r+0x28ac>
   12c08:	01412b83          	lw	s7,20(sp)
   12c0c:	06600413          	li	s0,102
   12c10:	f95ff06f          	j	12ba4 <_vfprintf_r+0x2604>
   12c14:	fff00793          	li	a5,-1
   12c18:	00f12423          	sw	a5,8(sp)
   12c1c:	c65fd06f          	j	10880 <_vfprintf_r+0x2e0>
   12c20:	00012697          	auipc	a3,0x12
   12c24:	b8468693          	addi	a3,a3,-1148 # 247a4 <zeroes.4505>
   12c28:	008787b3          	add	a5,a5,s0
   12c2c:	00170713          	addi	a4,a4,1 # 3ffe0001 <__global_pointer$+0x3ffb8a91>
   12c30:	00d8a023          	sw	a3,0(a7)
   12c34:	0088a223          	sw	s0,4(a7)
   12c38:	0ef12623          	sw	a5,236(sp)
   12c3c:	0ee12423          	sw	a4,232(sp)
   12c40:	00700693          	li	a3,7
   12c44:	00888893          	addi	a7,a7,8
   12c48:	a8e6d663          	bge	a3,a4,11ed4 <_vfprintf_r+0x1934>
   12c4c:	00412583          	lw	a1,4(sp)
   12c50:	0e410613          	addi	a2,sp,228
   12c54:	000a8513          	mv	a0,s5
   12c58:	6c5080ef          	jal	ra,1bb1c <__sprint_r>
   12c5c:	00050463          	beqz	a0,12c64 <_vfprintf_r+0x26c4>
   12c60:	bf9fd06f          	j	10858 <_vfprintf_r+0x2b8>
   12c64:	0ec12783          	lw	a5,236(sp)
   12c68:	0e812703          	lw	a4,232(sp)
   12c6c:	10c10893          	addi	a7,sp,268
   12c70:	a64ff06f          	j	11ed4 <_vfprintf_r+0x1934>
   12c74:	0a010793          	addi	a5,sp,160
   12c78:	016d0a33          	add	s4,s10,s6
   12c7c:	04f12c23          	sw	a5,88(sp)
   12c80:	e4dff06f          	j	12acc <_vfprintf_r+0x252c>
   12c84:	001b0a13          	addi	s4,s6,1
   12c88:	0b010b93          	addi	s7,sp,176
   12c8c:	0dc10813          	addi	a6,sp,220
   12c90:	0d010793          	addi	a5,sp,208
   12c94:	0cc10713          	addi	a4,sp,204
   12c98:	000a0693          	mv	a3,s4
   12c9c:	00200613          	li	a2,2
   12ca0:	000b8593          	mv	a1,s7
   12ca4:	000a8513          	mv	a0,s5
   12ca8:	0bd12823          	sw	t4,176(sp)
   12cac:	03d12223          	sw	t4,36(sp)
   12cb0:	0be12a23          	sw	t5,180(sp)
   12cb4:	03e12023          	sw	t5,32(sp)
   12cb8:	0bf12c23          	sw	t6,184(sp)
   12cbc:	01f12c23          	sw	t6,24(sp)
   12cc0:	0bc12e23          	sw	t3,188(sp)
   12cc4:	01c12a23          	sw	t3,20(sp)
   12cc8:	3e9020ef          	jal	ra,158b0 <_ldtoa_r>
   12ccc:	01412e03          	lw	t3,20(sp)
   12cd0:	01812f83          	lw	t6,24(sp)
   12cd4:	02012f03          	lw	t5,32(sp)
   12cd8:	02412e83          	lw	t4,36(sp)
   12cdc:	00050d13          	mv	s10,a0
   12ce0:	0a010793          	addi	a5,sp,160
   12ce4:	014d0a33          	add	s4,s10,s4
   12ce8:	04f12c23          	sw	a5,88(sp)
   12cec:	de1ff06f          	j	12acc <_vfprintf_r+0x252c>
   12cf0:	03000793          	li	a5,48
   12cf4:	0cf10423          	sb	a5,200(sp)
   12cf8:	07800793          	li	a5,120
   12cfc:	849ff06f          	j	12544 <_vfprintf_r+0x1fa4>
   12d00:	001b0593          	addi	a1,s6,1
   12d04:	000a8513          	mv	a0,s5
   12d08:	1ac040ef          	jal	ra,16eb4 <_malloc_r>
   12d0c:	00050d13          	mv	s10,a0
   12d10:	34050c63          	beqz	a0,13068 <_vfprintf_r+0x2ac8>
   12d14:	00a12823          	sw	a0,16(sp)
   12d18:	849ff06f          	j	12560 <_vfprintf_r+0x1fc0>
   12d1c:	01412783          	lw	a5,20(sp)
   12d20:	000c8713          	mv	a4,s9
   12d24:	0cf12e23          	sw	a5,220(sp)
   12d28:	03412783          	lw	a5,52(sp)
   12d2c:	fffcc683          	lbu	a3,-1(s9)
   12d30:	00f7c603          	lbu	a2,15(a5)
   12d34:	02d61063          	bne	a2,a3,12d54 <_vfprintf_r+0x27b4>
   12d38:	03000593          	li	a1,48
   12d3c:	feb70fa3          	sb	a1,-1(a4)
   12d40:	0dc12703          	lw	a4,220(sp)
   12d44:	fff70793          	addi	a5,a4,-1
   12d48:	0cf12e23          	sw	a5,220(sp)
   12d4c:	fff74683          	lbu	a3,-1(a4)
   12d50:	fed606e3          	beq	a2,a3,12d3c <_vfprintf_r+0x279c>
   12d54:	00168613          	addi	a2,a3,1
   12d58:	03900593          	li	a1,57
   12d5c:	0ff67613          	andi	a2,a2,255
   12d60:	00b68663          	beq	a3,a1,12d6c <_vfprintf_r+0x27cc>
   12d64:	fec70fa3          	sb	a2,-1(a4)
   12d68:	b8dff06f          	j	128f4 <_vfprintf_r+0x2354>
   12d6c:	03412783          	lw	a5,52(sp)
   12d70:	00a7c603          	lbu	a2,10(a5)
   12d74:	fec70fa3          	sb	a2,-1(a4)
   12d78:	b7dff06f          	j	128f4 <_vfprintf_r+0x2354>
   12d7c:	000b0463          	beqz	s6,12d84 <_vfprintf_r+0x27e4>
   12d80:	a00fe06f          	j	10f80 <_vfprintf_r+0x9e0>
   12d84:	00100b13          	li	s6,1
   12d88:	9f8fe06f          	j	10f80 <_vfprintf_r+0x9e0>
   12d8c:	00600b13          	li	s6,6
   12d90:	9f0fe06f          	j	10f80 <_vfprintf_r+0x9e0>
   12d94:	06700413          	li	s0,103
   12d98:	03c12583          	lw	a1,60(sp)
   12d9c:	01412703          	lw	a4,20(sp)
   12da0:	02012223          	sw	zero,36(sp)
   12da4:	0005c783          	lbu	a5,0(a1)
   12da8:	02012023          	sw	zero,32(sp)
   12dac:	0ff00693          	li	a3,255
   12db0:	02d78e63          	beq	a5,a3,12dec <_vfprintf_r+0x284c>
   12db4:	02e7dc63          	bge	a5,a4,12dec <_vfprintf_r+0x284c>
   12db8:	0015c603          	lbu	a2,1(a1)
   12dbc:	40f70733          	sub	a4,a4,a5
   12dc0:	00060e63          	beqz	a2,12ddc <_vfprintf_r+0x283c>
   12dc4:	02012783          	lw	a5,32(sp)
   12dc8:	00158593          	addi	a1,a1,1
   12dcc:	00178793          	addi	a5,a5,1
   12dd0:	02f12023          	sw	a5,32(sp)
   12dd4:	00060793          	mv	a5,a2
   12dd8:	fd9ff06f          	j	12db0 <_vfprintf_r+0x2810>
   12ddc:	02412603          	lw	a2,36(sp)
   12de0:	00160613          	addi	a2,a2,1
   12de4:	02c12223          	sw	a2,36(sp)
   12de8:	fc9ff06f          	j	12db0 <_vfprintf_r+0x2810>
   12dec:	00e12a23          	sw	a4,20(sp)
   12df0:	02012783          	lw	a5,32(sp)
   12df4:	02412703          	lw	a4,36(sp)
   12df8:	02b12e23          	sw	a1,60(sp)
   12dfc:	04012583          	lw	a1,64(sp)
   12e00:	00e78533          	add	a0,a5,a4
   12e04:	690110ef          	jal	ra,24494 <__mulsi3>
   12e08:	01750bb3          	add	s7,a0,s7
   12e0c:	fffbca13          	not	s4,s7
   12e10:	41fa5a13          	srai	s4,s4,0x1f
   12e14:	014bfa33          	and	s4,s7,s4
   12e18:	b88fe06f          	j	111a0 <_vfprintf_r+0xc00>
   12e1c:	0d610793          	addi	a5,sp,214
   12e20:	00071863          	bnez	a4,12e30 <_vfprintf_r+0x2890>
   12e24:	03000793          	li	a5,48
   12e28:	0cf10b23          	sb	a5,214(sp)
   12e2c:	0d710793          	addi	a5,sp,215
   12e30:	1b010713          	addi	a4,sp,432
   12e34:	030a0a13          	addi	s4,s4,48
   12e38:	40e78733          	sub	a4,a5,a4
   12e3c:	01478023          	sb	s4,0(a5)
   12e40:	0dd70793          	addi	a5,a4,221
   12e44:	02f12c23          	sw	a5,56(sp)
   12e48:	b14fe06f          	j	1115c <_vfprintf_r+0xbbc>
   12e4c:	02812783          	lw	a5,40(sp)
   12e50:	06600413          	li	s0,102
   12e54:	00f70bb3          	add	s7,a4,a5
   12e58:	016b8bb3          	add	s7,s7,s6
   12e5c:	d49ff06f          	j	12ba4 <_vfprintf_r+0x2604>
   12e60:	0b010b93          	addi	s7,sp,176
   12e64:	000b8513          	mv	a0,s7
   12e68:	0bd12823          	sw	t4,176(sp)
   12e6c:	0be12a23          	sw	t5,180(sp)
   12e70:	0bf12c23          	sw	t6,184(sp)
   12e74:	0bc12e23          	sw	t3,188(sp)
   12e78:	2e8110ef          	jal	ra,24160 <__trunctfdf2>
   12e7c:	0cc10613          	addi	a2,sp,204
   12e80:	29d050ef          	jal	ra,1891c <frexp>
   12e84:	00058613          	mv	a2,a1
   12e88:	00050593          	mv	a1,a0
   12e8c:	000b8513          	mv	a0,s7
   12e90:	0c8110ef          	jal	ra,23f58 <__extenddftf2>
   12e94:	09010793          	addi	a5,sp,144
   12e98:	00078593          	mv	a1,a5
   12e9c:	00f12c23          	sw	a5,24(sp)
   12ea0:	0b012783          	lw	a5,176(sp)
   12ea4:	0a010a13          	addi	s4,sp,160
   12ea8:	08010613          	addi	a2,sp,128
   12eac:	08f12823          	sw	a5,144(sp)
   12eb0:	0b412783          	lw	a5,180(sp)
   12eb4:	000a0513          	mv	a0,s4
   12eb8:	04c12623          	sw	a2,76(sp)
   12ebc:	08f12a23          	sw	a5,148(sp)
   12ec0:	0b812783          	lw	a5,184(sp)
   12ec4:	05412c23          	sw	s4,88(sp)
   12ec8:	08012023          	sw	zero,128(sp)
   12ecc:	08f12c23          	sw	a5,152(sp)
   12ed0:	0bc12783          	lw	a5,188(sp)
   12ed4:	08012223          	sw	zero,132(sp)
   12ed8:	08012423          	sw	zero,136(sp)
   12edc:	08f12e23          	sw	a5,156(sp)
   12ee0:	3ffc07b7          	lui	a5,0x3ffc0
   12ee4:	08f12623          	sw	a5,140(sp)
   12ee8:	48c0e0ef          	jal	ra,21374 <__multf3>
   12eec:	0a012683          	lw	a3,160(sp)
   12ef0:	0a412e03          	lw	t3,164(sp)
   12ef4:	0a812e83          	lw	t4,168(sp)
   12ef8:	0ac12f03          	lw	t5,172(sp)
   12efc:	000a0593          	mv	a1,s4
   12f00:	000b8513          	mv	a0,s7
   12f04:	0ad12823          	sw	a3,176(sp)
   12f08:	02d12a23          	sw	a3,52(sp)
   12f0c:	0bc12a23          	sw	t3,180(sp)
   12f10:	03c12223          	sw	t3,36(sp)
   12f14:	0bd12c23          	sw	t4,184(sp)
   12f18:	03d12023          	sw	t4,32(sp)
   12f1c:	0be12e23          	sw	t5,188(sp)
   12f20:	01e12a23          	sw	t5,20(sp)
   12f24:	0a012023          	sw	zero,160(sp)
   12f28:	0a012223          	sw	zero,164(sp)
   12f2c:	0a012423          	sw	zero,168(sp)
   12f30:	0a012623          	sw	zero,172(sp)
   12f34:	0ec0e0ef          	jal	ra,21020 <__eqtf2>
   12f38:	01412f03          	lw	t5,20(sp)
   12f3c:	02012e83          	lw	t4,32(sp)
   12f40:	02412e03          	lw	t3,36(sp)
   12f44:	03412683          	lw	a3,52(sp)
   12f48:	00051663          	bnez	a0,12f54 <_vfprintf_r+0x29b4>
   12f4c:	00100793          	li	a5,1
   12f50:	0cf12623          	sw	a5,204(sp)
   12f54:	00012797          	auipc	a5,0x12
   12f58:	87078793          	addi	a5,a5,-1936 # 247c4 <zeroes.4505+0x20>
   12f5c:	02f12a23          	sw	a5,52(sp)
   12f60:	f38ff06f          	j	12698 <_vfprintf_r+0x20f8>
   12f64:	05412783          	lw	a5,84(sp)
   12f68:	0017f793          	andi	a5,a5,1
   12f6c:	00079463          	bnez	a5,12f74 <_vfprintf_r+0x29d4>
   12f70:	a0cfe06f          	j	1117c <_vfprintf_r+0xbdc>
   12f74:	a00fe06f          	j	11174 <_vfprintf_r+0xbd4>
   12f78:	0a010593          	addi	a1,sp,160
   12f7c:	000b8513          	mv	a0,s7
   12f80:	0bd12823          	sw	t4,176(sp)
   12f84:	03d12223          	sw	t4,36(sp)
   12f88:	0be12a23          	sw	t5,180(sp)
   12f8c:	03e12023          	sw	t5,32(sp)
   12f90:	0bf12c23          	sw	t6,184(sp)
   12f94:	01f12c23          	sw	t6,24(sp)
   12f98:	0bc12e23          	sw	t3,188(sp)
   12f9c:	01c12a23          	sw	t3,20(sp)
   12fa0:	04b12c23          	sw	a1,88(sp)
   12fa4:	0a012023          	sw	zero,160(sp)
   12fa8:	0a012223          	sw	zero,164(sp)
   12fac:	0a012423          	sw	zero,168(sp)
   12fb0:	0a012623          	sw	zero,172(sp)
   12fb4:	06c0e0ef          	jal	ra,21020 <__eqtf2>
   12fb8:	01412e03          	lw	t3,20(sp)
   12fbc:	01812f83          	lw	t6,24(sp)
   12fc0:	02012f03          	lw	t5,32(sp)
   12fc4:	02412e83          	lw	t4,36(sp)
   12fc8:	ae050ce3          	beqz	a0,12ac0 <_vfprintf_r+0x2520>
   12fcc:	00100793          	li	a5,1
   12fd0:	416787b3          	sub	a5,a5,s6
   12fd4:	0cf12623          	sw	a5,204(sp)
   12fd8:	aedff06f          	j	12ac4 <_vfprintf_r+0x2524>
   12fdc:	40fb8bb3          	sub	s7,s7,a5
   12fe0:	001b8b93          	addi	s7,s7,1
   12fe4:	fffbca13          	not	s4,s7
   12fe8:	41fa5a13          	srai	s4,s4,0x1f
   12fec:	014bfa33          	and	s4,s7,s4
   12ff0:	9b1ff06f          	j	129a0 <_vfprintf_r+0x2400>
   12ff4:	00079a63          	bnez	a5,13008 <_vfprintf_r+0x2a68>
   12ff8:	00100a13          	li	s4,1
   12ffc:	06600413          	li	s0,102
   13000:	00100b93          	li	s7,1
   13004:	99dff06f          	j	129a0 <_vfprintf_r+0x2400>
   13008:	02812783          	lw	a5,40(sp)
   1300c:	06600413          	li	s0,102
   13010:	00178b93          	addi	s7,a5,1
   13014:	016b8bb3          	add	s7,s7,s6
   13018:	fffbca13          	not	s4,s7
   1301c:	41fa5a13          	srai	s4,s4,0x1f
   13020:	014bfa33          	and	s4,s7,s4
   13024:	97dff06f          	j	129a0 <_vfprintf_r+0x2400>
   13028:	000d8613          	mv	a2,s11
   1302c:	cb1fe06f          	j	11cdc <_vfprintf_r+0x173c>
   13030:	00c12703          	lw	a4,12(sp)
   13034:	00072b03          	lw	s6,0(a4)
   13038:	00470713          	addi	a4,a4,4
   1303c:	000b5463          	bgez	s6,13044 <_vfprintf_r+0x2aa4>
   13040:	fff00b13          	li	s6,-1
   13044:	00194403          	lbu	s0,1(s2)
   13048:	00e12623          	sw	a4,12(sp)
   1304c:	00078913          	mv	s2,a5
   13050:	f04fd06f          	j	10754 <_vfprintf_r+0x1b4>
   13054:	00098a13          	mv	s4,s3
   13058:	b2dfd06f          	j	10b84 <_vfprintf_r+0x5e4>
   1305c:	00200793          	li	a5,2
   13060:	02f12c23          	sw	a5,56(sp)
   13064:	8f8fe06f          	j	1115c <_vfprintf_r+0xbbc>
   13068:	00412703          	lw	a4,4(sp)
   1306c:	00c75783          	lhu	a5,12(a4)
   13070:	0407e793          	ori	a5,a5,64
   13074:	00f71623          	sh	a5,12(a4)
   13078:	ff4fd06f          	j	1086c <_vfprintf_r+0x2cc>
   1307c:	00098a13          	mv	s4,s3
   13080:	954fe06f          	j	111d4 <_vfprintf_r+0xc34>
   13084:	000b0a13          	mv	s4,s6
   13088:	c59ff06f          	j	12ce0 <_vfprintf_r+0x2740>

0001308c <vfprintf>:
   1308c:	81c18793          	addi	a5,gp,-2020 # 26d8c <_impure_ptr>
   13090:	00060693          	mv	a3,a2
   13094:	00058613          	mv	a2,a1
   13098:	00050593          	mv	a1,a0
   1309c:	0007a503          	lw	a0,0(a5)
   130a0:	d00fd06f          	j	105a0 <_vfprintf_r>

000130a4 <__sbprintf>:
   130a4:	00c5d783          	lhu	a5,12(a1)
   130a8:	0645ae03          	lw	t3,100(a1)
   130ac:	00e5d303          	lhu	t1,14(a1)
   130b0:	01c5a883          	lw	a7,28(a1)
   130b4:	0245a803          	lw	a6,36(a1)
   130b8:	b8010113          	addi	sp,sp,-1152
   130bc:	ffd7f793          	andi	a5,a5,-3
   130c0:	40000713          	li	a4,1024
   130c4:	46812c23          	sw	s0,1144(sp)
   130c8:	00f11a23          	sh	a5,20(sp)
   130cc:	00058413          	mv	s0,a1
   130d0:	07010793          	addi	a5,sp,112
   130d4:	00810593          	addi	a1,sp,8
   130d8:	46912a23          	sw	s1,1140(sp)
   130dc:	47212823          	sw	s2,1136(sp)
   130e0:	46112e23          	sw	ra,1148(sp)
   130e4:	00050913          	mv	s2,a0
   130e8:	07c12623          	sw	t3,108(sp)
   130ec:	00611b23          	sh	t1,22(sp)
   130f0:	03112223          	sw	a7,36(sp)
   130f4:	03012623          	sw	a6,44(sp)
   130f8:	00f12423          	sw	a5,8(sp)
   130fc:	00f12c23          	sw	a5,24(sp)
   13100:	00e12823          	sw	a4,16(sp)
   13104:	00e12e23          	sw	a4,28(sp)
   13108:	02012023          	sw	zero,32(sp)
   1310c:	c94fd0ef          	jal	ra,105a0 <_vfprintf_r>
   13110:	00050493          	mv	s1,a0
   13114:	02055c63          	bgez	a0,1314c <__sbprintf+0xa8>
   13118:	01415783          	lhu	a5,20(sp)
   1311c:	0407f793          	andi	a5,a5,64
   13120:	00078863          	beqz	a5,13130 <__sbprintf+0x8c>
   13124:	00c45783          	lhu	a5,12(s0)
   13128:	0407e793          	ori	a5,a5,64
   1312c:	00f41623          	sh	a5,12(s0)
   13130:	47c12083          	lw	ra,1148(sp)
   13134:	47812403          	lw	s0,1144(sp)
   13138:	00048513          	mv	a0,s1
   1313c:	47012903          	lw	s2,1136(sp)
   13140:	47412483          	lw	s1,1140(sp)
   13144:	48010113          	addi	sp,sp,1152
   13148:	00008067          	ret
   1314c:	00810593          	addi	a1,sp,8
   13150:	00090513          	mv	a0,s2
   13154:	58c000ef          	jal	ra,136e0 <_fflush_r>
   13158:	fc0500e3          	beqz	a0,13118 <__sbprintf+0x74>
   1315c:	fff00493          	li	s1,-1
   13160:	fb9ff06f          	j	13118 <__sbprintf+0x74>

00013164 <__swsetup_r>:
   13164:	81c18793          	addi	a5,gp,-2020 # 26d8c <_impure_ptr>
   13168:	0007a783          	lw	a5,0(a5)
   1316c:	ff010113          	addi	sp,sp,-16
   13170:	00812423          	sw	s0,8(sp)
   13174:	00912223          	sw	s1,4(sp)
   13178:	00112623          	sw	ra,12(sp)
   1317c:	00050493          	mv	s1,a0
   13180:	00058413          	mv	s0,a1
   13184:	00078663          	beqz	a5,13190 <__swsetup_r+0x2c>
   13188:	0387a703          	lw	a4,56(a5)
   1318c:	08070663          	beqz	a4,13218 <__swsetup_r+0xb4>
   13190:	00c41703          	lh	a4,12(s0)
   13194:	01071793          	slli	a5,a4,0x10
   13198:	0107d793          	srli	a5,a5,0x10
   1319c:	0087f693          	andi	a3,a5,8
   131a0:	08068a63          	beqz	a3,13234 <__swsetup_r+0xd0>
   131a4:	01042683          	lw	a3,16(s0)
   131a8:	0a068a63          	beqz	a3,1325c <__swsetup_r+0xf8>
   131ac:	0017f713          	andi	a4,a5,1
   131b0:	02070863          	beqz	a4,131e0 <__swsetup_r+0x7c>
   131b4:	01442783          	lw	a5,20(s0)
   131b8:	00042423          	sw	zero,8(s0)
   131bc:	00000513          	li	a0,0
   131c0:	40f007b3          	neg	a5,a5
   131c4:	00f42c23          	sw	a5,24(s0)
   131c8:	02068a63          	beqz	a3,131fc <__swsetup_r+0x98>
   131cc:	00c12083          	lw	ra,12(sp)
   131d0:	00812403          	lw	s0,8(sp)
   131d4:	00412483          	lw	s1,4(sp)
   131d8:	01010113          	addi	sp,sp,16
   131dc:	00008067          	ret
   131e0:	0027f793          	andi	a5,a5,2
   131e4:	00000713          	li	a4,0
   131e8:	00079463          	bnez	a5,131f0 <__swsetup_r+0x8c>
   131ec:	01442703          	lw	a4,20(s0)
   131f0:	00e42423          	sw	a4,8(s0)
   131f4:	00000513          	li	a0,0
   131f8:	fc069ae3          	bnez	a3,131cc <__swsetup_r+0x68>
   131fc:	00c41783          	lh	a5,12(s0)
   13200:	0807f713          	andi	a4,a5,128
   13204:	fc0704e3          	beqz	a4,131cc <__swsetup_r+0x68>
   13208:	0407e793          	ori	a5,a5,64
   1320c:	00f41623          	sh	a5,12(s0)
   13210:	fff00513          	li	a0,-1
   13214:	fb9ff06f          	j	131cc <__swsetup_r+0x68>
   13218:	00078513          	mv	a0,a5
   1321c:	07d000ef          	jal	ra,13a98 <__sinit>
   13220:	00c41703          	lh	a4,12(s0)
   13224:	01071793          	slli	a5,a4,0x10
   13228:	0107d793          	srli	a5,a5,0x10
   1322c:	0087f693          	andi	a3,a5,8
   13230:	f6069ae3          	bnez	a3,131a4 <__swsetup_r+0x40>
   13234:	0107f693          	andi	a3,a5,16
   13238:	06068e63          	beqz	a3,132b4 <__swsetup_r+0x150>
   1323c:	0047f793          	andi	a5,a5,4
   13240:	04079063          	bnez	a5,13280 <__swsetup_r+0x11c>
   13244:	01042683          	lw	a3,16(s0)
   13248:	00876793          	ori	a5,a4,8
   1324c:	00f41623          	sh	a5,12(s0)
   13250:	01079793          	slli	a5,a5,0x10
   13254:	0107d793          	srli	a5,a5,0x10
   13258:	f4069ae3          	bnez	a3,131ac <__swsetup_r+0x48>
   1325c:	2807f713          	andi	a4,a5,640
   13260:	20000613          	li	a2,512
   13264:	f4c704e3          	beq	a4,a2,131ac <__swsetup_r+0x48>
   13268:	00040593          	mv	a1,s0
   1326c:	00048513          	mv	a0,s1
   13270:	325030ef          	jal	ra,16d94 <__smakebuf_r>
   13274:	00c45783          	lhu	a5,12(s0)
   13278:	01042683          	lw	a3,16(s0)
   1327c:	f31ff06f          	j	131ac <__swsetup_r+0x48>
   13280:	03042583          	lw	a1,48(s0)
   13284:	00058e63          	beqz	a1,132a0 <__swsetup_r+0x13c>
   13288:	04040793          	addi	a5,s0,64
   1328c:	00f58863          	beq	a1,a5,1329c <__swsetup_r+0x138>
   13290:	00048513          	mv	a0,s1
   13294:	179000ef          	jal	ra,13c0c <_free_r>
   13298:	00c41703          	lh	a4,12(s0)
   1329c:	02042823          	sw	zero,48(s0)
   132a0:	01042683          	lw	a3,16(s0)
   132a4:	fdb77713          	andi	a4,a4,-37
   132a8:	00042223          	sw	zero,4(s0)
   132ac:	00d42023          	sw	a3,0(s0)
   132b0:	f99ff06f          	j	13248 <__swsetup_r+0xe4>
   132b4:	00900793          	li	a5,9
   132b8:	00f4a023          	sw	a5,0(s1)
   132bc:	04076713          	ori	a4,a4,64
   132c0:	00e41623          	sh	a4,12(s0)
   132c4:	fff00513          	li	a0,-1
   132c8:	f05ff06f          	j	131cc <__swsetup_r+0x68>

000132cc <__register_exitproc>:
   132cc:	81818793          	addi	a5,gp,-2024 # 26d88 <_global_impure_ptr>
   132d0:	0007a703          	lw	a4,0(a5)
   132d4:	14872783          	lw	a5,328(a4)
   132d8:	04078c63          	beqz	a5,13330 <__register_exitproc+0x64>
   132dc:	0047a703          	lw	a4,4(a5)
   132e0:	01f00813          	li	a6,31
   132e4:	06e84e63          	blt	a6,a4,13360 <__register_exitproc+0x94>
   132e8:	00271813          	slli	a6,a4,0x2
   132ec:	02050663          	beqz	a0,13318 <__register_exitproc+0x4c>
   132f0:	01078333          	add	t1,a5,a6
   132f4:	08c32423          	sw	a2,136(t1)
   132f8:	1887a883          	lw	a7,392(a5)
   132fc:	00100613          	li	a2,1
   13300:	00e61633          	sll	a2,a2,a4
   13304:	00c8e8b3          	or	a7,a7,a2
   13308:	1917a423          	sw	a7,392(a5)
   1330c:	10d32423          	sw	a3,264(t1)
   13310:	00200693          	li	a3,2
   13314:	02d50463          	beq	a0,a3,1333c <__register_exitproc+0x70>
   13318:	00170713          	addi	a4,a4,1
   1331c:	00e7a223          	sw	a4,4(a5)
   13320:	010787b3          	add	a5,a5,a6
   13324:	00b7a423          	sw	a1,8(a5)
   13328:	00000513          	li	a0,0
   1332c:	00008067          	ret
   13330:	14c70793          	addi	a5,a4,332
   13334:	14f72423          	sw	a5,328(a4)
   13338:	fa5ff06f          	j	132dc <__register_exitproc+0x10>
   1333c:	18c7a683          	lw	a3,396(a5)
   13340:	00170713          	addi	a4,a4,1
   13344:	00e7a223          	sw	a4,4(a5)
   13348:	00c6e633          	or	a2,a3,a2
   1334c:	18c7a623          	sw	a2,396(a5)
   13350:	010787b3          	add	a5,a5,a6
   13354:	00b7a423          	sw	a1,8(a5)
   13358:	00000513          	li	a0,0
   1335c:	00008067          	ret
   13360:	fff00513          	li	a0,-1
   13364:	00008067          	ret

00013368 <__call_exitprocs>:
   13368:	fd010113          	addi	sp,sp,-48
   1336c:	81818793          	addi	a5,gp,-2024 # 26d88 <_global_impure_ptr>
   13370:	01812423          	sw	s8,8(sp)
   13374:	0007ac03          	lw	s8,0(a5)
   13378:	01312e23          	sw	s3,28(sp)
   1337c:	01412c23          	sw	s4,24(sp)
   13380:	01512a23          	sw	s5,20(sp)
   13384:	01612823          	sw	s6,16(sp)
   13388:	02112623          	sw	ra,44(sp)
   1338c:	02812423          	sw	s0,40(sp)
   13390:	02912223          	sw	s1,36(sp)
   13394:	03212023          	sw	s2,32(sp)
   13398:	01712623          	sw	s7,12(sp)
   1339c:	00050a93          	mv	s5,a0
   133a0:	00058b13          	mv	s6,a1
   133a4:	00100a13          	li	s4,1
   133a8:	fff00993          	li	s3,-1
   133ac:	148c2903          	lw	s2,328(s8)
   133b0:	02090863          	beqz	s2,133e0 <__call_exitprocs+0x78>
   133b4:	00492483          	lw	s1,4(s2)
   133b8:	fff48413          	addi	s0,s1,-1
   133bc:	02044263          	bltz	s0,133e0 <__call_exitprocs+0x78>
   133c0:	00249493          	slli	s1,s1,0x2
   133c4:	009904b3          	add	s1,s2,s1
   133c8:	040b0463          	beqz	s6,13410 <__call_exitprocs+0xa8>
   133cc:	1044a783          	lw	a5,260(s1)
   133d0:	05678063          	beq	a5,s6,13410 <__call_exitprocs+0xa8>
   133d4:	fff40413          	addi	s0,s0,-1
   133d8:	ffc48493          	addi	s1,s1,-4
   133dc:	ff3416e3          	bne	s0,s3,133c8 <__call_exitprocs+0x60>
   133e0:	02c12083          	lw	ra,44(sp)
   133e4:	02812403          	lw	s0,40(sp)
   133e8:	02412483          	lw	s1,36(sp)
   133ec:	02012903          	lw	s2,32(sp)
   133f0:	01c12983          	lw	s3,28(sp)
   133f4:	01812a03          	lw	s4,24(sp)
   133f8:	01412a83          	lw	s5,20(sp)
   133fc:	01012b03          	lw	s6,16(sp)
   13400:	00c12b83          	lw	s7,12(sp)
   13404:	00812c03          	lw	s8,8(sp)
   13408:	03010113          	addi	sp,sp,48
   1340c:	00008067          	ret
   13410:	00492783          	lw	a5,4(s2)
   13414:	0044a683          	lw	a3,4(s1)
   13418:	fff78793          	addi	a5,a5,-1
   1341c:	04878a63          	beq	a5,s0,13470 <__call_exitprocs+0x108>
   13420:	0004a223          	sw	zero,4(s1)
   13424:	fa0688e3          	beqz	a3,133d4 <__call_exitprocs+0x6c>
   13428:	18892783          	lw	a5,392(s2)
   1342c:	008a1733          	sll	a4,s4,s0
   13430:	00492b83          	lw	s7,4(s2)
   13434:	00f777b3          	and	a5,a4,a5
   13438:	00079e63          	bnez	a5,13454 <__call_exitprocs+0xec>
   1343c:	000680e7          	jalr	a3
   13440:	00492783          	lw	a5,4(s2)
   13444:	f77794e3          	bne	a5,s7,133ac <__call_exitprocs+0x44>
   13448:	148c2783          	lw	a5,328(s8)
   1344c:	f92784e3          	beq	a5,s2,133d4 <__call_exitprocs+0x6c>
   13450:	f5dff06f          	j	133ac <__call_exitprocs+0x44>
   13454:	18c92783          	lw	a5,396(s2)
   13458:	0844a583          	lw	a1,132(s1)
   1345c:	00f77733          	and	a4,a4,a5
   13460:	00071c63          	bnez	a4,13478 <__call_exitprocs+0x110>
   13464:	000a8513          	mv	a0,s5
   13468:	000680e7          	jalr	a3
   1346c:	fd5ff06f          	j	13440 <__call_exitprocs+0xd8>
   13470:	00892223          	sw	s0,4(s2)
   13474:	fb1ff06f          	j	13424 <__call_exitprocs+0xbc>
   13478:	00058513          	mv	a0,a1
   1347c:	000680e7          	jalr	a3
   13480:	fc1ff06f          	j	13440 <__call_exitprocs+0xd8>

00013484 <__sflush_r>:
   13484:	00c59783          	lh	a5,12(a1)
   13488:	fe010113          	addi	sp,sp,-32
   1348c:	00812c23          	sw	s0,24(sp)
   13490:	01079713          	slli	a4,a5,0x10
   13494:	01075713          	srli	a4,a4,0x10
   13498:	01312623          	sw	s3,12(sp)
   1349c:	00112e23          	sw	ra,28(sp)
   134a0:	00912a23          	sw	s1,20(sp)
   134a4:	01212823          	sw	s2,16(sp)
   134a8:	00877693          	andi	a3,a4,8
   134ac:	00058413          	mv	s0,a1
   134b0:	00050993          	mv	s3,a0
   134b4:	10069a63          	bnez	a3,135c8 <__sflush_r+0x144>
   134b8:	00001737          	lui	a4,0x1
   134bc:	80070713          	addi	a4,a4,-2048 # 800 <_start-0xf800>
   134c0:	0045a683          	lw	a3,4(a1)
   134c4:	00e7e7b3          	or	a5,a5,a4
   134c8:	00f59623          	sh	a5,12(a1)
   134cc:	18d05063          	blez	a3,1364c <__sflush_r+0x1c8>
   134d0:	02842703          	lw	a4,40(s0)
   134d4:	0c070a63          	beqz	a4,135a8 <__sflush_r+0x124>
   134d8:	01079793          	slli	a5,a5,0x10
   134dc:	0107d793          	srli	a5,a5,0x10
   134e0:	0009a483          	lw	s1,0(s3)
   134e4:	01379693          	slli	a3,a5,0x13
   134e8:	0009a023          	sw	zero,0(s3)
   134ec:	01c42583          	lw	a1,28(s0)
   134f0:	1606c463          	bltz	a3,13658 <__sflush_r+0x1d4>
   134f4:	00100693          	li	a3,1
   134f8:	00000613          	li	a2,0
   134fc:	00098513          	mv	a0,s3
   13500:	000700e7          	jalr	a4
   13504:	fff00793          	li	a5,-1
   13508:	18f50863          	beq	a0,a5,13698 <__sflush_r+0x214>
   1350c:	00c45783          	lhu	a5,12(s0)
   13510:	02842703          	lw	a4,40(s0)
   13514:	01c42583          	lw	a1,28(s0)
   13518:	0047f793          	andi	a5,a5,4
   1351c:	00078e63          	beqz	a5,13538 <__sflush_r+0xb4>
   13520:	00442683          	lw	a3,4(s0)
   13524:	03042783          	lw	a5,48(s0)
   13528:	40d50533          	sub	a0,a0,a3
   1352c:	00078663          	beqz	a5,13538 <__sflush_r+0xb4>
   13530:	03c42783          	lw	a5,60(s0)
   13534:	40f50533          	sub	a0,a0,a5
   13538:	00050613          	mv	a2,a0
   1353c:	00000693          	li	a3,0
   13540:	00098513          	mv	a0,s3
   13544:	000700e7          	jalr	a4
   13548:	fff00793          	li	a5,-1
   1354c:	10f51a63          	bne	a0,a5,13660 <__sflush_r+0x1dc>
   13550:	0009a703          	lw	a4,0(s3)
   13554:	00c41783          	lh	a5,12(s0)
   13558:	16070463          	beqz	a4,136c0 <__sflush_r+0x23c>
   1355c:	01d00693          	li	a3,29
   13560:	00d70663          	beq	a4,a3,1356c <__sflush_r+0xe8>
   13564:	01600693          	li	a3,22
   13568:	0cd71063          	bne	a4,a3,13628 <__sflush_r+0x1a4>
   1356c:	01042683          	lw	a3,16(s0)
   13570:	fffff737          	lui	a4,0xfffff
   13574:	7ff70713          	addi	a4,a4,2047 # fffff7ff <__global_pointer$+0xfffd828f>
   13578:	00e7f7b3          	and	a5,a5,a4
   1357c:	00f41623          	sh	a5,12(s0)
   13580:	00042223          	sw	zero,4(s0)
   13584:	00d42023          	sw	a3,0(s0)
   13588:	03042583          	lw	a1,48(s0)
   1358c:	0099a023          	sw	s1,0(s3)
   13590:	00058c63          	beqz	a1,135a8 <__sflush_r+0x124>
   13594:	04040793          	addi	a5,s0,64
   13598:	00f58663          	beq	a1,a5,135a4 <__sflush_r+0x120>
   1359c:	00098513          	mv	a0,s3
   135a0:	66c000ef          	jal	ra,13c0c <_free_r>
   135a4:	02042823          	sw	zero,48(s0)
   135a8:	00000513          	li	a0,0
   135ac:	01c12083          	lw	ra,28(sp)
   135b0:	01812403          	lw	s0,24(sp)
   135b4:	01412483          	lw	s1,20(sp)
   135b8:	01012903          	lw	s2,16(sp)
   135bc:	00c12983          	lw	s3,12(sp)
   135c0:	02010113          	addi	sp,sp,32
   135c4:	00008067          	ret
   135c8:	0105a903          	lw	s2,16(a1)
   135cc:	fc090ee3          	beqz	s2,135a8 <__sflush_r+0x124>
   135d0:	0005a483          	lw	s1,0(a1)
   135d4:	00377713          	andi	a4,a4,3
   135d8:	0125a023          	sw	s2,0(a1)
   135dc:	412484b3          	sub	s1,s1,s2
   135e0:	00000793          	li	a5,0
   135e4:	00071463          	bnez	a4,135ec <__sflush_r+0x168>
   135e8:	0145a783          	lw	a5,20(a1)
   135ec:	00f42423          	sw	a5,8(s0)
   135f0:	00904863          	bgtz	s1,13600 <__sflush_r+0x17c>
   135f4:	fb5ff06f          	j	135a8 <__sflush_r+0x124>
   135f8:	00a90933          	add	s2,s2,a0
   135fc:	fa9056e3          	blez	s1,135a8 <__sflush_r+0x124>
   13600:	02442783          	lw	a5,36(s0)
   13604:	01c42583          	lw	a1,28(s0)
   13608:	00048693          	mv	a3,s1
   1360c:	00090613          	mv	a2,s2
   13610:	00098513          	mv	a0,s3
   13614:	000780e7          	jalr	a5
   13618:	40a484b3          	sub	s1,s1,a0
   1361c:	fca04ee3          	bgtz	a0,135f8 <__sflush_r+0x174>
   13620:	00c45783          	lhu	a5,12(s0)
   13624:	fff00513          	li	a0,-1
   13628:	0407e793          	ori	a5,a5,64
   1362c:	00f41623          	sh	a5,12(s0)
   13630:	01c12083          	lw	ra,28(sp)
   13634:	01812403          	lw	s0,24(sp)
   13638:	01412483          	lw	s1,20(sp)
   1363c:	01012903          	lw	s2,16(sp)
   13640:	00c12983          	lw	s3,12(sp)
   13644:	02010113          	addi	sp,sp,32
   13648:	00008067          	ret
   1364c:	03c5a703          	lw	a4,60(a1)
   13650:	e8e040e3          	bgtz	a4,134d0 <__sflush_r+0x4c>
   13654:	f55ff06f          	j	135a8 <__sflush_r+0x124>
   13658:	05042503          	lw	a0,80(s0)
   1365c:	ebdff06f          	j	13518 <__sflush_r+0x94>
   13660:	00c45783          	lhu	a5,12(s0)
   13664:	fffff737          	lui	a4,0xfffff
   13668:	7ff70713          	addi	a4,a4,2047 # fffff7ff <__global_pointer$+0xfffd828f>
   1366c:	00e7f7b3          	and	a5,a5,a4
   13670:	01042683          	lw	a3,16(s0)
   13674:	01079793          	slli	a5,a5,0x10
   13678:	4107d793          	srai	a5,a5,0x10
   1367c:	00f41623          	sh	a5,12(s0)
   13680:	00042223          	sw	zero,4(s0)
   13684:	00d42023          	sw	a3,0(s0)
   13688:	01379713          	slli	a4,a5,0x13
   1368c:	ee075ee3          	bgez	a4,13588 <__sflush_r+0x104>
   13690:	04a42823          	sw	a0,80(s0)
   13694:	ef5ff06f          	j	13588 <__sflush_r+0x104>
   13698:	0009a783          	lw	a5,0(s3)
   1369c:	e60788e3          	beqz	a5,1350c <__sflush_r+0x88>
   136a0:	01d00713          	li	a4,29
   136a4:	02e78863          	beq	a5,a4,136d4 <__sflush_r+0x250>
   136a8:	01600713          	li	a4,22
   136ac:	02e78463          	beq	a5,a4,136d4 <__sflush_r+0x250>
   136b0:	00c45783          	lhu	a5,12(s0)
   136b4:	0407e793          	ori	a5,a5,64
   136b8:	00f41623          	sh	a5,12(s0)
   136bc:	ef1ff06f          	j	135ac <__sflush_r+0x128>
   136c0:	fffff737          	lui	a4,0xfffff
   136c4:	7ff70713          	addi	a4,a4,2047 # fffff7ff <__global_pointer$+0xfffd828f>
   136c8:	01042683          	lw	a3,16(s0)
   136cc:	00e7f7b3          	and	a5,a5,a4
   136d0:	fadff06f          	j	1367c <__sflush_r+0x1f8>
   136d4:	0099a023          	sw	s1,0(s3)
   136d8:	00000513          	li	a0,0
   136dc:	ed1ff06f          	j	135ac <__sflush_r+0x128>

000136e0 <_fflush_r>:
   136e0:	fe010113          	addi	sp,sp,-32
   136e4:	00812c23          	sw	s0,24(sp)
   136e8:	00112e23          	sw	ra,28(sp)
   136ec:	00050413          	mv	s0,a0
   136f0:	00050663          	beqz	a0,136fc <_fflush_r+0x1c>
   136f4:	03852783          	lw	a5,56(a0)
   136f8:	02078063          	beqz	a5,13718 <_fflush_r+0x38>
   136fc:	00c59783          	lh	a5,12(a1)
   13700:	02079663          	bnez	a5,1372c <_fflush_r+0x4c>
   13704:	01c12083          	lw	ra,28(sp)
   13708:	01812403          	lw	s0,24(sp)
   1370c:	00000513          	li	a0,0
   13710:	02010113          	addi	sp,sp,32
   13714:	00008067          	ret
   13718:	00b12623          	sw	a1,12(sp)
   1371c:	37c000ef          	jal	ra,13a98 <__sinit>
   13720:	00c12583          	lw	a1,12(sp)
   13724:	00c59783          	lh	a5,12(a1)
   13728:	fc078ee3          	beqz	a5,13704 <_fflush_r+0x24>
   1372c:	00040513          	mv	a0,s0
   13730:	01812403          	lw	s0,24(sp)
   13734:	01c12083          	lw	ra,28(sp)
   13738:	02010113          	addi	sp,sp,32
   1373c:	d49ff06f          	j	13484 <__sflush_r>

00013740 <fflush>:
   13740:	00050593          	mv	a1,a0
   13744:	00050863          	beqz	a0,13754 <fflush+0x14>
   13748:	81c18793          	addi	a5,gp,-2020 # 26d8c <_impure_ptr>
   1374c:	0007a503          	lw	a0,0(a5)
   13750:	f91ff06f          	j	136e0 <_fflush_r>
   13754:	81818793          	addi	a5,gp,-2024 # 26d88 <_global_impure_ptr>
   13758:	0007a503          	lw	a0,0(a5)
   1375c:	00000597          	auipc	a1,0x0
   13760:	f8458593          	addi	a1,a1,-124 # 136e0 <_fflush_r>
   13764:	0710006f          	j	13fd4 <_fwalk_reent>

00013768 <__fp_lock>:
   13768:	00000513          	li	a0,0
   1376c:	00008067          	ret

00013770 <_cleanup_r>:
   13770:	0000a597          	auipc	a1,0xa
   13774:	92858593          	addi	a1,a1,-1752 # 1d098 <_fclose_r>
   13778:	05d0006f          	j	13fd4 <_fwalk_reent>

0001377c <__sinit.part.0>:
   1377c:	fe010113          	addi	sp,sp,-32
   13780:	00112e23          	sw	ra,28(sp)
   13784:	00812c23          	sw	s0,24(sp)
   13788:	00912a23          	sw	s1,20(sp)
   1378c:	01212823          	sw	s2,16(sp)
   13790:	01312623          	sw	s3,12(sp)
   13794:	01412423          	sw	s4,8(sp)
   13798:	01512223          	sw	s5,4(sp)
   1379c:	01612023          	sw	s6,0(sp)
   137a0:	00452403          	lw	s0,4(a0)
   137a4:	00000717          	auipc	a4,0x0
   137a8:	fcc70713          	addi	a4,a4,-52 # 13770 <_cleanup_r>
   137ac:	02e52e23          	sw	a4,60(a0)
   137b0:	2ec50793          	addi	a5,a0,748
   137b4:	00300713          	li	a4,3
   137b8:	2ee52223          	sw	a4,740(a0)
   137bc:	2ef52423          	sw	a5,744(a0)
   137c0:	2e052023          	sw	zero,736(a0)
   137c4:	00400793          	li	a5,4
   137c8:	00050913          	mv	s2,a0
   137cc:	00f42623          	sw	a5,12(s0)
   137d0:	00800613          	li	a2,8
   137d4:	00000593          	li	a1,0
   137d8:	06042223          	sw	zero,100(s0)
   137dc:	00042023          	sw	zero,0(s0)
   137e0:	00042223          	sw	zero,4(s0)
   137e4:	00042423          	sw	zero,8(s0)
   137e8:	00042823          	sw	zero,16(s0)
   137ec:	00042a23          	sw	zero,20(s0)
   137f0:	00042c23          	sw	zero,24(s0)
   137f4:	05c40513          	addi	a0,s0,92
   137f8:	c35fc0ef          	jal	ra,1042c <memset>
   137fc:	00892483          	lw	s1,8(s2)
   13800:	00005b17          	auipc	s6,0x5
   13804:	2b4b0b13          	addi	s6,s6,692 # 18ab4 <__sread>
   13808:	00005a97          	auipc	s5,0x5
   1380c:	310a8a93          	addi	s5,s5,784 # 18b18 <__swrite>
   13810:	00005a17          	auipc	s4,0x5
   13814:	390a0a13          	addi	s4,s4,912 # 18ba0 <__sseek>
   13818:	00005997          	auipc	s3,0x5
   1381c:	3f098993          	addi	s3,s3,1008 # 18c08 <__sclose>
   13820:	000107b7          	lui	a5,0x10
   13824:	03642023          	sw	s6,32(s0)
   13828:	03542223          	sw	s5,36(s0)
   1382c:	03442423          	sw	s4,40(s0)
   13830:	03342623          	sw	s3,44(s0)
   13834:	00842e23          	sw	s0,28(s0)
   13838:	00978793          	addi	a5,a5,9 # 10009 <_start+0x9>
   1383c:	00f4a623          	sw	a5,12(s1)
   13840:	00800613          	li	a2,8
   13844:	00000593          	li	a1,0
   13848:	0604a223          	sw	zero,100(s1)
   1384c:	0004a023          	sw	zero,0(s1)
   13850:	0004a223          	sw	zero,4(s1)
   13854:	0004a423          	sw	zero,8(s1)
   13858:	0004a823          	sw	zero,16(s1)
   1385c:	0004aa23          	sw	zero,20(s1)
   13860:	0004ac23          	sw	zero,24(s1)
   13864:	05c48513          	addi	a0,s1,92
   13868:	bc5fc0ef          	jal	ra,1042c <memset>
   1386c:	00c92403          	lw	s0,12(s2)
   13870:	000207b7          	lui	a5,0x20
   13874:	0364a023          	sw	s6,32(s1)
   13878:	0354a223          	sw	s5,36(s1)
   1387c:	0344a423          	sw	s4,40(s1)
   13880:	0334a623          	sw	s3,44(s1)
   13884:	0094ae23          	sw	s1,28(s1)
   13888:	01278793          	addi	a5,a5,18 # 20012 <__umoddi3+0x322>
   1388c:	00f42623          	sw	a5,12(s0)
   13890:	06042223          	sw	zero,100(s0)
   13894:	00042023          	sw	zero,0(s0)
   13898:	00042223          	sw	zero,4(s0)
   1389c:	00042423          	sw	zero,8(s0)
   138a0:	00042823          	sw	zero,16(s0)
   138a4:	00042a23          	sw	zero,20(s0)
   138a8:	00042c23          	sw	zero,24(s0)
   138ac:	05c40513          	addi	a0,s0,92
   138b0:	00800613          	li	a2,8
   138b4:	00000593          	li	a1,0
   138b8:	b75fc0ef          	jal	ra,1042c <memset>
   138bc:	01c12083          	lw	ra,28(sp)
   138c0:	03642023          	sw	s6,32(s0)
   138c4:	03542223          	sw	s5,36(s0)
   138c8:	03442423          	sw	s4,40(s0)
   138cc:	03342623          	sw	s3,44(s0)
   138d0:	00842e23          	sw	s0,28(s0)
   138d4:	01812403          	lw	s0,24(sp)
   138d8:	00100793          	li	a5,1
   138dc:	02f92c23          	sw	a5,56(s2)
   138e0:	01412483          	lw	s1,20(sp)
   138e4:	01012903          	lw	s2,16(sp)
   138e8:	00c12983          	lw	s3,12(sp)
   138ec:	00812a03          	lw	s4,8(sp)
   138f0:	00412a83          	lw	s5,4(sp)
   138f4:	00012b03          	lw	s6,0(sp)
   138f8:	02010113          	addi	sp,sp,32
   138fc:	00008067          	ret

00013900 <__fp_unlock>:
   13900:	00000513          	li	a0,0
   13904:	00008067          	ret

00013908 <__sfmoreglue>:
   13908:	ff010113          	addi	sp,sp,-16
   1390c:	fff58613          	addi	a2,a1,-1
   13910:	00812423          	sw	s0,8(sp)
   13914:	00161413          	slli	s0,a2,0x1
   13918:	00c40433          	add	s0,s0,a2
   1391c:	00241413          	slli	s0,s0,0x2
   13920:	00c40433          	add	s0,s0,a2
   13924:	00341413          	slli	s0,s0,0x3
   13928:	01212023          	sw	s2,0(sp)
   1392c:	00058913          	mv	s2,a1
   13930:	07440593          	addi	a1,s0,116
   13934:	00912223          	sw	s1,4(sp)
   13938:	00112623          	sw	ra,12(sp)
   1393c:	578030ef          	jal	ra,16eb4 <_malloc_r>
   13940:	00050493          	mv	s1,a0
   13944:	02050063          	beqz	a0,13964 <__sfmoreglue+0x5c>
   13948:	00c50513          	addi	a0,a0,12
   1394c:	0004a023          	sw	zero,0(s1)
   13950:	0124a223          	sw	s2,4(s1)
   13954:	00a4a423          	sw	a0,8(s1)
   13958:	06840613          	addi	a2,s0,104
   1395c:	00000593          	li	a1,0
   13960:	acdfc0ef          	jal	ra,1042c <memset>
   13964:	00c12083          	lw	ra,12(sp)
   13968:	00812403          	lw	s0,8(sp)
   1396c:	00048513          	mv	a0,s1
   13970:	00012903          	lw	s2,0(sp)
   13974:	00412483          	lw	s1,4(sp)
   13978:	01010113          	addi	sp,sp,16
   1397c:	00008067          	ret

00013980 <__sfp>:
   13980:	fe010113          	addi	sp,sp,-32
   13984:	81818793          	addi	a5,gp,-2024 # 26d88 <_global_impure_ptr>
   13988:	01212823          	sw	s2,16(sp)
   1398c:	0007a903          	lw	s2,0(a5)
   13990:	01312623          	sw	s3,12(sp)
   13994:	00112e23          	sw	ra,28(sp)
   13998:	03892783          	lw	a5,56(s2)
   1399c:	00812c23          	sw	s0,24(sp)
   139a0:	00912a23          	sw	s1,20(sp)
   139a4:	00050993          	mv	s3,a0
   139a8:	0a078663          	beqz	a5,13a54 <__sfp+0xd4>
   139ac:	2e090913          	addi	s2,s2,736
   139b0:	fff00493          	li	s1,-1
   139b4:	00492783          	lw	a5,4(s2)
   139b8:	00892403          	lw	s0,8(s2)
   139bc:	fff78793          	addi	a5,a5,-1
   139c0:	0007da63          	bgez	a5,139d4 <__sfp+0x54>
   139c4:	0800006f          	j	13a44 <__sfp+0xc4>
   139c8:	fff78793          	addi	a5,a5,-1
   139cc:	06840413          	addi	s0,s0,104
   139d0:	06978a63          	beq	a5,s1,13a44 <__sfp+0xc4>
   139d4:	00c41703          	lh	a4,12(s0)
   139d8:	fe0718e3          	bnez	a4,139c8 <__sfp+0x48>
   139dc:	ffff07b7          	lui	a5,0xffff0
   139e0:	00178793          	addi	a5,a5,1 # ffff0001 <__global_pointer$+0xfffc8a91>
   139e4:	06042223          	sw	zero,100(s0)
   139e8:	00042023          	sw	zero,0(s0)
   139ec:	00042223          	sw	zero,4(s0)
   139f0:	00042423          	sw	zero,8(s0)
   139f4:	00f42623          	sw	a5,12(s0)
   139f8:	00042823          	sw	zero,16(s0)
   139fc:	00042a23          	sw	zero,20(s0)
   13a00:	00042c23          	sw	zero,24(s0)
   13a04:	00800613          	li	a2,8
   13a08:	00000593          	li	a1,0
   13a0c:	05c40513          	addi	a0,s0,92
   13a10:	a1dfc0ef          	jal	ra,1042c <memset>
   13a14:	02042823          	sw	zero,48(s0)
   13a18:	02042a23          	sw	zero,52(s0)
   13a1c:	04042223          	sw	zero,68(s0)
   13a20:	04042423          	sw	zero,72(s0)
   13a24:	00040513          	mv	a0,s0
   13a28:	01c12083          	lw	ra,28(sp)
   13a2c:	01812403          	lw	s0,24(sp)
   13a30:	01412483          	lw	s1,20(sp)
   13a34:	01012903          	lw	s2,16(sp)
   13a38:	00c12983          	lw	s3,12(sp)
   13a3c:	02010113          	addi	sp,sp,32
   13a40:	00008067          	ret
   13a44:	00092403          	lw	s0,0(s2)
   13a48:	00040c63          	beqz	s0,13a60 <__sfp+0xe0>
   13a4c:	00040913          	mv	s2,s0
   13a50:	f65ff06f          	j	139b4 <__sfp+0x34>
   13a54:	00090513          	mv	a0,s2
   13a58:	d25ff0ef          	jal	ra,1377c <__sinit.part.0>
   13a5c:	f51ff06f          	j	139ac <__sfp+0x2c>
   13a60:	00400593          	li	a1,4
   13a64:	00098513          	mv	a0,s3
   13a68:	ea1ff0ef          	jal	ra,13908 <__sfmoreglue>
   13a6c:	00a92023          	sw	a0,0(s2)
   13a70:	00050413          	mv	s0,a0
   13a74:	fc051ce3          	bnez	a0,13a4c <__sfp+0xcc>
   13a78:	00c00793          	li	a5,12
   13a7c:	00f9a023          	sw	a5,0(s3)
   13a80:	fa5ff06f          	j	13a24 <__sfp+0xa4>

00013a84 <_cleanup>:
   13a84:	81818793          	addi	a5,gp,-2024 # 26d88 <_global_impure_ptr>
   13a88:	0007a503          	lw	a0,0(a5)
   13a8c:	00009597          	auipc	a1,0x9
   13a90:	60c58593          	addi	a1,a1,1548 # 1d098 <_fclose_r>
   13a94:	5400006f          	j	13fd4 <_fwalk_reent>

00013a98 <__sinit>:
   13a98:	03852783          	lw	a5,56(a0)
   13a9c:	00078463          	beqz	a5,13aa4 <__sinit+0xc>
   13aa0:	00008067          	ret
   13aa4:	cd9ff06f          	j	1377c <__sinit.part.0>

00013aa8 <__sfp_lock_acquire>:
   13aa8:	00008067          	ret

00013aac <__sfp_lock_release>:
   13aac:	00008067          	ret

00013ab0 <__sinit_lock_acquire>:
   13ab0:	00008067          	ret

00013ab4 <__sinit_lock_release>:
   13ab4:	00008067          	ret

00013ab8 <__fp_lock_all>:
   13ab8:	81c18793          	addi	a5,gp,-2020 # 26d8c <_impure_ptr>
   13abc:	0007a503          	lw	a0,0(a5)
   13ac0:	00000597          	auipc	a1,0x0
   13ac4:	ca858593          	addi	a1,a1,-856 # 13768 <__fp_lock>
   13ac8:	45c0006f          	j	13f24 <_fwalk>

00013acc <__fp_unlock_all>:
   13acc:	81c18793          	addi	a5,gp,-2020 # 26d8c <_impure_ptr>
   13ad0:	0007a503          	lw	a0,0(a5)
   13ad4:	00000597          	auipc	a1,0x0
   13ad8:	e2c58593          	addi	a1,a1,-468 # 13900 <__fp_unlock>
   13adc:	4480006f          	j	13f24 <_fwalk>

00013ae0 <_malloc_trim_r>:
   13ae0:	fe010113          	addi	sp,sp,-32
   13ae4:	00812c23          	sw	s0,24(sp)
   13ae8:	00912a23          	sw	s1,20(sp)
   13aec:	01212823          	sw	s2,16(sp)
   13af0:	01312623          	sw	s3,12(sp)
   13af4:	00058413          	mv	s0,a1
   13af8:	00112e23          	sw	ra,28(sp)
   13afc:	00013997          	auipc	s3,0x13
   13b00:	e6898993          	addi	s3,s3,-408 # 26964 <__malloc_av_>
   13b04:	00050913          	mv	s2,a0
   13b08:	509030ef          	jal	ra,17810 <__malloc_lock>
   13b0c:	0089a683          	lw	a3,8(s3)
   13b10:	00001737          	lui	a4,0x1
   13b14:	fef70793          	addi	a5,a4,-17 # fef <_start-0xf011>
   13b18:	0046a483          	lw	s1,4(a3)
   13b1c:	40878433          	sub	s0,a5,s0
   13b20:	ffc4f493          	andi	s1,s1,-4
   13b24:	00940433          	add	s0,s0,s1
   13b28:	00c45413          	srli	s0,s0,0xc
   13b2c:	fff40413          	addi	s0,s0,-1
   13b30:	00c41413          	slli	s0,s0,0xc
   13b34:	00e44e63          	blt	s0,a4,13b50 <_malloc_trim_r+0x70>
   13b38:	00000593          	li	a1,0
   13b3c:	00090513          	mv	a0,s2
   13b40:	589040ef          	jal	ra,188c8 <_sbrk_r>
   13b44:	0089a783          	lw	a5,8(s3)
   13b48:	009787b3          	add	a5,a5,s1
   13b4c:	02f50663          	beq	a0,a5,13b78 <_malloc_trim_r+0x98>
   13b50:	00090513          	mv	a0,s2
   13b54:	4c1030ef          	jal	ra,17814 <__malloc_unlock>
   13b58:	01c12083          	lw	ra,28(sp)
   13b5c:	01812403          	lw	s0,24(sp)
   13b60:	01412483          	lw	s1,20(sp)
   13b64:	01012903          	lw	s2,16(sp)
   13b68:	00c12983          	lw	s3,12(sp)
   13b6c:	00000513          	li	a0,0
   13b70:	02010113          	addi	sp,sp,32
   13b74:	00008067          	ret
   13b78:	408005b3          	neg	a1,s0
   13b7c:	00090513          	mv	a0,s2
   13b80:	549040ef          	jal	ra,188c8 <_sbrk_r>
   13b84:	fff00793          	li	a5,-1
   13b88:	04f50663          	beq	a0,a5,13bd4 <_malloc_trim_r+0xf4>
   13b8c:	85418793          	addi	a5,gp,-1964 # 26dc4 <__malloc_current_mallinfo>
   13b90:	0007a783          	lw	a5,0(a5)
   13b94:	0089a703          	lw	a4,8(s3)
   13b98:	408484b3          	sub	s1,s1,s0
   13b9c:	0014e493          	ori	s1,s1,1
   13ba0:	40878433          	sub	s0,a5,s0
   13ba4:	00090513          	mv	a0,s2
   13ba8:	00972223          	sw	s1,4(a4)
   13bac:	8481aa23          	sw	s0,-1964(gp) # 26dc4 <__malloc_current_mallinfo>
   13bb0:	465030ef          	jal	ra,17814 <__malloc_unlock>
   13bb4:	01c12083          	lw	ra,28(sp)
   13bb8:	01812403          	lw	s0,24(sp)
   13bbc:	01412483          	lw	s1,20(sp)
   13bc0:	01012903          	lw	s2,16(sp)
   13bc4:	00c12983          	lw	s3,12(sp)
   13bc8:	00100513          	li	a0,1
   13bcc:	02010113          	addi	sp,sp,32
   13bd0:	00008067          	ret
   13bd4:	00000593          	li	a1,0
   13bd8:	00090513          	mv	a0,s2
   13bdc:	4ed040ef          	jal	ra,188c8 <_sbrk_r>
   13be0:	0089a703          	lw	a4,8(s3)
   13be4:	00f00693          	li	a3,15
   13be8:	40e507b3          	sub	a5,a0,a4
   13bec:	f6f6d2e3          	bge	a3,a5,13b50 <_malloc_trim_r+0x70>
   13bf0:	82018693          	addi	a3,gp,-2016 # 26d90 <__malloc_sbrk_base>
   13bf4:	0006a683          	lw	a3,0(a3)
   13bf8:	0017e793          	ori	a5,a5,1
   13bfc:	00f72223          	sw	a5,4(a4)
   13c00:	40d50533          	sub	a0,a0,a3
   13c04:	84a1aa23          	sw	a0,-1964(gp) # 26dc4 <__malloc_current_mallinfo>
   13c08:	f49ff06f          	j	13b50 <_malloc_trim_r+0x70>

00013c0c <_free_r>:
   13c0c:	12058e63          	beqz	a1,13d48 <_free_r+0x13c>
   13c10:	ff010113          	addi	sp,sp,-16
   13c14:	00812423          	sw	s0,8(sp)
   13c18:	00912223          	sw	s1,4(sp)
   13c1c:	00058413          	mv	s0,a1
   13c20:	00050493          	mv	s1,a0
   13c24:	00112623          	sw	ra,12(sp)
   13c28:	3e9030ef          	jal	ra,17810 <__malloc_lock>
   13c2c:	ffc42583          	lw	a1,-4(s0)
   13c30:	ff840713          	addi	a4,s0,-8
   13c34:	00013517          	auipc	a0,0x13
   13c38:	d3050513          	addi	a0,a0,-720 # 26964 <__malloc_av_>
   13c3c:	ffe5f793          	andi	a5,a1,-2
   13c40:	00f70633          	add	a2,a4,a5
   13c44:	00462683          	lw	a3,4(a2)
   13c48:	00852803          	lw	a6,8(a0)
   13c4c:	ffc6f693          	andi	a3,a3,-4
   13c50:	1ac80463          	beq	a6,a2,13df8 <_free_r+0x1ec>
   13c54:	00d62223          	sw	a3,4(a2)
   13c58:	0015f593          	andi	a1,a1,1
   13c5c:	00d60833          	add	a6,a2,a3
   13c60:	0a059463          	bnez	a1,13d08 <_free_r+0xfc>
   13c64:	ff842303          	lw	t1,-8(s0)
   13c68:	00482583          	lw	a1,4(a6)
   13c6c:	00013897          	auipc	a7,0x13
   13c70:	d0088893          	addi	a7,a7,-768 # 2696c <__malloc_av_+0x8>
   13c74:	40670733          	sub	a4,a4,t1
   13c78:	00872803          	lw	a6,8(a4)
   13c7c:	006787b3          	add	a5,a5,t1
   13c80:	0015f593          	andi	a1,a1,1
   13c84:	15180463          	beq	a6,a7,13dcc <_free_r+0x1c0>
   13c88:	00c72303          	lw	t1,12(a4)
   13c8c:	00682623          	sw	t1,12(a6)
   13c90:	01032423          	sw	a6,8(t1)
   13c94:	1e058063          	beqz	a1,13e74 <_free_r+0x268>
   13c98:	0017e693          	ori	a3,a5,1
   13c9c:	00d72223          	sw	a3,4(a4)
   13ca0:	00f62023          	sw	a5,0(a2)
   13ca4:	1ff00693          	li	a3,511
   13ca8:	0af6ec63          	bltu	a3,a5,13d60 <_free_r+0x154>
   13cac:	0037d793          	srli	a5,a5,0x3
   13cb0:	00178693          	addi	a3,a5,1
   13cb4:	00369693          	slli	a3,a3,0x3
   13cb8:	00452583          	lw	a1,4(a0)
   13cbc:	00d50533          	add	a0,a0,a3
   13cc0:	00052603          	lw	a2,0(a0)
   13cc4:	4027d693          	srai	a3,a5,0x2
   13cc8:	00100793          	li	a5,1
   13ccc:	00d797b3          	sll	a5,a5,a3
   13cd0:	00b7e7b3          	or	a5,a5,a1
   13cd4:	ff850693          	addi	a3,a0,-8
   13cd8:	00d72623          	sw	a3,12(a4)
   13cdc:	00c72423          	sw	a2,8(a4)
   13ce0:	00013697          	auipc	a3,0x13
   13ce4:	c8f6a423          	sw	a5,-888(a3) # 26968 <__malloc_av_+0x4>
   13ce8:	00e52023          	sw	a4,0(a0)
   13cec:	00e62623          	sw	a4,12(a2)
   13cf0:	00812403          	lw	s0,8(sp)
   13cf4:	00c12083          	lw	ra,12(sp)
   13cf8:	00048513          	mv	a0,s1
   13cfc:	00412483          	lw	s1,4(sp)
   13d00:	01010113          	addi	sp,sp,16
   13d04:	3110306f          	j	17814 <__malloc_unlock>
   13d08:	00482583          	lw	a1,4(a6)
   13d0c:	0015f593          	andi	a1,a1,1
   13d10:	02059e63          	bnez	a1,13d4c <_free_r+0x140>
   13d14:	00d787b3          	add	a5,a5,a3
   13d18:	00013897          	auipc	a7,0x13
   13d1c:	c5488893          	addi	a7,a7,-940 # 2696c <__malloc_av_+0x8>
   13d20:	00862683          	lw	a3,8(a2)
   13d24:	0017e813          	ori	a6,a5,1
   13d28:	00f705b3          	add	a1,a4,a5
   13d2c:	17168063          	beq	a3,a7,13e8c <_free_r+0x280>
   13d30:	00c62603          	lw	a2,12(a2)
   13d34:	00c6a623          	sw	a2,12(a3)
   13d38:	00d62423          	sw	a3,8(a2)
   13d3c:	01072223          	sw	a6,4(a4)
   13d40:	00f5a023          	sw	a5,0(a1)
   13d44:	f61ff06f          	j	13ca4 <_free_r+0x98>
   13d48:	00008067          	ret
   13d4c:	0017e693          	ori	a3,a5,1
   13d50:	fed42e23          	sw	a3,-4(s0)
   13d54:	00f62023          	sw	a5,0(a2)
   13d58:	1ff00693          	li	a3,511
   13d5c:	f4f6f8e3          	bgeu	a3,a5,13cac <_free_r+0xa0>
   13d60:	0097d693          	srli	a3,a5,0x9
   13d64:	00400613          	li	a2,4
   13d68:	0ed66463          	bltu	a2,a3,13e50 <_free_r+0x244>
   13d6c:	0067d693          	srli	a3,a5,0x6
   13d70:	03968593          	addi	a1,a3,57
   13d74:	03868613          	addi	a2,a3,56
   13d78:	00359593          	slli	a1,a1,0x3
   13d7c:	00b505b3          	add	a1,a0,a1
   13d80:	0005a683          	lw	a3,0(a1)
   13d84:	ff858593          	addi	a1,a1,-8
   13d88:	12d58463          	beq	a1,a3,13eb0 <_free_r+0x2a4>
   13d8c:	0046a603          	lw	a2,4(a3)
   13d90:	ffc67613          	andi	a2,a2,-4
   13d94:	00c7f663          	bgeu	a5,a2,13da0 <_free_r+0x194>
   13d98:	0086a683          	lw	a3,8(a3)
   13d9c:	fed598e3          	bne	a1,a3,13d8c <_free_r+0x180>
   13da0:	00c6a583          	lw	a1,12(a3)
   13da4:	00b72623          	sw	a1,12(a4)
   13da8:	00d72423          	sw	a3,8(a4)
   13dac:	00812403          	lw	s0,8(sp)
   13db0:	00e5a423          	sw	a4,8(a1)
   13db4:	00c12083          	lw	ra,12(sp)
   13db8:	00048513          	mv	a0,s1
   13dbc:	00412483          	lw	s1,4(sp)
   13dc0:	00e6a623          	sw	a4,12(a3)
   13dc4:	01010113          	addi	sp,sp,16
   13dc8:	24d0306f          	j	17814 <__malloc_unlock>
   13dcc:	14059463          	bnez	a1,13f14 <_free_r+0x308>
   13dd0:	00862583          	lw	a1,8(a2)
   13dd4:	00c62603          	lw	a2,12(a2)
   13dd8:	00f687b3          	add	a5,a3,a5
   13ddc:	0017e693          	ori	a3,a5,1
   13de0:	00c5a623          	sw	a2,12(a1)
   13de4:	00b62423          	sw	a1,8(a2)
   13de8:	00d72223          	sw	a3,4(a4)
   13dec:	00f70733          	add	a4,a4,a5
   13df0:	00f72023          	sw	a5,0(a4)
   13df4:	efdff06f          	j	13cf0 <_free_r+0xe4>
   13df8:	0015f593          	andi	a1,a1,1
   13dfc:	00d787b3          	add	a5,a5,a3
   13e00:	02059063          	bnez	a1,13e20 <_free_r+0x214>
   13e04:	ff842583          	lw	a1,-8(s0)
   13e08:	40b70733          	sub	a4,a4,a1
   13e0c:	00c72683          	lw	a3,12(a4)
   13e10:	00872603          	lw	a2,8(a4)
   13e14:	00b787b3          	add	a5,a5,a1
   13e18:	00d62623          	sw	a3,12(a2)
   13e1c:	00c6a423          	sw	a2,8(a3)
   13e20:	82418693          	addi	a3,gp,-2012 # 26d94 <__malloc_trim_threshold>
   13e24:	0017e613          	ori	a2,a5,1
   13e28:	0006a683          	lw	a3,0(a3)
   13e2c:	00c72223          	sw	a2,4(a4)
   13e30:	00013617          	auipc	a2,0x13
   13e34:	b2e62e23          	sw	a4,-1220(a2) # 2696c <__malloc_av_+0x8>
   13e38:	ead7ece3          	bltu	a5,a3,13cf0 <_free_r+0xe4>
   13e3c:	83018793          	addi	a5,gp,-2000 # 26da0 <__malloc_top_pad>
   13e40:	0007a583          	lw	a1,0(a5)
   13e44:	00048513          	mv	a0,s1
   13e48:	c99ff0ef          	jal	ra,13ae0 <_malloc_trim_r>
   13e4c:	ea5ff06f          	j	13cf0 <_free_r+0xe4>
   13e50:	01400613          	li	a2,20
   13e54:	02d67463          	bgeu	a2,a3,13e7c <_free_r+0x270>
   13e58:	05400613          	li	a2,84
   13e5c:	06d66a63          	bltu	a2,a3,13ed0 <_free_r+0x2c4>
   13e60:	00c7d693          	srli	a3,a5,0xc
   13e64:	06f68593          	addi	a1,a3,111
   13e68:	06e68613          	addi	a2,a3,110
   13e6c:	00359593          	slli	a1,a1,0x3
   13e70:	f0dff06f          	j	13d7c <_free_r+0x170>
   13e74:	00d787b3          	add	a5,a5,a3
   13e78:	ea9ff06f          	j	13d20 <_free_r+0x114>
   13e7c:	05c68593          	addi	a1,a3,92
   13e80:	05b68613          	addi	a2,a3,91
   13e84:	00359593          	slli	a1,a1,0x3
   13e88:	ef5ff06f          	j	13d7c <_free_r+0x170>
   13e8c:	00013697          	auipc	a3,0x13
   13e90:	aee6a623          	sw	a4,-1300(a3) # 26978 <__malloc_av_+0x14>
   13e94:	00013697          	auipc	a3,0x13
   13e98:	aee6a023          	sw	a4,-1312(a3) # 26974 <__malloc_av_+0x10>
   13e9c:	01172623          	sw	a7,12(a4)
   13ea0:	01172423          	sw	a7,8(a4)
   13ea4:	01072223          	sw	a6,4(a4)
   13ea8:	00f5a023          	sw	a5,0(a1)
   13eac:	e45ff06f          	j	13cf0 <_free_r+0xe4>
   13eb0:	00452503          	lw	a0,4(a0)
   13eb4:	00100793          	li	a5,1
   13eb8:	40265613          	srai	a2,a2,0x2
   13ebc:	00c79633          	sll	a2,a5,a2
   13ec0:	00a66633          	or	a2,a2,a0
   13ec4:	00013797          	auipc	a5,0x13
   13ec8:	aac7a223          	sw	a2,-1372(a5) # 26968 <__malloc_av_+0x4>
   13ecc:	ed9ff06f          	j	13da4 <_free_r+0x198>
   13ed0:	15400613          	li	a2,340
   13ed4:	00d66c63          	bltu	a2,a3,13eec <_free_r+0x2e0>
   13ed8:	00f7d693          	srli	a3,a5,0xf
   13edc:	07868593          	addi	a1,a3,120
   13ee0:	07768613          	addi	a2,a3,119
   13ee4:	00359593          	slli	a1,a1,0x3
   13ee8:	e95ff06f          	j	13d7c <_free_r+0x170>
   13eec:	55400613          	li	a2,1364
   13ef0:	00d66c63          	bltu	a2,a3,13f08 <_free_r+0x2fc>
   13ef4:	0127d693          	srli	a3,a5,0x12
   13ef8:	07d68593          	addi	a1,a3,125
   13efc:	07c68613          	addi	a2,a3,124
   13f00:	00359593          	slli	a1,a1,0x3
   13f04:	e79ff06f          	j	13d7c <_free_r+0x170>
   13f08:	3f800593          	li	a1,1016
   13f0c:	07e00613          	li	a2,126
   13f10:	e6dff06f          	j	13d7c <_free_r+0x170>
   13f14:	0017e693          	ori	a3,a5,1
   13f18:	00d72223          	sw	a3,4(a4)
   13f1c:	00f62023          	sw	a5,0(a2)
   13f20:	dd1ff06f          	j	13cf0 <_free_r+0xe4>

00013f24 <_fwalk>:
   13f24:	fe010113          	addi	sp,sp,-32
   13f28:	01512223          	sw	s5,4(sp)
   13f2c:	00112e23          	sw	ra,28(sp)
   13f30:	00812c23          	sw	s0,24(sp)
   13f34:	00912a23          	sw	s1,20(sp)
   13f38:	01212823          	sw	s2,16(sp)
   13f3c:	01312623          	sw	s3,12(sp)
   13f40:	01412423          	sw	s4,8(sp)
   13f44:	01612023          	sw	s6,0(sp)
   13f48:	2e050a93          	addi	s5,a0,736
   13f4c:	080a8063          	beqz	s5,13fcc <_fwalk+0xa8>
   13f50:	00058b13          	mv	s6,a1
   13f54:	00000a13          	li	s4,0
   13f58:	00100993          	li	s3,1
   13f5c:	fff00913          	li	s2,-1
   13f60:	004aa483          	lw	s1,4(s5)
   13f64:	008aa403          	lw	s0,8(s5)
   13f68:	fff48493          	addi	s1,s1,-1
   13f6c:	0204c663          	bltz	s1,13f98 <_fwalk+0x74>
   13f70:	00c45783          	lhu	a5,12(s0)
   13f74:	fff48493          	addi	s1,s1,-1
   13f78:	00f9fc63          	bgeu	s3,a5,13f90 <_fwalk+0x6c>
   13f7c:	00e41783          	lh	a5,14(s0)
   13f80:	00040513          	mv	a0,s0
   13f84:	01278663          	beq	a5,s2,13f90 <_fwalk+0x6c>
   13f88:	000b00e7          	jalr	s6
   13f8c:	00aa6a33          	or	s4,s4,a0
   13f90:	06840413          	addi	s0,s0,104
   13f94:	fd249ee3          	bne	s1,s2,13f70 <_fwalk+0x4c>
   13f98:	000aaa83          	lw	s5,0(s5)
   13f9c:	fc0a92e3          	bnez	s5,13f60 <_fwalk+0x3c>
   13fa0:	01c12083          	lw	ra,28(sp)
   13fa4:	01812403          	lw	s0,24(sp)
   13fa8:	000a0513          	mv	a0,s4
   13fac:	01412483          	lw	s1,20(sp)
   13fb0:	01012903          	lw	s2,16(sp)
   13fb4:	00c12983          	lw	s3,12(sp)
   13fb8:	00812a03          	lw	s4,8(sp)
   13fbc:	00412a83          	lw	s5,4(sp)
   13fc0:	00012b03          	lw	s6,0(sp)
   13fc4:	02010113          	addi	sp,sp,32
   13fc8:	00008067          	ret
   13fcc:	00000a13          	li	s4,0
   13fd0:	fd1ff06f          	j	13fa0 <_fwalk+0x7c>

00013fd4 <_fwalk_reent>:
   13fd4:	fd010113          	addi	sp,sp,-48
   13fd8:	01512a23          	sw	s5,20(sp)
   13fdc:	02112623          	sw	ra,44(sp)
   13fe0:	02812423          	sw	s0,40(sp)
   13fe4:	02912223          	sw	s1,36(sp)
   13fe8:	03212023          	sw	s2,32(sp)
   13fec:	01312e23          	sw	s3,28(sp)
   13ff0:	01412c23          	sw	s4,24(sp)
   13ff4:	01612823          	sw	s6,16(sp)
   13ff8:	01712623          	sw	s7,12(sp)
   13ffc:	2e050a93          	addi	s5,a0,736
   14000:	080a8663          	beqz	s5,1408c <_fwalk_reent+0xb8>
   14004:	00058b93          	mv	s7,a1
   14008:	00050b13          	mv	s6,a0
   1400c:	00000a13          	li	s4,0
   14010:	00100993          	li	s3,1
   14014:	fff00913          	li	s2,-1
   14018:	004aa483          	lw	s1,4(s5)
   1401c:	008aa403          	lw	s0,8(s5)
   14020:	fff48493          	addi	s1,s1,-1
   14024:	0204c863          	bltz	s1,14054 <_fwalk_reent+0x80>
   14028:	00c45783          	lhu	a5,12(s0)
   1402c:	fff48493          	addi	s1,s1,-1
   14030:	00f9fe63          	bgeu	s3,a5,1404c <_fwalk_reent+0x78>
   14034:	00e41783          	lh	a5,14(s0)
   14038:	00040593          	mv	a1,s0
   1403c:	000b0513          	mv	a0,s6
   14040:	01278663          	beq	a5,s2,1404c <_fwalk_reent+0x78>
   14044:	000b80e7          	jalr	s7
   14048:	00aa6a33          	or	s4,s4,a0
   1404c:	06840413          	addi	s0,s0,104
   14050:	fd249ce3          	bne	s1,s2,14028 <_fwalk_reent+0x54>
   14054:	000aaa83          	lw	s5,0(s5)
   14058:	fc0a90e3          	bnez	s5,14018 <_fwalk_reent+0x44>
   1405c:	02c12083          	lw	ra,44(sp)
   14060:	02812403          	lw	s0,40(sp)
   14064:	000a0513          	mv	a0,s4
   14068:	02412483          	lw	s1,36(sp)
   1406c:	02012903          	lw	s2,32(sp)
   14070:	01c12983          	lw	s3,28(sp)
   14074:	01812a03          	lw	s4,24(sp)
   14078:	01412a83          	lw	s5,20(sp)
   1407c:	01012b03          	lw	s6,16(sp)
   14080:	00c12b83          	lw	s7,12(sp)
   14084:	03010113          	addi	sp,sp,48
   14088:	00008067          	ret
   1408c:	00000a13          	li	s4,0
   14090:	fcdff06f          	j	1405c <_fwalk_reent+0x88>

00014094 <eshdn1>:
   14094:	00450693          	addi	a3,a0,4
   14098:	00000793          	li	a5,0
   1409c:	01a50513          	addi	a0,a0,26
   140a0:	ffff8837          	lui	a6,0xffff8
   140a4:	01c0006f          	j	140c0 <eshdn1+0x2c>
   140a8:	00179793          	slli	a5,a5,0x1
   140ac:	00e69023          	sh	a4,0(a3)
   140b0:	01079793          	slli	a5,a5,0x10
   140b4:	00268693          	addi	a3,a3,2
   140b8:	0107d793          	srli	a5,a5,0x10
   140bc:	02d50e63          	beq	a0,a3,140f8 <eshdn1+0x64>
   140c0:	0006d703          	lhu	a4,0(a3)
   140c4:	00177613          	andi	a2,a4,1
   140c8:	00060463          	beqz	a2,140d0 <eshdn1+0x3c>
   140cc:	0017e793          	ori	a5,a5,1
   140d0:	00175713          	srli	a4,a4,0x1
   140d4:	0027f613          	andi	a2,a5,2
   140d8:	010765b3          	or	a1,a4,a6
   140dc:	fc0606e3          	beqz	a2,140a8 <eshdn1+0x14>
   140e0:	00179793          	slli	a5,a5,0x1
   140e4:	00b69023          	sh	a1,0(a3)
   140e8:	01079793          	slli	a5,a5,0x10
   140ec:	00268693          	addi	a3,a3,2
   140f0:	0107d793          	srli	a5,a5,0x10
   140f4:	fcd516e3          	bne	a0,a3,140c0 <eshdn1+0x2c>
   140f8:	00008067          	ret

000140fc <eshup1>:
   140fc:	01850693          	addi	a3,a0,24
   14100:	00000713          	li	a4,0
   14104:	00250513          	addi	a0,a0,2
   14108:	01c0006f          	j	14124 <eshup1+0x28>
   1410c:	00171713          	slli	a4,a4,0x1
   14110:	00f69023          	sh	a5,0(a3)
   14114:	01071713          	slli	a4,a4,0x10
   14118:	ffe68693          	addi	a3,a3,-2
   1411c:	01075713          	srli	a4,a4,0x10
   14120:	04d50463          	beq	a0,a3,14168 <eshup1+0x6c>
   14124:	0006d783          	lhu	a5,0(a3)
   14128:	01079613          	slli	a2,a5,0x10
   1412c:	41065613          	srai	a2,a2,0x10
   14130:	00179793          	slli	a5,a5,0x1
   14134:	00065463          	bgez	a2,1413c <eshup1+0x40>
   14138:	00176713          	ori	a4,a4,1
   1413c:	01079793          	slli	a5,a5,0x10
   14140:	0107d793          	srli	a5,a5,0x10
   14144:	00277613          	andi	a2,a4,2
   14148:	0017e593          	ori	a1,a5,1
   1414c:	fc0600e3          	beqz	a2,1410c <eshup1+0x10>
   14150:	00171713          	slli	a4,a4,0x1
   14154:	00b69023          	sh	a1,0(a3)
   14158:	01071713          	slli	a4,a4,0x10
   1415c:	ffe68693          	addi	a3,a3,-2
   14160:	01075713          	srli	a4,a4,0x10
   14164:	fcd510e3          	bne	a0,a3,14124 <eshup1+0x28>
   14168:	00008067          	ret

0001416c <m16m>:
   1416c:	fc010113          	addi	sp,sp,-64
   14170:	03412423          	sw	s4,40(sp)
   14174:	00010a37          	lui	s4,0x10
   14178:	02812c23          	sw	s0,56(sp)
   1417c:	02912a23          	sw	s1,52(sp)
   14180:	03212823          	sw	s2,48(sp)
   14184:	03312623          	sw	s3,44(sp)
   14188:	03512223          	sw	s5,36(sp)
   1418c:	02112e23          	sw	ra,60(sp)
   14190:	00050a93          	mv	s5,a0
   14194:	00060493          	mv	s1,a2
   14198:	00011d23          	sh	zero,26(sp)
   1419c:	00011e23          	sh	zero,28(sp)
   141a0:	01858913          	addi	s2,a1,24
   141a4:	01c10413          	addi	s0,sp,28
   141a8:	00810993          	addi	s3,sp,8
   141ac:	fffa0a13          	addi	s4,s4,-1 # ffff <_start-0x1>
   141b0:	00095783          	lhu	a5,0(s2)
   141b4:	000a8593          	mv	a1,s5
   141b8:	ffe40413          	addi	s0,s0,-2
   141bc:	ffe90913          	addi	s2,s2,-2
   141c0:	00078513          	mv	a0,a5
   141c4:	04079663          	bnez	a5,14210 <m16m+0xa4>
   141c8:	fe041f23          	sh	zero,-2(s0)
   141cc:	ff3412e3          	bne	s0,s3,141b0 <m16m+0x44>
   141d0:	00448613          	addi	a2,s1,4
   141d4:	01e10713          	addi	a4,sp,30
   141d8:	00045783          	lhu	a5,0(s0)
   141dc:	00260613          	addi	a2,a2,2
   141e0:	00240413          	addi	s0,s0,2
   141e4:	fef61f23          	sh	a5,-2(a2)
   141e8:	fee418e3          	bne	s0,a4,141d8 <m16m+0x6c>
   141ec:	03c12083          	lw	ra,60(sp)
   141f0:	03812403          	lw	s0,56(sp)
   141f4:	03412483          	lw	s1,52(sp)
   141f8:	03012903          	lw	s2,48(sp)
   141fc:	02c12983          	lw	s3,44(sp)
   14200:	02812a03          	lw	s4,40(sp)
   14204:	02412a83          	lw	s5,36(sp)
   14208:	04010113          	addi	sp,sp,64
   1420c:	00008067          	ret
   14210:	284100ef          	jal	ra,24494 <__mulsi3>
   14214:	00245703          	lhu	a4,2(s0)
   14218:	00045683          	lhu	a3,0(s0)
   1421c:	014577b3          	and	a5,a0,s4
   14220:	00e787b3          	add	a5,a5,a4
   14224:	01055513          	srli	a0,a0,0x10
   14228:	0107d713          	srli	a4,a5,0x10
   1422c:	00d50533          	add	a0,a0,a3
   14230:	00e50533          	add	a0,a0,a4
   14234:	01055713          	srli	a4,a0,0x10
   14238:	00f41123          	sh	a5,2(s0)
   1423c:	00a41023          	sh	a0,0(s0)
   14240:	fee41f23          	sh	a4,-2(s0)
   14244:	f73416e3          	bne	s0,s3,141b0 <m16m+0x44>
   14248:	f89ff06f          	j	141d0 <m16m+0x64>

0001424c <eisnan.part.0>:
   1424c:	01250713          	addi	a4,a0,18
   14250:	00250513          	addi	a0,a0,2
   14254:	ffe55783          	lhu	a5,-2(a0)
   14258:	00079863          	bnez	a5,14268 <eisnan.part.0+0x1c>
   1425c:	fea71ae3          	bne	a4,a0,14250 <eisnan.part.0+0x4>
   14260:	00000513          	li	a0,0
   14264:	00008067          	ret
   14268:	00100513          	li	a0,1
   1426c:	00008067          	ret

00014270 <eneg>:
   14270:	ff010113          	addi	sp,sp,-16
   14274:	00812423          	sw	s0,8(sp)
   14278:	01255403          	lhu	s0,18(a0)
   1427c:	00912223          	sw	s1,4(sp)
   14280:	00112623          	sw	ra,12(sp)
   14284:	fff44793          	not	a5,s0
   14288:	01179713          	slli	a4,a5,0x11
   1428c:	00050493          	mv	s1,a0
   14290:	00071663          	bnez	a4,1429c <eneg+0x2c>
   14294:	fb9ff0ef          	jal	ra,1424c <eisnan.part.0>
   14298:	00051863          	bnez	a0,142a8 <eneg+0x38>
   1429c:	ffff87b7          	lui	a5,0xffff8
   142a0:	00f44433          	xor	s0,s0,a5
   142a4:	00849923          	sh	s0,18(s1)
   142a8:	00c12083          	lw	ra,12(sp)
   142ac:	00812403          	lw	s0,8(sp)
   142b0:	00412483          	lw	s1,4(sp)
   142b4:	01010113          	addi	sp,sp,16
   142b8:	00008067          	ret

000142bc <eisneg>:
   142bc:	ff010113          	addi	sp,sp,-16
   142c0:	00812423          	sw	s0,8(sp)
   142c4:	01255403          	lhu	s0,18(a0)
   142c8:	00112623          	sw	ra,12(sp)
   142cc:	fff44793          	not	a5,s0
   142d0:	01179713          	slli	a4,a5,0x11
   142d4:	00071863          	bnez	a4,142e4 <eisneg+0x28>
   142d8:	f75ff0ef          	jal	ra,1424c <eisnan.part.0>
   142dc:	00000793          	li	a5,0
   142e0:	00051463          	bnez	a0,142e8 <eisneg+0x2c>
   142e4:	00f45793          	srli	a5,s0,0xf
   142e8:	00c12083          	lw	ra,12(sp)
   142ec:	00812403          	lw	s0,8(sp)
   142f0:	00078513          	mv	a0,a5
   142f4:	01010113          	addi	sp,sp,16
   142f8:	00008067          	ret

000142fc <emovi>:
   142fc:	01255783          	lhu	a5,18(a0)
   14300:	ff010113          	addi	sp,sp,-16
   14304:	00812423          	sw	s0,8(sp)
   14308:	00f7d793          	srli	a5,a5,0xf
   1430c:	00912223          	sw	s1,4(sp)
   14310:	00112623          	sw	ra,12(sp)
   14314:	01212023          	sw	s2,0(sp)
   14318:	40f007b3          	neg	a5,a5
   1431c:	00f59023          	sh	a5,0(a1)
   14320:	01255783          	lhu	a5,18(a0)
   14324:	000086b7          	lui	a3,0x8
   14328:	fff68693          	addi	a3,a3,-1 # 7fff <_start-0x8001>
   1432c:	00f6f7b3          	and	a5,a3,a5
   14330:	00f59123          	sh	a5,2(a1)
   14334:	00050493          	mv	s1,a0
   14338:	01050413          	addi	s0,a0,16
   1433c:	04d78063          	beq	a5,a3,1437c <emovi+0x80>
   14340:	00658793          	addi	a5,a1,6
   14344:	00059223          	sh	zero,4(a1)
   14348:	ffe50513          	addi	a0,a0,-2
   1434c:	ffe40413          	addi	s0,s0,-2
   14350:	00245703          	lhu	a4,2(s0)
   14354:	00278793          	addi	a5,a5,2 # ffff8002 <__global_pointer$+0xfffd0a92>
   14358:	fee79f23          	sh	a4,-2(a5)
   1435c:	fea418e3          	bne	s0,a0,1434c <emovi+0x50>
   14360:	00059c23          	sh	zero,24(a1)
   14364:	00c12083          	lw	ra,12(sp)
   14368:	00812403          	lw	s0,8(sp)
   1436c:	00412483          	lw	s1,4(sp)
   14370:	00012903          	lw	s2,0(sp)
   14374:	01010113          	addi	sp,sp,16
   14378:	00008067          	ret
   1437c:	01255703          	lhu	a4,18(a0)
   14380:	00058913          	mv	s2,a1
   14384:	00e7f733          	and	a4,a5,a4
   14388:	02f71863          	bne	a4,a5,143b8 <emovi+0xbc>
   1438c:	ec1ff0ef          	jal	ra,1424c <eisnan.part.0>
   14390:	02050463          	beqz	a0,143b8 <emovi+0xbc>
   14394:	00690713          	addi	a4,s2,6
   14398:	00091223          	sh	zero,4(s2)
   1439c:	ffc48793          	addi	a5,s1,-4
   143a0:	ffe40413          	addi	s0,s0,-2
   143a4:	00245683          	lhu	a3,2(s0)
   143a8:	00270713          	addi	a4,a4,2
   143ac:	fed71f23          	sh	a3,-2(a4)
   143b0:	fe8798e3          	bne	a5,s0,143a0 <emovi+0xa4>
   143b4:	fb1ff06f          	j	14364 <emovi+0x68>
   143b8:	00490793          	addi	a5,s2,4
   143bc:	01a90593          	addi	a1,s2,26
   143c0:	00278793          	addi	a5,a5,2
   143c4:	fe079f23          	sh	zero,-2(a5)
   143c8:	fef59ce3          	bne	a1,a5,143c0 <emovi+0xc4>
   143cc:	00c12083          	lw	ra,12(sp)
   143d0:	00812403          	lw	s0,8(sp)
   143d4:	00412483          	lw	s1,4(sp)
   143d8:	00012903          	lw	s2,0(sp)
   143dc:	01010113          	addi	sp,sp,16
   143e0:	00008067          	ret

000143e4 <ecmp>:
   143e4:	01255783          	lhu	a5,18(a0)
   143e8:	fb010113          	addi	sp,sp,-80
   143ec:	04812423          	sw	s0,72(sp)
   143f0:	fff7c793          	not	a5,a5
   143f4:	04912223          	sw	s1,68(sp)
   143f8:	04112623          	sw	ra,76(sp)
   143fc:	01179713          	slli	a4,a5,0x11
   14400:	00050493          	mv	s1,a0
   14404:	00058413          	mv	s0,a1
   14408:	00071663          	bnez	a4,14414 <ecmp+0x30>
   1440c:	e41ff0ef          	jal	ra,1424c <eisnan.part.0>
   14410:	08051263          	bnez	a0,14494 <ecmp+0xb0>
   14414:	01245783          	lhu	a5,18(s0)
   14418:	fff7c793          	not	a5,a5
   1441c:	01179713          	slli	a4,a5,0x11
   14420:	06070463          	beqz	a4,14488 <ecmp+0xa4>
   14424:	00810593          	addi	a1,sp,8
   14428:	00048513          	mv	a0,s1
   1442c:	ed1ff0ef          	jal	ra,142fc <emovi>
   14430:	02410593          	addi	a1,sp,36
   14434:	00040513          	mv	a0,s0
   14438:	ec5ff0ef          	jal	ra,142fc <emovi>
   1443c:	00815583          	lhu	a1,8(sp)
   14440:	02415503          	lhu	a0,36(sp)
   14444:	04b50c63          	beq	a0,a1,1449c <ecmp+0xb8>
   14448:	00a10793          	addi	a5,sp,10
   1444c:	02610713          	addi	a4,sp,38
   14450:	02010613          	addi	a2,sp,32
   14454:	0007d683          	lhu	a3,0(a5)
   14458:	00278793          	addi	a5,a5,2
   1445c:	08069a63          	bnez	a3,144f0 <ecmp+0x10c>
   14460:	00075683          	lhu	a3,0(a4)
   14464:	00270713          	addi	a4,a4,2
   14468:	08069463          	bnez	a3,144f0 <ecmp+0x10c>
   1446c:	fec794e3          	bne	a5,a2,14454 <ecmp+0x70>
   14470:	00000513          	li	a0,0
   14474:	04c12083          	lw	ra,76(sp)
   14478:	04812403          	lw	s0,72(sp)
   1447c:	04412483          	lw	s1,68(sp)
   14480:	05010113          	addi	sp,sp,80
   14484:	00008067          	ret
   14488:	00040513          	mv	a0,s0
   1448c:	dc1ff0ef          	jal	ra,1424c <eisnan.part.0>
   14490:	f8050ae3          	beqz	a0,14424 <ecmp+0x40>
   14494:	ffe00513          	li	a0,-2
   14498:	fddff06f          	j	14474 <ecmp+0x90>
   1449c:	00a10713          	addi	a4,sp,10
   144a0:	02610793          	addi	a5,sp,38
   144a4:	00278793          	addi	a5,a5,2
   144a8:	00270713          	addi	a4,a4,2
   144ac:	00153513          	seqz	a0,a0
   144b0:	ffe75603          	lhu	a2,-2(a4)
   144b4:	ffe7d683          	lhu	a3,-2(a5)
   144b8:	40a00533          	neg	a0,a0
   144bc:	00257513          	andi	a0,a0,2
   144c0:	fff50513          	addi	a0,a0,-1
   144c4:	03c10593          	addi	a1,sp,60
   144c8:	00d61e63          	bne	a2,a3,144e4 <ecmp+0x100>
   144cc:	fab782e3          	beq	a5,a1,14470 <ecmp+0x8c>
   144d0:	00278793          	addi	a5,a5,2
   144d4:	00270713          	addi	a4,a4,2
   144d8:	ffe75603          	lhu	a2,-2(a4)
   144dc:	ffe7d683          	lhu	a3,-2(a5)
   144e0:	fed606e3          	beq	a2,a3,144cc <ecmp+0xe8>
   144e4:	f8c6e8e3          	bltu	a3,a2,14474 <ecmp+0x90>
   144e8:	40a00533          	neg	a0,a0
   144ec:	f89ff06f          	j	14474 <ecmp+0x90>
   144f0:	00100513          	li	a0,1
   144f4:	f80580e3          	beqz	a1,14474 <ecmp+0x90>
   144f8:	fff00513          	li	a0,-1
   144fc:	f79ff06f          	j	14474 <ecmp+0x90>

00014500 <eisinf.part.1>:
   14500:	ff010113          	addi	sp,sp,-16
   14504:	00112623          	sw	ra,12(sp)
   14508:	d45ff0ef          	jal	ra,1424c <eisnan.part.0>
   1450c:	00c12083          	lw	ra,12(sp)
   14510:	00153513          	seqz	a0,a0
   14514:	01010113          	addi	sp,sp,16
   14518:	00008067          	ret

0001451c <eshift.part.3>:
   1451c:	ff010113          	addi	sp,sp,-16
   14520:	00812423          	sw	s0,8(sp)
   14524:	01212023          	sw	s2,0(sp)
   14528:	00112623          	sw	ra,12(sp)
   1452c:	00912223          	sw	s1,4(sp)
   14530:	00058913          	mv	s2,a1
   14534:	00050413          	mv	s0,a0
   14538:	0a05c263          	bltz	a1,145dc <eshift.part.3+0xc0>
   1453c:	00f00793          	li	a5,15
   14540:	00058613          	mv	a2,a1
   14544:	00450513          	addi	a0,a0,4
   14548:	01840693          	addi	a3,s0,24
   1454c:	00f00593          	li	a1,15
   14550:	0327d463          	bge	a5,s2,14578 <eshift.part.3+0x5c>
   14554:	00050793          	mv	a5,a0
   14558:	00278793          	addi	a5,a5,2
   1455c:	0007d703          	lhu	a4,0(a5)
   14560:	fee79f23          	sh	a4,-2(a5)
   14564:	fed79ae3          	bne	a5,a3,14558 <eshift.part.3+0x3c>
   14568:	00041c23          	sh	zero,24(s0)
   1456c:	ff060613          	addi	a2,a2,-16
   14570:	fec5c2e3          	blt	a1,a2,14554 <eshift.part.3+0x38>
   14574:	00f97913          	andi	s2,s2,15
   14578:	00700793          	li	a5,7
   1457c:	0327d863          	bge	a5,s2,145ac <eshift.part.3+0x90>
   14580:	01840793          	addi	a5,s0,24
   14584:	00240593          	addi	a1,s0,2
   14588:	00000713          	li	a4,0
   1458c:	0007d683          	lhu	a3,0(a5)
   14590:	ffe78793          	addi	a5,a5,-2
   14594:	00869613          	slli	a2,a3,0x8
   14598:	00c76733          	or	a4,a4,a2
   1459c:	00e79123          	sh	a4,2(a5)
   145a0:	0086d713          	srli	a4,a3,0x8
   145a4:	feb794e3          	bne	a5,a1,1458c <eshift.part.3+0x70>
   145a8:	ff890913          	addi	s2,s2,-8
   145ac:	00090a63          	beqz	s2,145c0 <eshift.part.3+0xa4>
   145b0:	fff90913          	addi	s2,s2,-1
   145b4:	00040513          	mv	a0,s0
   145b8:	b45ff0ef          	jal	ra,140fc <eshup1>
   145bc:	fe091ae3          	bnez	s2,145b0 <eshift.part.3+0x94>
   145c0:	00c12083          	lw	ra,12(sp)
   145c4:	00812403          	lw	s0,8(sp)
   145c8:	00412483          	lw	s1,4(sp)
   145cc:	00012903          	lw	s2,0(sp)
   145d0:	00000513          	li	a0,0
   145d4:	01010113          	addi	sp,sp,16
   145d8:	00008067          	ret
   145dc:	ff100793          	li	a5,-15
   145e0:	40b004b3          	neg	s1,a1
   145e4:	0cf5d463          	bge	a1,a5,146ac <eshift.part.3+0x190>
   145e8:	01850593          	addi	a1,a0,24
   145ec:	00000913          	li	s2,0
   145f0:	00450693          	addi	a3,a0,4
   145f4:	00f00613          	li	a2,15
   145f8:	01845703          	lhu	a4,24(s0)
   145fc:	00058793          	mv	a5,a1
   14600:	00e96933          	or	s2,s2,a4
   14604:	ffe78793          	addi	a5,a5,-2
   14608:	0007d703          	lhu	a4,0(a5)
   1460c:	00e79123          	sh	a4,2(a5)
   14610:	fed79ae3          	bne	a5,a3,14604 <eshift.part.3+0xe8>
   14614:	00041223          	sh	zero,4(s0)
   14618:	ff048493          	addi	s1,s1,-16
   1461c:	fc964ee3          	blt	a2,s1,145f8 <eshift.part.3+0xdc>
   14620:	00700793          	li	a5,7
   14624:	0497d663          	bge	a5,s1,14670 <eshift.part.3+0x154>
   14628:	01091913          	slli	s2,s2,0x10
   1462c:	41095913          	srai	s2,s2,0x10
   14630:	01844783          	lbu	a5,24(s0)
   14634:	01a40593          	addi	a1,s0,26
   14638:	00000713          	li	a4,0
   1463c:	00f96933          	or	s2,s2,a5
   14640:	01091913          	slli	s2,s2,0x10
   14644:	01095913          	srli	s2,s2,0x10
   14648:	0006d783          	lhu	a5,0(a3)
   1464c:	00268693          	addi	a3,a3,2
   14650:	0087d613          	srli	a2,a5,0x8
   14654:	00c76733          	or	a4,a4,a2
   14658:	00879793          	slli	a5,a5,0x8
   1465c:	fee69f23          	sh	a4,-2(a3)
   14660:	01079713          	slli	a4,a5,0x10
   14664:	01075713          	srli	a4,a4,0x10
   14668:	feb690e3          	bne	a3,a1,14648 <eshift.part.3+0x12c>
   1466c:	ff848493          	addi	s1,s1,-8
   14670:	02048063          	beqz	s1,14690 <eshift.part.3+0x174>
   14674:	01845783          	lhu	a5,24(s0)
   14678:	fff48493          	addi	s1,s1,-1
   1467c:	00040513          	mv	a0,s0
   14680:	0017f793          	andi	a5,a5,1
   14684:	0127e933          	or	s2,a5,s2
   14688:	a0dff0ef          	jal	ra,14094 <eshdn1>
   1468c:	fe0494e3          	bnez	s1,14674 <eshift.part.3+0x158>
   14690:	00c12083          	lw	ra,12(sp)
   14694:	00812403          	lw	s0,8(sp)
   14698:	01203533          	snez	a0,s2
   1469c:	00412483          	lw	s1,4(sp)
   146a0:	00012903          	lw	s2,0(sp)
   146a4:	01010113          	addi	sp,sp,16
   146a8:	00008067          	ret
   146ac:	ff900793          	li	a5,-7
   146b0:	00f5c663          	blt	a1,a5,146bc <eshift.part.3+0x1a0>
   146b4:	00000913          	li	s2,0
   146b8:	fbdff06f          	j	14674 <eshift.part.3+0x158>
   146bc:	00000913          	li	s2,0
   146c0:	00440693          	addi	a3,s0,4
   146c4:	f6dff06f          	j	14630 <eshift.part.3+0x114>

000146c8 <enormlz>:
   146c8:	00455783          	lhu	a5,4(a0)
   146cc:	ff010113          	addi	sp,sp,-16
   146d0:	00912223          	sw	s1,4(sp)
   146d4:	00112623          	sw	ra,12(sp)
   146d8:	00812423          	sw	s0,8(sp)
   146dc:	01212023          	sw	s2,0(sp)
   146e0:	00050493          	mv	s1,a0
   146e4:	0c079c63          	bnez	a5,147bc <enormlz+0xf4>
   146e8:	00655703          	lhu	a4,6(a0)
   146ec:	00000413          	li	s0,0
   146f0:	01071793          	slli	a5,a4,0x10
   146f4:	4107d793          	srai	a5,a5,0x10
   146f8:	0a07c463          	bltz	a5,147a0 <enormlz+0xd8>
   146fc:	01a50693          	addi	a3,a0,26
   14700:	0a000613          	li	a2,160
   14704:	02071863          	bnez	a4,14734 <enormlz+0x6c>
   14708:	00648793          	addi	a5,s1,6
   1470c:	0080006f          	j	14714 <enormlz+0x4c>
   14710:	0007d703          	lhu	a4,0(a5)
   14714:	00278793          	addi	a5,a5,2
   14718:	fee79e23          	sh	a4,-4(a5)
   1471c:	fef69ae3          	bne	a3,a5,14710 <enormlz+0x48>
   14720:	00049c23          	sh	zero,24(s1)
   14724:	01040413          	addi	s0,s0,16
   14728:	06c40c63          	beq	s0,a2,147a0 <enormlz+0xd8>
   1472c:	0064d703          	lhu	a4,6(s1)
   14730:	fc070ce3          	beqz	a4,14708 <enormlz+0x40>
   14734:	f0077793          	andi	a5,a4,-256
   14738:	04079063          	bnez	a5,14778 <enormlz+0xb0>
   1473c:	01848513          	addi	a0,s1,24
   14740:	00248593          	addi	a1,s1,2
   14744:	00000713          	li	a4,0
   14748:	00050793          	mv	a5,a0
   1474c:	0007d683          	lhu	a3,0(a5)
   14750:	ffe78793          	addi	a5,a5,-2
   14754:	00869613          	slli	a2,a3,0x8
   14758:	00c76733          	or	a4,a4,a2
   1475c:	00e79123          	sh	a4,2(a5)
   14760:	0086d713          	srli	a4,a3,0x8
   14764:	fef594e3          	bne	a1,a5,1474c <enormlz+0x84>
   14768:	0064d703          	lhu	a4,6(s1)
   1476c:	00840413          	addi	s0,s0,8
   14770:	f0077793          	andi	a5,a4,-256
   14774:	fc0788e3          	beqz	a5,14744 <enormlz+0x7c>
   14778:	0a000913          	li	s2,160
   1477c:	0140006f          	j	14790 <enormlz+0xc8>
   14780:	00140413          	addi	s0,s0,1
   14784:	979ff0ef          	jal	ra,140fc <eshup1>
   14788:	00894c63          	blt	s2,s0,147a0 <enormlz+0xd8>
   1478c:	0064d703          	lhu	a4,6(s1)
   14790:	01071713          	slli	a4,a4,0x10
   14794:	41075713          	srai	a4,a4,0x10
   14798:	00048513          	mv	a0,s1
   1479c:	fe0752e3          	bgez	a4,14780 <enormlz+0xb8>
   147a0:	00040513          	mv	a0,s0
   147a4:	00c12083          	lw	ra,12(sp)
   147a8:	00812403          	lw	s0,8(sp)
   147ac:	00412483          	lw	s1,4(sp)
   147b0:	00012903          	lw	s2,0(sp)
   147b4:	01010113          	addi	sp,sp,16
   147b8:	00008067          	ret
   147bc:	f007f713          	andi	a4,a5,-256
   147c0:	00000413          	li	s0,0
   147c4:	04071063          	bnez	a4,14804 <enormlz+0x13c>
   147c8:	f6f00913          	li	s2,-145
   147cc:	0140006f          	j	147e0 <enormlz+0x118>
   147d0:	fff40413          	addi	s0,s0,-1
   147d4:	8c1ff0ef          	jal	ra,14094 <eshdn1>
   147d8:	fd2404e3          	beq	s0,s2,147a0 <enormlz+0xd8>
   147dc:	0044d783          	lhu	a5,4(s1)
   147e0:	00048513          	mv	a0,s1
   147e4:	fe0796e3          	bnez	a5,147d0 <enormlz+0x108>
   147e8:	00040513          	mv	a0,s0
   147ec:	00c12083          	lw	ra,12(sp)
   147f0:	00812403          	lw	s0,8(sp)
   147f4:	00412483          	lw	s1,4(sp)
   147f8:	00012903          	lw	s2,0(sp)
   147fc:	01010113          	addi	sp,sp,16
   14800:	00008067          	ret
   14804:	00450693          	addi	a3,a0,4
   14808:	01a50593          	addi	a1,a0,26
   1480c:	00000713          	li	a4,0
   14810:	0080006f          	j	14818 <enormlz+0x150>
   14814:	0006d783          	lhu	a5,0(a3)
   14818:	0087d613          	srli	a2,a5,0x8
   1481c:	00c76733          	or	a4,a4,a2
   14820:	00879793          	slli	a5,a5,0x8
   14824:	00e69023          	sh	a4,0(a3)
   14828:	01079713          	slli	a4,a5,0x10
   1482c:	00268693          	addi	a3,a3,2
   14830:	01075713          	srli	a4,a4,0x10
   14834:	feb690e3          	bne	a3,a1,14814 <enormlz+0x14c>
   14838:	0044d783          	lhu	a5,4(s1)
   1483c:	ff800413          	li	s0,-8
   14840:	f89ff06f          	j	147c8 <enormlz+0x100>

00014844 <emdnorm>:
   14844:	fe010113          	addi	sp,sp,-32
   14848:	00812c23          	sw	s0,24(sp)
   1484c:	00912a23          	sw	s1,20(sp)
   14850:	01212823          	sw	s2,16(sp)
   14854:	01312623          	sw	s3,12(sp)
   14858:	01412423          	sw	s4,8(sp)
   1485c:	01512223          	sw	s5,4(sp)
   14860:	00068913          	mv	s2,a3
   14864:	00078493          	mv	s1,a5
   14868:	00112e23          	sw	ra,28(sp)
   1486c:	00050413          	mv	s0,a0
   14870:	00058993          	mv	s3,a1
   14874:	00060a13          	mv	s4,a2
   14878:	00070a93          	mv	s5,a4
   1487c:	e4dff0ef          	jal	ra,146c8 <enormlz>
   14880:	09000793          	li	a5,144
   14884:	40a90933          	sub	s2,s2,a0
   14888:	06a7de63          	bge	a5,a0,14904 <emdnorm+0xc0>
   1488c:	000087b7          	lui	a5,0x8
   14890:	ffe78793          	addi	a5,a5,-2 # 7ffe <_start-0x8002>
   14894:	2127da63          	bge	a5,s2,14aa8 <emdnorm+0x264>
   14898:	1e0a8463          	beqz	s5,14a80 <emdnorm+0x23c>
   1489c:	0044a503          	lw	a0,4(s1)
   148a0:	0004a783          	lw	a5,0(s1)
   148a4:	0ea78a63          	beq	a5,a0,14998 <emdnorm+0x154>
   148a8:	01a48713          	addi	a4,s1,26
   148ac:	03448793          	addi	a5,s1,52
   148b0:	00270713          	addi	a4,a4,2
   148b4:	fe071f23          	sh	zero,-2(a4)
   148b8:	fef71ce3          	bne	a4,a5,148b0 <emdnorm+0x6c>
   148bc:	03800793          	li	a5,56
   148c0:	36f50063          	beq	a0,a5,14c20 <emdnorm+0x3dc>
   148c4:	06a7d263          	bge	a5,a0,14928 <emdnorm+0xe4>
   148c8:	04000793          	li	a5,64
   148cc:	2ef50a63          	beq	a0,a5,14bc0 <emdnorm+0x37c>
   148d0:	07100793          	li	a5,113
   148d4:	30f51c63          	bne	a0,a5,14bec <emdnorm+0x3a8>
   148d8:	400087b7          	lui	a5,0x40008
   148dc:	fff78793          	addi	a5,a5,-1 # 40007fff <__global_pointer$+0x3ffe0a8f>
   148e0:	00a00713          	li	a4,10
   148e4:	00f4aa23          	sw	a5,20(s1)
   148e8:	ffff87b7          	lui	a5,0xffff8
   148ec:	00e4a423          	sw	a4,8(s1)
   148f0:	00f49c23          	sh	a5,24(s1)
   148f4:	00e4a623          	sw	a4,12(s1)
   148f8:	00a00793          	li	a5,10
   148fc:	00008737          	lui	a4,0x8
   14900:	0600006f          	j	14960 <emdnorm+0x11c>
   14904:	1e095263          	bgez	s2,14ae8 <emdnorm+0x2a4>
   14908:	f7000793          	li	a5,-144
   1490c:	1af95a63          	bge	s2,a5,14ac0 <emdnorm+0x27c>
   14910:	00240793          	addi	a5,s0,2
   14914:	01a40413          	addi	s0,s0,26
   14918:	00278793          	addi	a5,a5,2 # ffff8002 <__global_pointer$+0xfffd0a92>
   1491c:	fe079f23          	sh	zero,-2(a5)
   14920:	fe879ce3          	bne	a5,s0,14918 <emdnorm+0xd4>
   14924:	1380006f          	j	14a5c <emdnorm+0x218>
   14928:	01800793          	li	a5,24
   1492c:	26f50463          	beq	a0,a5,14b94 <emdnorm+0x350>
   14930:	03500793          	li	a5,53
   14934:	2af51c63          	bne	a0,a5,14bec <emdnorm+0x3a8>
   14938:	00001737          	lui	a4,0x1
   1493c:	040007b7          	lui	a5,0x4000
   14940:	00600693          	li	a3,6
   14944:	7ff78793          	addi	a5,a5,2047 # 40007ff <__global_pointer$+0x3fd928f>
   14948:	80070713          	addi	a4,a4,-2048 # 800 <_start-0xf800>
   1494c:	00f4aa23          	sw	a5,20(s1)
   14950:	00d4a423          	sw	a3,8(s1)
   14954:	00e49c23          	sh	a4,24(s1)
   14958:	00d4a623          	sw	a3,12(s1)
   1495c:	00600793          	li	a5,6
   14960:	00878793          	addi	a5,a5,8
   14964:	00179793          	slli	a5,a5,0x1
   14968:	00f487b3          	add	a5,s1,a5
   1496c:	00e79523          	sh	a4,10(a5)
   14970:	00a4a023          	sw	a0,0(s1)
   14974:	03204263          	bgtz	s2,14998 <emdnorm+0x154>
   14978:	09000793          	li	a5,144
   1497c:	1ef50863          	beq	a0,a5,14b6c <emdnorm+0x328>
   14980:	01845783          	lhu	a5,24(s0)
   14984:	00040513          	mv	a0,s0
   14988:	0017f793          	andi	a5,a5,1
   1498c:	00f9e9b3          	or	s3,s3,a5
   14990:	f04ff0ef          	jal	ra,14094 <eshdn1>
   14994:	0044a503          	lw	a0,4(s1)
   14998:	0084a583          	lw	a1,8(s1)
   1499c:	0144d783          	lhu	a5,20(s1)
   149a0:	08f00813          	li	a6,143
   149a4:	00159613          	slli	a2,a1,0x1
   149a8:	00c40633          	add	a2,s0,a2
   149ac:	00065703          	lhu	a4,0(a2)
   149b0:	00f776b3          	and	a3,a4,a5
   149b4:	02a84a63          	blt	a6,a0,149e8 <emdnorm+0x1a4>
   149b8:	00b00813          	li	a6,11
   149bc:	02b84663          	blt	a6,a1,149e8 <emdnorm+0x1a4>
   149c0:	00060713          	mv	a4,a2
   149c4:	01840593          	addi	a1,s0,24
   149c8:	00275783          	lhu	a5,2(a4)
   149cc:	00078463          	beqz	a5,149d4 <emdnorm+0x190>
   149d0:	0016e693          	ori	a3,a3,1
   149d4:	00071123          	sh	zero,2(a4)
   149d8:	00270713          	addi	a4,a4,2
   149dc:	fee596e3          	bne	a1,a4,149c8 <emdnorm+0x184>
   149e0:	00065703          	lhu	a4,0(a2)
   149e4:	0144d783          	lhu	a5,20(s1)
   149e8:	fff7c793          	not	a5,a5
   149ec:	00e7f7b3          	and	a5,a5,a4
   149f0:	00f61023          	sh	a5,0(a2)
   149f4:	0164d783          	lhu	a5,22(s1)
   149f8:	00d7f733          	and	a4,a5,a3
   149fc:	04070063          	beqz	a4,14a3c <emdnorm+0x1f8>
   14a00:	12d78263          	beq	a5,a3,14b24 <emdnorm+0x2e0>
   14a04:	03248613          	addi	a2,s1,50
   14a08:	01840713          	addi	a4,s0,24
   14a0c:	01c48493          	addi	s1,s1,28
   14a10:	00000693          	li	a3,0
   14a14:	00065783          	lhu	a5,0(a2)
   14a18:	00075583          	lhu	a1,0(a4)
   14a1c:	ffe70713          	addi	a4,a4,-2
   14a20:	ffe60613          	addi	a2,a2,-2
   14a24:	00b787b3          	add	a5,a5,a1
   14a28:	00d787b3          	add	a5,a5,a3
   14a2c:	00f71123          	sh	a5,2(a4)
   14a30:	0107d793          	srli	a5,a5,0x10
   14a34:	0017f693          	andi	a3,a5,1
   14a38:	fc961ee3          	bne	a2,s1,14a14 <emdnorm+0x1d0>
   14a3c:	11205663          	blez	s2,14b48 <emdnorm+0x304>
   14a40:	00445783          	lhu	a5,4(s0)
   14a44:	0a079c63          	bnez	a5,14afc <emdnorm+0x2b8>
   14a48:	000087b7          	lui	a5,0x8
   14a4c:	00041c23          	sh	zero,24(s0)
   14a50:	ffe78793          	addi	a5,a5,-2 # 7ffe <_start-0x8002>
   14a54:	0327c863          	blt	a5,s2,14a84 <emdnorm+0x240>
   14a58:	01241123          	sh	s2,2(s0)
   14a5c:	01c12083          	lw	ra,28(sp)
   14a60:	01812403          	lw	s0,24(sp)
   14a64:	01412483          	lw	s1,20(sp)
   14a68:	01012903          	lw	s2,16(sp)
   14a6c:	00c12983          	lw	s3,12(sp)
   14a70:	00812a03          	lw	s4,8(sp)
   14a74:	00412a83          	lw	s5,4(sp)
   14a78:	02010113          	addi	sp,sp,32
   14a7c:	00008067          	ret
   14a80:	00041c23          	sh	zero,24(s0)
   14a84:	ffff87b7          	lui	a5,0xffff8
   14a88:	fff7c793          	not	a5,a5
   14a8c:	00f41123          	sh	a5,2(s0)
   14a90:	00440793          	addi	a5,s0,4
   14a94:	01840413          	addi	s0,s0,24
   14a98:	00079023          	sh	zero,0(a5) # ffff8000 <__global_pointer$+0xfffd0a90>
   14a9c:	00278793          	addi	a5,a5,2
   14aa0:	fef41ce3          	bne	s0,a5,14a98 <emdnorm+0x254>
   14aa4:	fb9ff06f          	j	14a5c <emdnorm+0x218>
   14aa8:	00240793          	addi	a5,s0,2
   14aac:	01a40413          	addi	s0,s0,26
   14ab0:	00278793          	addi	a5,a5,2
   14ab4:	fe079f23          	sh	zero,-2(a5)
   14ab8:	fe879ce3          	bne	a5,s0,14ab0 <emdnorm+0x26c>
   14abc:	fa1ff06f          	j	14a5c <emdnorm+0x218>
   14ac0:	00090593          	mv	a1,s2
   14ac4:	00040513          	mv	a0,s0
   14ac8:	a55ff0ef          	jal	ra,1451c <eshift.part.3>
   14acc:	00050463          	beqz	a0,14ad4 <emdnorm+0x290>
   14ad0:	00100993          	li	s3,1
   14ad4:	0a0a8a63          	beqz	s5,14b88 <emdnorm+0x344>
   14ad8:	0044a503          	lw	a0,4(s1)
   14adc:	0004a783          	lw	a5,0(s1)
   14ae0:	dca794e3          	bne	a5,a0,148a8 <emdnorm+0x64>
   14ae4:	e95ff06f          	j	14978 <emdnorm+0x134>
   14ae8:	f60a80e3          	beqz	s5,14a48 <emdnorm+0x204>
   14aec:	0044a503          	lw	a0,4(s1)
   14af0:	0004a783          	lw	a5,0(s1)
   14af4:	daf51ae3          	bne	a0,a5,148a8 <emdnorm+0x64>
   14af8:	e7dff06f          	j	14974 <emdnorm+0x130>
   14afc:	00040513          	mv	a0,s0
   14b00:	d94ff0ef          	jal	ra,14094 <eshdn1>
   14b04:	000087b7          	lui	a5,0x8
   14b08:	00190913          	addi	s2,s2,1
   14b0c:	00041c23          	sh	zero,24(s0)
   14b10:	ffe78793          	addi	a5,a5,-2 # 7ffe <_start-0x8002>
   14b14:	f727c8e3          	blt	a5,s2,14a84 <emdnorm+0x240>
   14b18:	f40950e3          	bgez	s2,14a58 <emdnorm+0x214>
   14b1c:	00041123          	sh	zero,2(s0)
   14b20:	f3dff06f          	j	14a5c <emdnorm+0x218>
   14b24:	0e099a63          	bnez	s3,14c18 <emdnorm+0x3d4>
   14b28:	00c4a783          	lw	a5,12(s1)
   14b2c:	0184d703          	lhu	a4,24(s1)
   14b30:	00179793          	slli	a5,a5,0x1
   14b34:	00f407b3          	add	a5,s0,a5
   14b38:	0007d783          	lhu	a5,0(a5)
   14b3c:	00e7f7b3          	and	a5,a5,a4
   14b40:	ec0792e3          	bnez	a5,14a04 <emdnorm+0x1c0>
   14b44:	ef204ee3          	bgtz	s2,14a40 <emdnorm+0x1fc>
   14b48:	09000793          	li	a5,144
   14b4c:	00f50663          	beq	a0,a5,14b58 <emdnorm+0x314>
   14b50:	00040513          	mv	a0,s0
   14b54:	da8ff0ef          	jal	ra,140fc <eshup1>
   14b58:	00445783          	lhu	a5,4(s0)
   14b5c:	fa0790e3          	bnez	a5,14afc <emdnorm+0x2b8>
   14b60:	00041c23          	sh	zero,24(s0)
   14b64:	fa094ce3          	bltz	s2,14b1c <emdnorm+0x2d8>
   14b68:	ef1ff06f          	j	14a58 <emdnorm+0x214>
   14b6c:	0084a603          	lw	a2,8(s1)
   14b70:	0144d783          	lhu	a5,20(s1)
   14b74:	00161613          	slli	a2,a2,0x1
   14b78:	00c40633          	add	a2,s0,a2
   14b7c:	00065703          	lhu	a4,0(a2)
   14b80:	00e7f6b3          	and	a3,a5,a4
   14b84:	e65ff06f          	j	149e8 <emdnorm+0x1a4>
   14b88:	00041c23          	sh	zero,24(s0)
   14b8c:	00041123          	sh	zero,2(s0)
   14b90:	ecdff06f          	j	14a5c <emdnorm+0x218>
   14b94:	008007b7          	lui	a5,0x800
   14b98:	0ff78793          	addi	a5,a5,255 # 8000ff <__global_pointer$+0x7d8b8f>
   14b9c:	00400713          	li	a4,4
   14ba0:	00f4aa23          	sw	a5,20(s1)
   14ba4:	10000793          	li	a5,256
   14ba8:	00e4a423          	sw	a4,8(s1)
   14bac:	00f49c23          	sh	a5,24(s1)
   14bb0:	00e4a623          	sw	a4,12(s1)
   14bb4:	00400793          	li	a5,4
   14bb8:	10000713          	li	a4,256
   14bbc:	da5ff06f          	j	14960 <emdnorm+0x11c>
   14bc0:	00700793          	li	a5,7
   14bc4:	00f4a423          	sw	a5,8(s1)
   14bc8:	800107b7          	lui	a5,0x80010
   14bcc:	fff78793          	addi	a5,a5,-1 # 8000ffff <__global_pointer$+0x7ffe8a8f>
   14bd0:	00f4aa23          	sw	a5,20(s1)
   14bd4:	00100793          	li	a5,1
   14bd8:	00f49c23          	sh	a5,24(s1)
   14bdc:	00600793          	li	a5,6
   14be0:	00f4a623          	sw	a5,12(s1)
   14be4:	00100713          	li	a4,1
   14be8:	d79ff06f          	j	14960 <emdnorm+0x11c>
   14bec:	00c00793          	li	a5,12
   14bf0:	00f4a423          	sw	a5,8(s1)
   14bf4:	800107b7          	lui	a5,0x80010
   14bf8:	fff78793          	addi	a5,a5,-1 # 8000ffff <__global_pointer$+0x7ffe8a8f>
   14bfc:	00f4aa23          	sw	a5,20(s1)
   14c00:	00100793          	li	a5,1
   14c04:	00f49c23          	sh	a5,24(s1)
   14c08:	00b00793          	li	a5,11
   14c0c:	00f4a623          	sw	a5,12(s1)
   14c10:	00100713          	li	a4,1
   14c14:	d4dff06f          	j	14960 <emdnorm+0x11c>
   14c18:	de0a06e3          	beqz	s4,14a04 <emdnorm+0x1c0>
   14c1c:	e21ff06f          	j	14a3c <emdnorm+0x1f8>
   14c20:	008007b7          	lui	a5,0x800
   14c24:	0ff78793          	addi	a5,a5,255 # 8000ff <__global_pointer$+0x7d8b8f>
   14c28:	00600713          	li	a4,6
   14c2c:	00f4aa23          	sw	a5,20(s1)
   14c30:	10000793          	li	a5,256
   14c34:	00e4a423          	sw	a4,8(s1)
   14c38:	00f49c23          	sh	a5,24(s1)
   14c3c:	00e4a623          	sw	a4,12(s1)
   14c40:	00600793          	li	a5,6
   14c44:	10000713          	li	a4,256
   14c48:	d19ff06f          	j	14960 <emdnorm+0x11c>

00014c4c <eiremain>:
   14c4c:	fd010113          	addi	sp,sp,-48
   14c50:	01312e23          	sw	s3,28(sp)
   14c54:	00255983          	lhu	s3,2(a0)
   14c58:	02912223          	sw	s1,36(sp)
   14c5c:	00058493          	mv	s1,a1
   14c60:	02112623          	sw	ra,44(sp)
   14c64:	02812423          	sw	s0,40(sp)
   14c68:	03212023          	sw	s2,32(sp)
   14c6c:	01412c23          	sw	s4,24(sp)
   14c70:	00060913          	mv	s2,a2
   14c74:	01512a23          	sw	s5,20(sp)
   14c78:	01612823          	sw	s6,16(sp)
   14c7c:	01712623          	sw	s7,12(sp)
   14c80:	01812423          	sw	s8,8(sp)
   14c84:	01912223          	sw	s9,4(sp)
   14c88:	01a12023          	sw	s10,0(sp)
   14c8c:	00050a13          	mv	s4,a0
   14c90:	a39ff0ef          	jal	ra,146c8 <enormlz>
   14c94:	0024d403          	lhu	s0,2(s1)
   14c98:	40a989b3          	sub	s3,s3,a0
   14c9c:	00048513          	mv	a0,s1
   14ca0:	a29ff0ef          	jal	ra,146c8 <enormlz>
   14ca4:	03490a93          	addi	s5,s2,52
   14ca8:	40a40433          	sub	s0,s0,a0
   14cac:	04e90713          	addi	a4,s2,78
   14cb0:	000a8793          	mv	a5,s5
   14cb4:	00278793          	addi	a5,a5,2
   14cb8:	fe079f23          	sh	zero,-2(a5)
   14cbc:	fee79ce3          	bne	a5,a4,14cb4 <eiremain+0x68>
   14cc0:	09344a63          	blt	s0,s3,14d54 <eiremain+0x108>
   14cc4:	004a0b93          	addi	s7,s4,4
   14cc8:	00448b13          	addi	s6,s1,4
   14ccc:	fff98993          	addi	s3,s3,-1
   14cd0:	01aa0c93          	addi	s9,s4,26
   14cd4:	00248c13          	addi	s8,s1,2
   14cd8:	000b0713          	mv	a4,s6
   14cdc:	000b8793          	mv	a5,s7
   14ce0:	00278793          	addi	a5,a5,2
   14ce4:	00270713          	addi	a4,a4,2
   14ce8:	ffe7d603          	lhu	a2,-2(a5)
   14cec:	ffe75683          	lhu	a3,-2(a4)
   14cf0:	0ad61a63          	bne	a2,a3,14da4 <eiremain+0x158>
   14cf4:	ff9796e3          	bne	a5,s9,14ce0 <eiremain+0x94>
   14cf8:	018a0693          	addi	a3,s4,24
   14cfc:	01848713          	addi	a4,s1,24
   14d00:	00000613          	li	a2,0
   14d04:	00075783          	lhu	a5,0(a4)
   14d08:	0006d583          	lhu	a1,0(a3)
   14d0c:	ffe70713          	addi	a4,a4,-2
   14d10:	40c787b3          	sub	a5,a5,a2
   14d14:	40b787b3          	sub	a5,a5,a1
   14d18:	00f71123          	sh	a5,2(a4)
   14d1c:	0107d793          	srli	a5,a5,0x10
   14d20:	ffe68693          	addi	a3,a3,-2
   14d24:	0017f613          	andi	a2,a5,1
   14d28:	fcec1ee3          	bne	s8,a4,14d04 <eiremain+0xb8>
   14d2c:	00100d13          	li	s10,1
   14d30:	000a8513          	mv	a0,s5
   14d34:	bc8ff0ef          	jal	ra,140fc <eshup1>
   14d38:	04c95783          	lhu	a5,76(s2)
   14d3c:	fff40413          	addi	s0,s0,-1
   14d40:	00048513          	mv	a0,s1
   14d44:	00fd6d33          	or	s10,s10,a5
   14d48:	05a91623          	sh	s10,76(s2)
   14d4c:	bb0ff0ef          	jal	ra,140fc <eshup1>
   14d50:	f93414e3          	bne	s0,s3,14cd8 <eiremain+0x8c>
   14d54:	00040693          	mv	a3,s0
   14d58:	02812403          	lw	s0,40(sp)
   14d5c:	02c12083          	lw	ra,44(sp)
   14d60:	01c12983          	lw	s3,28(sp)
   14d64:	01812a03          	lw	s4,24(sp)
   14d68:	01412a83          	lw	s5,20(sp)
   14d6c:	01012b03          	lw	s6,16(sp)
   14d70:	00c12b83          	lw	s7,12(sp)
   14d74:	00812c03          	lw	s8,8(sp)
   14d78:	00412c83          	lw	s9,4(sp)
   14d7c:	00012d03          	lw	s10,0(sp)
   14d80:	00090793          	mv	a5,s2
   14d84:	00048513          	mv	a0,s1
   14d88:	02012903          	lw	s2,32(sp)
   14d8c:	02412483          	lw	s1,36(sp)
   14d90:	00000713          	li	a4,0
   14d94:	00000613          	li	a2,0
   14d98:	00000593          	li	a1,0
   14d9c:	03010113          	addi	sp,sp,48
   14da0:	aa5ff06f          	j	14844 <emdnorm>
   14da4:	00000d13          	li	s10,0
   14da8:	f8c6e4e3          	bltu	a3,a2,14d30 <eiremain+0xe4>
   14dac:	f4dff06f          	j	14cf8 <eiremain+0xac>

00014db0 <emovo.isra.6>:
   14db0:	00055703          	lhu	a4,0(a0)
   14db4:	00255783          	lhu	a5,2(a0)
   14db8:	00070663          	beqz	a4,14dc4 <emovo.isra.6+0x14>
   14dbc:	00008737          	lui	a4,0x8
   14dc0:	00e7e7b3          	or	a5,a5,a4
   14dc4:	00f59923          	sh	a5,18(a1)
   14dc8:	00255703          	lhu	a4,2(a0)
   14dcc:	000087b7          	lui	a5,0x8
   14dd0:	fff78793          	addi	a5,a5,-1 # 7fff <_start-0x8001>
   14dd4:	02f70463          	beq	a4,a5,14dfc <emovo.isra.6+0x4c>
   14dd8:	00650793          	addi	a5,a0,6
   14ddc:	01058593          	addi	a1,a1,16
   14de0:	01850513          	addi	a0,a0,24
   14de4:	00278793          	addi	a5,a5,2
   14de8:	ffe7d703          	lhu	a4,-2(a5)
   14dec:	ffe58593          	addi	a1,a1,-2
   14df0:	00e59123          	sh	a4,2(a1)
   14df4:	fea798e3          	bne	a5,a0,14de4 <emovo.isra.6+0x34>
   14df8:	00008067          	ret
   14dfc:	00650793          	addi	a5,a0,6
   14e00:	01a50513          	addi	a0,a0,26
   14e04:	0007d703          	lhu	a4,0(a5)
   14e08:	00278793          	addi	a5,a5,2
   14e0c:	02071a63          	bnez	a4,14e40 <emovo.isra.6+0x90>
   14e10:	fea79ae3          	bne	a5,a0,14e04 <emovo.isra.6+0x54>
   14e14:	01258713          	addi	a4,a1,18
   14e18:	00058793          	mv	a5,a1
   14e1c:	00278793          	addi	a5,a5,2
   14e20:	fe079f23          	sh	zero,-2(a5)
   14e24:	fef71ce3          	bne	a4,a5,14e1c <emovo.isra.6+0x6c>
   14e28:	0125d783          	lhu	a5,18(a1)
   14e2c:	00008737          	lui	a4,0x8
   14e30:	fff70713          	addi	a4,a4,-1 # 7fff <_start-0x8001>
   14e34:	00e7e7b3          	or	a5,a5,a4
   14e38:	00f59923          	sh	a5,18(a1)
   14e3c:	00008067          	ret
   14e40:	01058713          	addi	a4,a1,16
   14e44:	00058793          	mv	a5,a1
   14e48:	00278793          	addi	a5,a5,2
   14e4c:	fe079f23          	sh	zero,-2(a5)
   14e50:	fef71ce3          	bne	a4,a5,14e48 <emovo.isra.6+0x98>
   14e54:	7fffc7b7          	lui	a5,0x7fffc
   14e58:	00f5a823          	sw	a5,16(a1)
   14e5c:	00008067          	ret

00014e60 <emul>:
   14e60:	f7010113          	addi	sp,sp,-144
   14e64:	07512a23          	sw	s5,116(sp)
   14e68:	01255a83          	lhu	s5,18(a0)
   14e6c:	000087b7          	lui	a5,0x8
   14e70:	fff78793          	addi	a5,a5,-1 # 7fff <_start-0x8001>
   14e74:	08812423          	sw	s0,136(sp)
   14e78:	08912223          	sw	s1,132(sp)
   14e7c:	09212023          	sw	s2,128(sp)
   14e80:	07312e23          	sw	s3,124(sp)
   14e84:	07612823          	sw	s6,112(sp)
   14e88:	08112623          	sw	ra,140(sp)
   14e8c:	07412c23          	sw	s4,120(sp)
   14e90:	07712623          	sw	s7,108(sp)
   14e94:	07812423          	sw	s8,104(sp)
   14e98:	07912223          	sw	s9,100(sp)
   14e9c:	0157fb33          	and	s6,a5,s5
   14ea0:	00050493          	mv	s1,a0
   14ea4:	00058913          	mv	s2,a1
   14ea8:	00060413          	mv	s0,a2
   14eac:	00068993          	mv	s3,a3
   14eb0:	0afb1863          	bne	s6,a5,14f60 <emul+0x100>
   14eb4:	b98ff0ef          	jal	ra,1424c <eisnan.part.0>
   14eb8:	20051c63          	bnez	a0,150d0 <emul+0x270>
   14ebc:	01295a03          	lhu	s4,18(s2)
   14ec0:	014b77b3          	and	a5,s6,s4
   14ec4:	23679463          	bne	a5,s6,150ec <emul+0x28c>
   14ec8:	00090513          	mv	a0,s2
   14ecc:	b80ff0ef          	jal	ra,1424c <eisnan.part.0>
   14ed0:	0a051463          	bnez	a0,14f78 <emul+0x118>
   14ed4:	00048513          	mv	a0,s1
   14ed8:	e28ff0ef          	jal	ra,14500 <eisinf.part.1>
   14edc:	20051e63          	bnez	a0,150f8 <emul+0x298>
   14ee0:	000087b7          	lui	a5,0x8
   14ee4:	fff78793          	addi	a5,a5,-1 # 7fff <_start-0x8001>
   14ee8:	0147fa33          	and	s4,a5,s4
   14eec:	010a1a13          	slli	s4,s4,0x10
   14ef0:	010a5a13          	srli	s4,s4,0x10
   14ef4:	2cfa1663          	bne	s4,a5,151c0 <emul+0x360>
   14ef8:	00090513          	mv	a0,s2
   14efc:	e04ff0ef          	jal	ra,14500 <eisinf.part.1>
   14f00:	32051263          	bnez	a0,15224 <emul+0x3c4>
   14f04:	0124d783          	lhu	a5,18(s1)
   14f08:	00fa77b3          	and	a5,s4,a5
   14f0c:	21478463          	beq	a5,s4,15114 <emul+0x2b4>
   14f10:	00048513          	mv	a0,s1
   14f14:	00c10593          	addi	a1,sp,12
   14f18:	be4ff0ef          	jal	ra,142fc <emovi>
   14f1c:	00090513          	mv	a0,s2
   14f20:	02810593          	addi	a1,sp,40
   14f24:	bd8ff0ef          	jal	ra,142fc <emovi>
   14f28:	00e15483          	lhu	s1,14(sp)
   14f2c:	02a15903          	lhu	s2,42(sp)
   14f30:	08049a63          	bnez	s1,14fc4 <emul+0x164>
   14f34:	01010793          	addi	a5,sp,16
   14f38:	02410693          	addi	a3,sp,36
   14f3c:	2cd78063          	beq	a5,a3,151fc <emul+0x39c>
   14f40:	00278793          	addi	a5,a5,2
   14f44:	ffe7d703          	lhu	a4,-2(a5)
   14f48:	fe070ae3          	beqz	a4,14f3c <emul+0xdc>
   14f4c:	00c10513          	addi	a0,sp,12
   14f50:	f78ff0ef          	jal	ra,146c8 <enormlz>
   14f54:	40a004b3          	neg	s1,a0
   14f58:	02a15703          	lhu	a4,42(sp)
   14f5c:	06c0006f          	j	14fc8 <emul+0x168>
   14f60:	0125da03          	lhu	s4,18(a1)
   14f64:	0147f733          	and	a4,a5,s4
   14f68:	faf714e3          	bne	a4,a5,14f10 <emul+0xb0>
   14f6c:	00058513          	mv	a0,a1
   14f70:	adcff0ef          	jal	ra,1424c <eisnan.part.0>
   14f74:	f60506e3          	beqz	a0,14ee0 <emul+0x80>
   14f78:	01490713          	addi	a4,s2,20
   14f7c:	00290913          	addi	s2,s2,2
   14f80:	ffe95783          	lhu	a5,-2(s2)
   14f84:	00240413          	addi	s0,s0,2
   14f88:	fef41f23          	sh	a5,-2(s0)
   14f8c:	fee918e3          	bne	s2,a4,14f7c <emul+0x11c>
   14f90:	08c12083          	lw	ra,140(sp)
   14f94:	08812403          	lw	s0,136(sp)
   14f98:	08412483          	lw	s1,132(sp)
   14f9c:	08012903          	lw	s2,128(sp)
   14fa0:	07c12983          	lw	s3,124(sp)
   14fa4:	07812a03          	lw	s4,120(sp)
   14fa8:	07412a83          	lw	s5,116(sp)
   14fac:	07012b03          	lw	s6,112(sp)
   14fb0:	06c12b83          	lw	s7,108(sp)
   14fb4:	06812c03          	lw	s8,104(sp)
   14fb8:	06412c83          	lw	s9,100(sp)
   14fbc:	09010113          	addi	sp,sp,144
   14fc0:	00008067          	ret
   14fc4:	00090713          	mv	a4,s2
   14fc8:	00090b13          	mv	s6,s2
   14fcc:	02c10793          	addi	a5,sp,44
   14fd0:	04010693          	addi	a3,sp,64
   14fd4:	02071263          	bnez	a4,14ff8 <emul+0x198>
   14fd8:	22f68c63          	beq	a3,a5,15210 <emul+0x3b0>
   14fdc:	00278793          	addi	a5,a5,2
   14fe0:	ffe7d703          	lhu	a4,-2(a5)
   14fe4:	fe070ae3          	beqz	a4,14fd8 <emul+0x178>
   14fe8:	02810513          	addi	a0,sp,40
   14fec:	edcff0ef          	jal	ra,146c8 <enormlz>
   14ff0:	02a15703          	lhu	a4,42(sp)
   14ff4:	40a90b33          	sub	s6,s2,a0
   14ff8:	02815783          	lhu	a5,40(sp)
   14ffc:	03898a93          	addi	s5,s3,56
   15000:	02e99b23          	sh	a4,54(s3)
   15004:	02f99a23          	sh	a5,52(s3)
   15008:	04e98713          	addi	a4,s3,78
   1500c:	000a8793          	mv	a5,s5
   15010:	00079023          	sh	zero,0(a5)
   15014:	00278793          	addi	a5,a5,2
   15018:	fef71ce3          	bne	a4,a5,15010 <emul+0x1b0>
   1501c:	04c98b93          	addi	s7,s3,76
   15020:	00000a13          	li	s4,0
   15024:	02410913          	addi	s2,sp,36
   15028:	01010c93          	addi	s9,sp,16
   1502c:	04610c13          	addi	s8,sp,70
   15030:	00095503          	lhu	a0,0(s2)
   15034:	ffe90913          	addi	s2,s2,-2
   15038:	14051263          	bnez	a0,1517c <emul+0x31c>
   1503c:	04c9d703          	lhu	a4,76(s3)
   15040:	000b8793          	mv	a5,s7
   15044:	00ea6a33          	or	s4,s4,a4
   15048:	ffe78793          	addi	a5,a5,-2
   1504c:	0007d703          	lhu	a4,0(a5)
   15050:	00e79123          	sh	a4,2(a5)
   15054:	ff579ae3          	bne	a5,s5,15048 <emul+0x1e8>
   15058:	02099c23          	sh	zero,56(s3)
   1505c:	fd991ae3          	bne	s2,s9,15030 <emul+0x1d0>
   15060:	03498713          	addi	a4,s3,52
   15064:	02810793          	addi	a5,sp,40
   15068:	04210693          	addi	a3,sp,66
   1506c:	00075603          	lhu	a2,0(a4)
   15070:	00278793          	addi	a5,a5,2
   15074:	00270713          	addi	a4,a4,2
   15078:	fec79f23          	sh	a2,-2(a5)
   1507c:	fef698e3          	bne	a3,a5,1506c <emul+0x20c>
   15080:	ffffc6b7          	lui	a3,0xffffc
   15084:	016484b3          	add	s1,s1,s6
   15088:	00268693          	addi	a3,a3,2 # ffffc002 <__global_pointer$+0xfffd4a92>
   1508c:	000a0593          	mv	a1,s4
   15090:	02810513          	addi	a0,sp,40
   15094:	00098793          	mv	a5,s3
   15098:	04000713          	li	a4,64
   1509c:	00d486b3          	add	a3,s1,a3
   150a0:	00000613          	li	a2,0
   150a4:	fa0ff0ef          	jal	ra,14844 <emdnorm>
   150a8:	02815703          	lhu	a4,40(sp)
   150ac:	00c15783          	lhu	a5,12(sp)
   150b0:	00040593          	mv	a1,s0
   150b4:	02810513          	addi	a0,sp,40
   150b8:	40e787b3          	sub	a5,a5,a4
   150bc:	00f037b3          	snez	a5,a5
   150c0:	40f007b3          	neg	a5,a5
   150c4:	02f11423          	sh	a5,40(sp)
   150c8:	ce9ff0ef          	jal	ra,14db0 <emovo.isra.6>
   150cc:	ec5ff06f          	j	14f90 <emul+0x130>
   150d0:	01448713          	addi	a4,s1,20
   150d4:	00248493          	addi	s1,s1,2
   150d8:	ffe4d783          	lhu	a5,-2(s1)
   150dc:	00240413          	addi	s0,s0,2
   150e0:	fef41f23          	sh	a5,-2(s0)
   150e4:	fee498e3          	bne	s1,a4,150d4 <emul+0x274>
   150e8:	ea9ff06f          	j	14f90 <emul+0x130>
   150ec:	00048513          	mv	a0,s1
   150f0:	c10ff0ef          	jal	ra,14500 <eisinf.part.1>
   150f4:	0c050863          	beqz	a0,151c4 <emul+0x364>
   150f8:	0000f597          	auipc	a1,0xf
   150fc:	70058593          	addi	a1,a1,1792 # 247f8 <ezero>
   15100:	00090513          	mv	a0,s2
   15104:	ae0ff0ef          	jal	ra,143e4 <ecmp>
   15108:	14050063          	beqz	a0,15248 <emul+0x3e8>
   1510c:	01295a03          	lhu	s4,18(s2)
   15110:	dd1ff06f          	j	14ee0 <emul+0x80>
   15114:	00048513          	mv	a0,s1
   15118:	be8ff0ef          	jal	ra,14500 <eisinf.part.1>
   1511c:	00051863          	bnez	a0,1512c <emul+0x2cc>
   15120:	00090513          	mv	a0,s2
   15124:	bdcff0ef          	jal	ra,14500 <eisinf.part.1>
   15128:	de0504e3          	beqz	a0,14f10 <emul+0xb0>
   1512c:	00048513          	mv	a0,s1
   15130:	98cff0ef          	jal	ra,142bc <eisneg>
   15134:	00050493          	mv	s1,a0
   15138:	00090513          	mv	a0,s2
   1513c:	980ff0ef          	jal	ra,142bc <eisneg>
   15140:	40a48533          	sub	a0,s1,a0
   15144:	00a03533          	snez	a0,a0
   15148:	00f51513          	slli	a0,a0,0xf
   1514c:	00a41923          	sh	a0,18(s0)
   15150:	01240713          	addi	a4,s0,18
   15154:	00040793          	mv	a5,s0
   15158:	00278793          	addi	a5,a5,2
   1515c:	fe079f23          	sh	zero,-2(a5)
   15160:	fee79ce3          	bne	a5,a4,15158 <emul+0x2f8>
   15164:	01245783          	lhu	a5,18(s0)
   15168:	00008737          	lui	a4,0x8
   1516c:	fff70713          	addi	a4,a4,-1 # 7fff <_start-0x8001>
   15170:	00e7e7b3          	or	a5,a5,a4
   15174:	00f41923          	sh	a5,18(s0)
   15178:	e19ff06f          	j	14f90 <emul+0x130>
   1517c:	04410613          	addi	a2,sp,68
   15180:	02810593          	addi	a1,sp,40
   15184:	fe9fe0ef          	jal	ra,1416c <m16m>
   15188:	000b8613          	mv	a2,s7
   1518c:	00000593          	li	a1,0
   15190:	05c10713          	addi	a4,sp,92
   15194:	00065503          	lhu	a0,0(a2)
   15198:	00075783          	lhu	a5,0(a4)
   1519c:	ffe60613          	addi	a2,a2,-2
   151a0:	ffe70713          	addi	a4,a4,-2
   151a4:	00a787b3          	add	a5,a5,a0
   151a8:	00b787b3          	add	a5,a5,a1
   151ac:	00f61123          	sh	a5,2(a2)
   151b0:	0107d793          	srli	a5,a5,0x10
   151b4:	0017f593          	andi	a1,a5,1
   151b8:	fd871ee3          	bne	a4,s8,15194 <emul+0x334>
   151bc:	e81ff06f          	j	1503c <emul+0x1dc>
   151c0:	0124da83          	lhu	s5,18(s1)
   151c4:	000087b7          	lui	a5,0x8
   151c8:	fff78793          	addi	a5,a5,-1 # 7fff <_start-0x8001>
   151cc:	0157fab3          	and	s5,a5,s5
   151d0:	010a9a93          	slli	s5,s5,0x10
   151d4:	010ada93          	srli	s5,s5,0x10
   151d8:	d2fa9ce3          	bne	s5,a5,14f10 <emul+0xb0>
   151dc:	00048513          	mv	a0,s1
   151e0:	b20ff0ef          	jal	ra,14500 <eisinf.part.1>
   151e4:	f40514e3          	bnez	a0,1512c <emul+0x2cc>
   151e8:	01295783          	lhu	a5,18(s2)
   151ec:	fff7c793          	not	a5,a5
   151f0:	01179713          	slli	a4,a5,0x11
   151f4:	d0071ee3          	bnez	a4,14f10 <emul+0xb0>
   151f8:	f29ff06f          	j	15120 <emul+0x2c0>
   151fc:	01440793          	addi	a5,s0,20
   15200:	00240413          	addi	s0,s0,2
   15204:	fe041f23          	sh	zero,-2(s0)
   15208:	fe879ce3          	bne	a5,s0,15200 <emul+0x3a0>
   1520c:	d85ff06f          	j	14f90 <emul+0x130>
   15210:	01440793          	addi	a5,s0,20
   15214:	00240413          	addi	s0,s0,2
   15218:	fe041f23          	sh	zero,-2(s0)
   1521c:	fef41ce3          	bne	s0,a5,15214 <emul+0x3b4>
   15220:	d71ff06f          	j	14f90 <emul+0x130>
   15224:	0000f597          	auipc	a1,0xf
   15228:	5d458593          	addi	a1,a1,1492 # 247f8 <ezero>
   1522c:	00048513          	mv	a0,s1
   15230:	9b4ff0ef          	jal	ra,143e4 <ecmp>
   15234:	00050a63          	beqz	a0,15248 <emul+0x3e8>
   15238:	0124d783          	lhu	a5,18(s1)
   1523c:	00fa77b3          	and	a5,s4,a5
   15240:	f9478ee3          	beq	a5,s4,151dc <emul+0x37c>
   15244:	fa5ff06f          	j	151e8 <emul+0x388>
   15248:	01040713          	addi	a4,s0,16
   1524c:	00040793          	mv	a5,s0
   15250:	00278793          	addi	a5,a5,2
   15254:	fe079f23          	sh	zero,-2(a5)
   15258:	fee79ce3          	bne	a5,a4,15250 <emul+0x3f0>
   1525c:	7fffc7b7          	lui	a5,0x7fffc
   15260:	00f42823          	sw	a5,16(s0)
   15264:	d2dff06f          	j	14f90 <emul+0x130>

00015268 <ediv>:
   15268:	01255783          	lhu	a5,18(a0)
   1526c:	f5010113          	addi	sp,sp,-176
   15270:	0a812423          	sw	s0,168(sp)
   15274:	fff7c793          	not	a5,a5
   15278:	0a912223          	sw	s1,164(sp)
   1527c:	0b212023          	sw	s2,160(sp)
   15280:	09812423          	sw	s8,136(sp)
   15284:	0a112623          	sw	ra,172(sp)
   15288:	09312e23          	sw	s3,156(sp)
   1528c:	09412c23          	sw	s4,152(sp)
   15290:	09512a23          	sw	s5,148(sp)
   15294:	09612823          	sw	s6,144(sp)
   15298:	09712623          	sw	s7,140(sp)
   1529c:	09912223          	sw	s9,132(sp)
   152a0:	09a12023          	sw	s10,128(sp)
   152a4:	07b12e23          	sw	s11,124(sp)
   152a8:	01179713          	slli	a4,a5,0x11
   152ac:	00050493          	mv	s1,a0
   152b0:	00058913          	mv	s2,a1
   152b4:	00060413          	mv	s0,a2
   152b8:	00068c13          	mv	s8,a3
   152bc:	00071663          	bnez	a4,152c8 <ediv+0x60>
   152c0:	f8dfe0ef          	jal	ra,1424c <eisnan.part.0>
   152c4:	38051263          	bnez	a0,15648 <ediv+0x3e0>
   152c8:	01295783          	lhu	a5,18(s2)
   152cc:	fff7c793          	not	a5,a5
   152d0:	01179713          	slli	a4,a5,0x11
   152d4:	08070e63          	beqz	a4,15370 <ediv+0x108>
   152d8:	0000f597          	auipc	a1,0xf
   152dc:	52058593          	addi	a1,a1,1312 # 247f8 <ezero>
   152e0:	00048513          	mv	a0,s1
   152e4:	900ff0ef          	jal	ra,143e4 <ecmp>
   152e8:	10050463          	beqz	a0,153f0 <ediv+0x188>
   152ec:	0124d983          	lhu	s3,18(s1)
   152f0:	01295703          	lhu	a4,18(s2)
   152f4:	000087b7          	lui	a5,0x8
   152f8:	fff78793          	addi	a5,a5,-1 # 7fff <_start-0x8001>
   152fc:	0137f9b3          	and	s3,a5,s3
   15300:	00e7fa33          	and	s4,a5,a4
   15304:	08f99a63          	bne	s3,a5,15398 <ediv+0x130>
   15308:	00048513          	mv	a0,s1
   1530c:	9f4ff0ef          	jal	ra,14500 <eisinf.part.1>
   15310:	10050a63          	beqz	a0,15424 <ediv+0x1bc>
   15314:	013a1863          	bne	s4,s3,15324 <ediv+0xbc>
   15318:	00090513          	mv	a0,s2
   1531c:	9e4ff0ef          	jal	ra,14500 <eisinf.part.1>
   15320:	0e051263          	bnez	a0,15404 <ediv+0x19c>
   15324:	01440793          	addi	a5,s0,20
   15328:	00240413          	addi	s0,s0,2
   1532c:	fe041f23          	sh	zero,-2(s0)
   15330:	fef41ce3          	bne	s0,a5,15328 <ediv+0xc0>
   15334:	0ac12083          	lw	ra,172(sp)
   15338:	0a812403          	lw	s0,168(sp)
   1533c:	0a412483          	lw	s1,164(sp)
   15340:	0a012903          	lw	s2,160(sp)
   15344:	09c12983          	lw	s3,156(sp)
   15348:	09812a03          	lw	s4,152(sp)
   1534c:	09412a83          	lw	s5,148(sp)
   15350:	09012b03          	lw	s6,144(sp)
   15354:	08c12b83          	lw	s7,140(sp)
   15358:	08812c03          	lw	s8,136(sp)
   1535c:	08412c83          	lw	s9,132(sp)
   15360:	08012d03          	lw	s10,128(sp)
   15364:	07c12d83          	lw	s11,124(sp)
   15368:	0b010113          	addi	sp,sp,176
   1536c:	00008067          	ret
   15370:	00090513          	mv	a0,s2
   15374:	ed9fe0ef          	jal	ra,1424c <eisnan.part.0>
   15378:	f60500e3          	beqz	a0,152d8 <ediv+0x70>
   1537c:	01490713          	addi	a4,s2,20
   15380:	00290913          	addi	s2,s2,2
   15384:	ffe95783          	lhu	a5,-2(s2)
   15388:	00240413          	addi	s0,s0,2
   1538c:	fef41f23          	sh	a5,-2(s0)
   15390:	fee918e3          	bne	s2,a4,15380 <ediv+0x118>
   15394:	fa1ff06f          	j	15334 <ediv+0xcc>
   15398:	08fa0863          	beq	s4,a5,15428 <ediv+0x1c0>
   1539c:	01c10593          	addi	a1,sp,28
   153a0:	00048513          	mv	a0,s1
   153a4:	f59fe0ef          	jal	ra,142fc <emovi>
   153a8:	00090513          	mv	a0,s2
   153ac:	03810593          	addi	a1,sp,56
   153b0:	f4dfe0ef          	jal	ra,142fc <emovi>
   153b4:	03a15c83          	lhu	s9,58(sp)
   153b8:	01e15903          	lhu	s2,30(sp)
   153bc:	0c0c9463          	bnez	s9,15484 <ediv+0x21c>
   153c0:	03c10793          	addi	a5,sp,60
   153c4:	05010493          	addi	s1,sp,80
   153c8:	34f48863          	beq	s1,a5,15718 <ediv+0x4b0>
   153cc:	00278793          	addi	a5,a5,2
   153d0:	ffe7d703          	lhu	a4,-2(a5)
   153d4:	fe070ae3          	beqz	a4,153c8 <ediv+0x160>
   153d8:	03810513          	addi	a0,sp,56
   153dc:	aecff0ef          	jal	ra,146c8 <enormlz>
   153e0:	40a007b3          	neg	a5,a0
   153e4:	00f12623          	sw	a5,12(sp)
   153e8:	01e15603          	lhu	a2,30(sp)
   153ec:	0a00006f          	j	1548c <ediv+0x224>
   153f0:	0000f597          	auipc	a1,0xf
   153f4:	40858593          	addi	a1,a1,1032 # 247f8 <ezero>
   153f8:	00090513          	mv	a0,s2
   153fc:	fe9fe0ef          	jal	ra,143e4 <ecmp>
   15400:	ee0516e3          	bnez	a0,152ec <ediv+0x84>
   15404:	01040713          	addi	a4,s0,16
   15408:	00040793          	mv	a5,s0
   1540c:	00278793          	addi	a5,a5,2
   15410:	fe079f23          	sh	zero,-2(a5)
   15414:	fee79ce3          	bne	a5,a4,1540c <ediv+0x1a4>
   15418:	7fffc7b7          	lui	a5,0x7fffc
   1541c:	00f42823          	sw	a5,16(s0)
   15420:	f15ff06f          	j	15334 <ediv+0xcc>
   15424:	f73a1ce3          	bne	s4,s3,1539c <ediv+0x134>
   15428:	00090513          	mv	a0,s2
   1542c:	8d4ff0ef          	jal	ra,14500 <eisinf.part.1>
   15430:	f60506e3          	beqz	a0,1539c <ediv+0x134>
   15434:	00048513          	mv	a0,s1
   15438:	e85fe0ef          	jal	ra,142bc <eisneg>
   1543c:	00050493          	mv	s1,a0
   15440:	00090513          	mv	a0,s2
   15444:	e79fe0ef          	jal	ra,142bc <eisneg>
   15448:	40a487b3          	sub	a5,s1,a0
   1544c:	00f037b3          	snez	a5,a5
   15450:	00f79793          	slli	a5,a5,0xf
   15454:	00f41923          	sh	a5,18(s0)
   15458:	01240713          	addi	a4,s0,18
   1545c:	00040793          	mv	a5,s0
   15460:	00278793          	addi	a5,a5,2 # 7fffc002 <__global_pointer$+0x7ffd4a92>
   15464:	fe079f23          	sh	zero,-2(a5)
   15468:	fee79ce3          	bne	a5,a4,15460 <ediv+0x1f8>
   1546c:	01245783          	lhu	a5,18(s0)
   15470:	00008737          	lui	a4,0x8
   15474:	fff70713          	addi	a4,a4,-1 # 7fff <_start-0x8001>
   15478:	00e7e7b3          	or	a5,a5,a4
   1547c:	00f41923          	sh	a5,18(s0)
   15480:	eb5ff06f          	j	15334 <ediv+0xcc>
   15484:	01912623          	sw	s9,12(sp)
   15488:	00090613          	mv	a2,s2
   1548c:	01212423          	sw	s2,8(sp)
   15490:	02010793          	addi	a5,sp,32
   15494:	03410693          	addi	a3,sp,52
   15498:	02061263          	bnez	a2,154bc <ediv+0x254>
   1549c:	28f68863          	beq	a3,a5,1572c <ediv+0x4c4>
   154a0:	00278793          	addi	a5,a5,2
   154a4:	ffe7d703          	lhu	a4,-2(a5)
   154a8:	fe070ae3          	beqz	a4,1549c <ediv+0x234>
   154ac:	01c10513          	addi	a0,sp,28
   154b0:	a18ff0ef          	jal	ra,146c8 <enormlz>
   154b4:	40a907b3          	sub	a5,s2,a0
   154b8:	00f12423          	sw	a5,8(sp)
   154bc:	03812703          	lw	a4,56(sp)
   154c0:	038c0d93          	addi	s11,s8,56
   154c4:	000d8793          	mv	a5,s11
   154c8:	02ec2a23          	sw	a4,52(s8)
   154cc:	04ec0993          	addi	s3,s8,78
   154d0:	00278793          	addi	a5,a5,2
   154d4:	fe079f23          	sh	zero,-2(a5)
   154d8:	fef99ce3          	bne	s3,a5,154d0 <ediv+0x268>
   154dc:	03810513          	addi	a0,sp,56
   154e0:	bb5fe0ef          	jal	ra,14094 <eshdn1>
   154e4:	02215d03          	lhu	s10,34(sp)
   154e8:	00010ab7          	lui	s5,0x10
   154ec:	05010493          	addi	s1,sp,80
   154f0:	010d1b13          	slli	s6,s10,0x10
   154f4:	41ab0b33          	sub	s6,s6,s10
   154f8:	03a10b93          	addi	s7,sp,58
   154fc:	fffa8a93          	addi	s5,s5,-1 # ffff <_start-0x1>
   15500:	06e10913          	addi	s2,sp,110
   15504:	05610a13          	addi	s4,sp,86
   15508:	03c15503          	lhu	a0,60(sp)
   1550c:	03e15783          	lhu	a5,62(sp)
   15510:	000a8c93          	mv	s9,s5
   15514:	01051513          	slli	a0,a0,0x10
   15518:	00f50533          	add	a0,a0,a5
   1551c:	00ab6a63          	bltu	s6,a0,15530 <ediv+0x2c8>
   15520:	000d0593          	mv	a1,s10
   15524:	79d0e0ef          	jal	ra,244c0 <__udivsi3>
   15528:	01051c93          	slli	s9,a0,0x10
   1552c:	010cdc93          	srli	s9,s9,0x10
   15530:	05410613          	addi	a2,sp,84
   15534:	01c10593          	addi	a1,sp,28
   15538:	000c8513          	mv	a0,s9
   1553c:	c31fe0ef          	jal	ra,1416c <m16m>
   15540:	03c10613          	addi	a2,sp,60
   15544:	05810793          	addi	a5,sp,88
   15548:	00278793          	addi	a5,a5,2
   1554c:	00260613          	addi	a2,a2,2
   15550:	ffe7d503          	lhu	a0,-2(a5)
   15554:	ffe65583          	lhu	a1,-2(a2)
   15558:	10b51663          	bne	a0,a1,15664 <ediv+0x3fc>
   1555c:	ff2796e3          	bne	a5,s2,15548 <ediv+0x2e0>
   15560:	00000513          	li	a0,0
   15564:	06c10593          	addi	a1,sp,108
   15568:	00048613          	mv	a2,s1
   1556c:	00065783          	lhu	a5,0(a2)
   15570:	0005d803          	lhu	a6,0(a1)
   15574:	ffe60613          	addi	a2,a2,-2
   15578:	40a787b3          	sub	a5,a5,a0
   1557c:	410787b3          	sub	a5,a5,a6
   15580:	00f61123          	sh	a5,2(a2)
   15584:	0107d793          	srli	a5,a5,0x10
   15588:	ffe58593          	addi	a1,a1,-2
   1558c:	0017f513          	andi	a0,a5,1
   15590:	fd761ee3          	bne	a2,s7,1556c <ediv+0x304>
   15594:	019d9023          	sh	s9,0(s11)
   15598:	03c10793          	addi	a5,sp,60
   1559c:	00278793          	addi	a5,a5,2
   155a0:	0007d683          	lhu	a3,0(a5)
   155a4:	fed79f23          	sh	a3,-2(a5)
   155a8:	fe979ae3          	bne	a5,s1,1559c <ediv+0x334>
   155ac:	04011823          	sh	zero,80(sp)
   155b0:	002d8d93          	addi	s11,s11,2
   155b4:	f5b99ae3          	bne	s3,s11,15508 <ediv+0x2a0>
   155b8:	00000593          	li	a1,0
   155bc:	03c10793          	addi	a5,sp,60
   155c0:	05210693          	addi	a3,sp,82
   155c4:	00278793          	addi	a5,a5,2
   155c8:	ffe7d703          	lhu	a4,-2(a5)
   155cc:	00e5e5b3          	or	a1,a1,a4
   155d0:	fed79ae3          	bne	a5,a3,155c4 <ediv+0x35c>
   155d4:	00b035b3          	snez	a1,a1
   155d8:	034c0713          	addi	a4,s8,52
   155dc:	03810793          	addi	a5,sp,56
   155e0:	00075603          	lhu	a2,0(a4)
   155e4:	00278793          	addi	a5,a5,2
   155e8:	00270713          	addi	a4,a4,2
   155ec:	fec79f23          	sh	a2,-2(a5)
   155f0:	fef698e3          	bne	a3,a5,155e0 <ediv+0x378>
   155f4:	00c12783          	lw	a5,12(sp)
   155f8:	00812703          	lw	a4,8(sp)
   155fc:	000046b7          	lui	a3,0x4
   15600:	fff68693          	addi	a3,a3,-1 # 3fff <_start-0xc001>
   15604:	40e78cb3          	sub	s9,a5,a4
   15608:	03810513          	addi	a0,sp,56
   1560c:	000c0793          	mv	a5,s8
   15610:	04000713          	li	a4,64
   15614:	00dc86b3          	add	a3,s9,a3
   15618:	00000613          	li	a2,0
   1561c:	a28ff0ef          	jal	ra,14844 <emdnorm>
   15620:	03815703          	lhu	a4,56(sp)
   15624:	01c15783          	lhu	a5,28(sp)
   15628:	00040593          	mv	a1,s0
   1562c:	03810513          	addi	a0,sp,56
   15630:	40e787b3          	sub	a5,a5,a4
   15634:	00f037b3          	snez	a5,a5
   15638:	40f007b3          	neg	a5,a5
   1563c:	02f11c23          	sh	a5,56(sp)
   15640:	f70ff0ef          	jal	ra,14db0 <emovo.isra.6>
   15644:	cf1ff06f          	j	15334 <ediv+0xcc>
   15648:	01448713          	addi	a4,s1,20
   1564c:	00248493          	addi	s1,s1,2
   15650:	ffe4d783          	lhu	a5,-2(s1)
   15654:	00240413          	addi	s0,s0,2
   15658:	fef41f23          	sh	a5,-2(s0)
   1565c:	fee498e3          	bne	s1,a4,1564c <ediv+0x3e4>
   15660:	cd5ff06f          	j	15334 <ediv+0xcc>
   15664:	eea5fee3          	bgeu	a1,a0,15560 <ediv+0x2f8>
   15668:	fffc8793          	addi	a5,s9,-1
   1566c:	01079893          	slli	a7,a5,0x10
   15670:	0108d893          	srli	a7,a7,0x10
   15674:	00000513          	li	a0,0
   15678:	03410593          	addi	a1,sp,52
   1567c:	06c10613          	addi	a2,sp,108
   15680:	00065783          	lhu	a5,0(a2)
   15684:	0005d803          	lhu	a6,0(a1)
   15688:	ffe60613          	addi	a2,a2,-2
   1568c:	40a787b3          	sub	a5,a5,a0
   15690:	410787b3          	sub	a5,a5,a6
   15694:	00f61123          	sh	a5,2(a2)
   15698:	0107d793          	srli	a5,a5,0x10
   1569c:	ffe58593          	addi	a1,a1,-2
   156a0:	0017f513          	andi	a0,a5,1
   156a4:	fd461ee3          	bne	a2,s4,15680 <ediv+0x418>
   156a8:	03c10613          	addi	a2,sp,60
   156ac:	05810793          	addi	a5,sp,88
   156b0:	00278793          	addi	a5,a5,2
   156b4:	00260613          	addi	a2,a2,2
   156b8:	ffe7d503          	lhu	a0,-2(a5)
   156bc:	ffe65583          	lhu	a1,-2(a2)
   156c0:	00b51863          	bne	a0,a1,156d0 <ediv+0x468>
   156c4:	ff2796e3          	bne	a5,s2,156b0 <ediv+0x448>
   156c8:	00088c93          	mv	s9,a7
   156cc:	e95ff06f          	j	15560 <ediv+0x2f8>
   156d0:	fea5fce3          	bgeu	a1,a0,156c8 <ediv+0x460>
   156d4:	ffec8693          	addi	a3,s9,-2
   156d8:	01069c93          	slli	s9,a3,0x10
   156dc:	010cdc93          	srli	s9,s9,0x10
   156e0:	00000513          	li	a0,0
   156e4:	03410593          	addi	a1,sp,52
   156e8:	06c10613          	addi	a2,sp,108
   156ec:	00065783          	lhu	a5,0(a2)
   156f0:	0005d803          	lhu	a6,0(a1)
   156f4:	ffe60613          	addi	a2,a2,-2
   156f8:	40a787b3          	sub	a5,a5,a0
   156fc:	410787b3          	sub	a5,a5,a6
   15700:	00f61123          	sh	a5,2(a2)
   15704:	0107d793          	srli	a5,a5,0x10
   15708:	ffe58593          	addi	a1,a1,-2
   1570c:	0017f513          	andi	a0,a5,1
   15710:	fd461ee3          	bne	a2,s4,156ec <ediv+0x484>
   15714:	e4dff06f          	j	15560 <ediv+0x2f8>
   15718:	01440793          	addi	a5,s0,20
   1571c:	00240413          	addi	s0,s0,2
   15720:	fe041f23          	sh	zero,-2(s0)
   15724:	fe879ce3          	bne	a5,s0,1571c <ediv+0x4b4>
   15728:	c0dff06f          	j	15334 <ediv+0xcc>
   1572c:	01c15703          	lhu	a4,28(sp)
   15730:	03815783          	lhu	a5,56(sp)
   15734:	00f70463          	beq	a4,a5,1573c <ediv+0x4d4>
   15738:	00008637          	lui	a2,0x8
   1573c:	00c41923          	sh	a2,18(s0)
   15740:	01240713          	addi	a4,s0,18
   15744:	00040793          	mv	a5,s0
   15748:	00278793          	addi	a5,a5,2
   1574c:	fe079f23          	sh	zero,-2(a5)
   15750:	fef71ce3          	bne	a4,a5,15748 <ediv+0x4e0>
   15754:	01245783          	lhu	a5,18(s0)
   15758:	00008737          	lui	a4,0x8
   1575c:	fff70713          	addi	a4,a4,-1 # 7fff <_start-0x8001>
   15760:	00e7e7b3          	or	a5,a5,a4
   15764:	00f41923          	sh	a5,18(s0)
   15768:	bcdff06f          	j	15334 <ediv+0xcc>

0001576c <e113toe.isra.8>:
   1576c:	fd010113          	addi	sp,sp,-48
   15770:	02812423          	sw	s0,40(sp)
   15774:	02112623          	sw	ra,44(sp)
   15778:	00058413          	mv	s0,a1
   1577c:	00410793          	addi	a5,sp,4
   15780:	01e10713          	addi	a4,sp,30
   15784:	00278793          	addi	a5,a5,2
   15788:	fe079f23          	sh	zero,-2(a5)
   1578c:	fee79ce3          	bne	a5,a4,15784 <e113toe.isra.8+0x18>
   15790:	00e55603          	lhu	a2,14(a0)
   15794:	01061793          	slli	a5,a2,0x10
   15798:	4107d793          	srai	a5,a5,0x10
   1579c:	0607ca63          	bltz	a5,15810 <e113toe.isra.8+0xa4>
   157a0:	000087b7          	lui	a5,0x8
   157a4:	fff78793          	addi	a5,a5,-1 # 7fff <_start-0x8001>
   157a8:	00011223          	sh	zero,4(sp)
   157ac:	00f67633          	and	a2,a2,a5
   157b0:	06f60c63          	beq	a2,a5,15828 <e113toe.isra.8+0xbc>
   157b4:	00e50793          	addi	a5,a0,14
   157b8:	00c11323          	sh	a2,6(sp)
   157bc:	00a10713          	addi	a4,sp,10
   157c0:	ffe78793          	addi	a5,a5,-2
   157c4:	0007d683          	lhu	a3,0(a5)
   157c8:	00270713          	addi	a4,a4,2
   157cc:	fed71f23          	sh	a3,-2(a4)
   157d0:	fef518e3          	bne	a0,a5,157c0 <e113toe.isra.8+0x54>
   157d4:	02061263          	bnez	a2,157f8 <e113toe.isra.8+0x8c>
   157d8:	00011423          	sh	zero,8(sp)
   157dc:	00040593          	mv	a1,s0
   157e0:	00410513          	addi	a0,sp,4
   157e4:	dccff0ef          	jal	ra,14db0 <emovo.isra.6>
   157e8:	02c12083          	lw	ra,44(sp)
   157ec:	02812403          	lw	s0,40(sp)
   157f0:	03010113          	addi	sp,sp,48
   157f4:	00008067          	ret
   157f8:	00100793          	li	a5,1
   157fc:	fff00593          	li	a1,-1
   15800:	00410513          	addi	a0,sp,4
   15804:	00f11423          	sh	a5,8(sp)
   15808:	d15fe0ef          	jal	ra,1451c <eshift.part.3>
   1580c:	fd1ff06f          	j	157dc <e113toe.isra.8+0x70>
   15810:	fff00793          	li	a5,-1
   15814:	00f11223          	sh	a5,4(sp)
   15818:	000087b7          	lui	a5,0x8
   1581c:	fff78793          	addi	a5,a5,-1 # 7fff <_start-0x8001>
   15820:	00f67633          	and	a2,a2,a5
   15824:	f8f618e3          	bne	a2,a5,157b4 <e113toe.isra.8+0x48>
   15828:	00050793          	mv	a5,a0
   1582c:	00e50693          	addi	a3,a0,14
   15830:	0007d703          	lhu	a4,0(a5)
   15834:	00278793          	addi	a5,a5,2
   15838:	04071c63          	bnez	a4,15890 <e113toe.isra.8+0x124>
   1583c:	fef69ae3          	bne	a3,a5,15830 <e113toe.isra.8+0xc4>
   15840:	01440713          	addi	a4,s0,20
   15844:	00040793          	mv	a5,s0
   15848:	00278793          	addi	a5,a5,2
   1584c:	fe079f23          	sh	zero,-2(a5)
   15850:	fee79ce3          	bne	a5,a4,15848 <e113toe.isra.8+0xdc>
   15854:	01240713          	addi	a4,s0,18
   15858:	00040793          	mv	a5,s0
   1585c:	00278793          	addi	a5,a5,2
   15860:	fe079f23          	sh	zero,-2(a5)
   15864:	fee79ce3          	bne	a5,a4,1585c <e113toe.isra.8+0xf0>
   15868:	01245783          	lhu	a5,18(s0)
   1586c:	00008737          	lui	a4,0x8
   15870:	fff70713          	addi	a4,a4,-1 # 7fff <_start-0x8001>
   15874:	00e7e7b3          	or	a5,a5,a4
   15878:	00f41923          	sh	a5,18(s0)
   1587c:	00e51783          	lh	a5,14(a0)
   15880:	f607d4e3          	bgez	a5,157e8 <e113toe.isra.8+0x7c>
   15884:	00040513          	mv	a0,s0
   15888:	9e9fe0ef          	jal	ra,14270 <eneg>
   1588c:	f5dff06f          	j	157e8 <e113toe.isra.8+0x7c>
   15890:	01040713          	addi	a4,s0,16
   15894:	00040793          	mv	a5,s0
   15898:	00278793          	addi	a5,a5,2
   1589c:	fe079f23          	sh	zero,-2(a5)
   158a0:	fee79ce3          	bne	a5,a4,15898 <e113toe.isra.8+0x12c>
   158a4:	7fffc7b7          	lui	a5,0x7fffc
   158a8:	00f42823          	sw	a5,16(s0)
   158ac:	f3dff06f          	j	157e8 <e113toe.isra.8+0x7c>

000158b0 <_ldtoa_r>:
   158b0:	0005ae83          	lw	t4,0(a1)
   158b4:	0045ae03          	lw	t3,4(a1)
   158b8:	0085a303          	lw	t1,8(a1)
   158bc:	00c5a583          	lw	a1,12(a1)
   158c0:	e1010113          	addi	sp,sp,-496
   158c4:	04052883          	lw	a7,64(a0)
   158c8:	02b12e23          	sw	a1,60(sp)
   158cc:	fff00593          	li	a1,-1
   158d0:	16b12023          	sw	a1,352(sp)
   158d4:	09000593          	li	a1,144
   158d8:	1e812423          	sw	s0,488(sp)
   158dc:	1d612823          	sw	s6,464(sp)
   158e0:	1e112623          	sw	ra,492(sp)
   158e4:	1e912223          	sw	s1,484(sp)
   158e8:	1f212023          	sw	s2,480(sp)
   158ec:	1d312e23          	sw	s3,476(sp)
   158f0:	1d412c23          	sw	s4,472(sp)
   158f4:	1d512a23          	sw	s5,468(sp)
   158f8:	1d712623          	sw	s7,460(sp)
   158fc:	1d812423          	sw	s8,456(sp)
   15900:	1d912223          	sw	s9,452(sp)
   15904:	1da12023          	sw	s10,448(sp)
   15908:	1bb12e23          	sw	s11,444(sp)
   1590c:	03d12823          	sw	t4,48(sp)
   15910:	03c12a23          	sw	t3,52(sp)
   15914:	02612c23          	sw	t1,56(sp)
   15918:	16b12223          	sw	a1,356(sp)
   1591c:	00c12423          	sw	a2,8(sp)
   15920:	00d12823          	sw	a3,16(sp)
   15924:	00e12a23          	sw	a4,20(sp)
   15928:	03012023          	sw	a6,32(sp)
   1592c:	00050b13          	mv	s6,a0
   15930:	00078413          	mv	s0,a5
   15934:	02088263          	beqz	a7,15958 <_ldtoa_r+0xa8>
   15938:	04452703          	lw	a4,68(a0)
   1593c:	00100793          	li	a5,1
   15940:	00088593          	mv	a1,a7
   15944:	00e797b3          	sll	a5,a5,a4
   15948:	00e8a223          	sw	a4,4(a7)
   1594c:	00f8a423          	sw	a5,8(a7)
   15950:	771010ef          	jal	ra,178c0 <_Bfree>
   15954:	040b2023          	sw	zero,64(s6)
   15958:	06010a13          	addi	s4,sp,96
   1595c:	000a0593          	mv	a1,s4
   15960:	03010513          	addi	a0,sp,48
   15964:	e09ff0ef          	jal	ra,1576c <e113toe.isra.8>
   15968:	000a0513          	mv	a0,s4
   1596c:	951fe0ef          	jal	ra,142bc <eisneg>
   15970:	00812703          	lw	a4,8(sp)
   15974:	00a03533          	snez	a0,a0
   15978:	00a42023          	sw	a0,0(s0)
   1597c:	00300793          	li	a5,3
   15980:	1af704e3          	beq	a4,a5,16328 <_ldtoa_r+0xa78>
   15984:	01400793          	li	a5,20
   15988:	00f12623          	sw	a5,12(sp)
   1598c:	600710e3          	bnez	a4,1678c <_ldtoa_r+0xedc>
   15990:	07215783          	lhu	a5,114(sp)
   15994:	16412703          	lw	a4,356(sp)
   15998:	fff7c793          	not	a5,a5
   1599c:	00e12e23          	sw	a4,28(sp)
   159a0:	01179713          	slli	a4,a5,0x11
   159a4:	00071863          	bnez	a4,159b4 <_ldtoa_r+0x104>
   159a8:	000a0513          	mv	a0,s4
   159ac:	8a1fe0ef          	jal	ra,1424c <eisnan.part.0>
   159b0:	420514e3          	bnez	a0,165d8 <_ldtoa_r+0xd28>
   159b4:	09000793          	li	a5,144
   159b8:	16f12223          	sw	a5,356(sp)
   159bc:	07c10713          	addi	a4,sp,124
   159c0:	000a0793          	mv	a5,s4
   159c4:	07410613          	addi	a2,sp,116
   159c8:	00278793          	addi	a5,a5,2 # 7fffc002 <__global_pointer$+0x7ffd4a92>
   159cc:	ffe7d683          	lhu	a3,-2(a5)
   159d0:	00270713          	addi	a4,a4,2
   159d4:	fed71f23          	sh	a3,-2(a4)
   159d8:	fec798e3          	bne	a5,a2,159c8 <_ldtoa_r+0x118>
   159dc:	08e15603          	lhu	a2,142(sp)
   159e0:	00012c23          	sw	zero,24(sp)
   159e4:	01061793          	slli	a5,a2,0x10
   159e8:	4107d793          	srai	a5,a5,0x10
   159ec:	0007de63          	bgez	a5,15a08 <_ldtoa_r+0x158>
   159f0:	01161613          	slli	a2,a2,0x11
   159f4:	000107b7          	lui	a5,0x10
   159f8:	01165613          	srli	a2,a2,0x11
   159fc:	fff78793          	addi	a5,a5,-1 # ffff <_start-0x1>
   15a00:	08c11723          	sh	a2,142(sp)
   15a04:	00f12c23          	sw	a5,24(sp)
   15a08:	00000693          	li	a3,0
   15a0c:	09810793          	addi	a5,sp,152
   15a10:	0000f717          	auipc	a4,0xf
   15a14:	dfc70713          	addi	a4,a4,-516 # 2480c <eone>
   15a18:	0ac10d93          	addi	s11,sp,172
   15a1c:	0080006f          	j	15a24 <_ldtoa_r+0x174>
   15a20:	00075683          	lhu	a3,0(a4)
   15a24:	00278793          	addi	a5,a5,2
   15a28:	fed79f23          	sh	a3,-2(a5)
   15a2c:	00270713          	addi	a4,a4,2
   15a30:	ffb798e3          	bne	a5,s11,15a20 <_ldtoa_r+0x170>
   15a34:	16060663          	beqz	a2,15ba0 <_ldtoa_r+0x2f0>
   15a38:	000087b7          	lui	a5,0x8
   15a3c:	fff78793          	addi	a5,a5,-1 # 7fff <_start-0x8001>
   15a40:	58f602e3          	beq	a2,a5,167c4 <_ldtoa_r+0xf14>
   15a44:	08c11783          	lh	a5,140(sp)
   15a48:	6007d4e3          	bgez	a5,16850 <_ldtoa_r+0xfa0>
   15a4c:	07c10593          	addi	a1,sp,124
   15a50:	0000f517          	auipc	a0,0xf
   15a54:	dbc50513          	addi	a0,a0,-580 # 2480c <eone>
   15a58:	98dfe0ef          	jal	ra,143e4 <ecmp>
   15a5c:	14050e63          	beqz	a0,15bb8 <_ldtoa_r+0x308>
   15a60:	0e054ae3          	bltz	a0,16354 <_ldtoa_r+0xaa4>
   15a64:	08e15783          	lhu	a5,142(sp)
   15a68:	680790e3          	bnez	a5,168e8 <_ldtoa_r+0x1038>
   15a6c:	08c11783          	lh	a5,140(sp)
   15a70:	00000493          	li	s1,0
   15a74:	16010993          	addi	s3,sp,352
   15a78:	0207c663          	bltz	a5,15aa4 <_ldtoa_r+0x1f4>
   15a7c:	0000f417          	auipc	s0,0xf
   15a80:	e9440413          	addi	s0,s0,-364 # 24910 <etens+0xf0>
   15a84:	07c10613          	addi	a2,sp,124
   15a88:	00098693          	mv	a3,s3
   15a8c:	00060593          	mv	a1,a2
   15a90:	00040513          	mv	a0,s0
   15a94:	bccff0ef          	jal	ra,14e60 <emul>
   15a98:	08c11783          	lh	a5,140(sp)
   15a9c:	fff48493          	addi	s1,s1,-1
   15aa0:	fe07d2e3          	bgez	a5,15a84 <_ldtoa_r+0x1d4>
   15aa4:	0d010413          	addi	s0,sp,208
   15aa8:	0e810b93          	addi	s7,sp,232
   15aac:	00040713          	mv	a4,s0
   15ab0:	07c10793          	addi	a5,sp,124
   15ab4:	09010613          	addi	a2,sp,144
   15ab8:	00278793          	addi	a5,a5,2
   15abc:	ffe7d683          	lhu	a3,-2(a5)
   15ac0:	00270713          	addi	a4,a4,2
   15ac4:	fed71f23          	sh	a3,-2(a4)
   15ac8:	fec798e3          	bne	a5,a2,15ab8 <_ldtoa_r+0x208>
   15acc:	00000693          	li	a3,0
   15ad0:	09810793          	addi	a5,sp,152
   15ad4:	0000f717          	auipc	a4,0xf
   15ad8:	d3870713          	addi	a4,a4,-712 # 2480c <eone>
   15adc:	0080006f          	j	15ae4 <_ldtoa_r+0x234>
   15ae0:	00075683          	lhu	a3,0(a4)
   15ae4:	00278793          	addi	a5,a5,2
   15ae8:	fed79f23          	sh	a3,-2(a5)
   15aec:	00270713          	addi	a4,a4,2
   15af0:	ffb798e3          	bne	a5,s11,15ae0 <_ldtoa_r+0x230>
   15af4:	fffff937          	lui	s2,0xfffff
   15af8:	0000fa97          	auipc	s5,0xf
   15afc:	d28a8a93          	addi	s5,s5,-728 # 24820 <etens>
   15b00:	0000fc97          	auipc	s9,0xf
   15b04:	e24c8c93          	addi	s9,s9,-476 # 24924 <emtens>
   15b08:	0000fd17          	auipc	s10,0xf
   15b0c:	d04d0d13          	addi	s10,s10,-764 # 2480c <eone>
   15b10:	0000fd97          	auipc	s11,0xf
   15b14:	e00d8d93          	addi	s11,s11,-512 # 24910 <etens+0xf0>
   15b18:	00c0006f          	j	15b24 <_ldtoa_r+0x274>
   15b1c:	014c8c93          	addi	s9,s9,20
   15b20:	014a8a93          	addi	s5,s5,20
   15b24:	00040593          	mv	a1,s0
   15b28:	000d0513          	mv	a0,s10
   15b2c:	8b9fe0ef          	jal	ra,143e4 <ecmp>
   15b30:	00040593          	mv	a1,s0
   15b34:	04a05663          	blez	a0,15b80 <_ldtoa_r+0x2d0>
   15b38:	000c8513          	mv	a0,s9
   15b3c:	8a9fe0ef          	jal	ra,143e4 <ecmp>
   15b40:	00098693          	mv	a3,s3
   15b44:	00040613          	mv	a2,s0
   15b48:	00040593          	mv	a1,s0
   15b4c:	02054263          	bltz	a0,15b70 <_ldtoa_r+0x2c0>
   15b50:	000a8513          	mv	a0,s5
   15b54:	b0cff0ef          	jal	ra,14e60 <emul>
   15b58:	09810613          	addi	a2,sp,152
   15b5c:	00098693          	mv	a3,s3
   15b60:	00060593          	mv	a1,a2
   15b64:	000a8513          	mv	a0,s5
   15b68:	af8ff0ef          	jal	ra,14e60 <emul>
   15b6c:	012484b3          	add	s1,s1,s2
   15b70:	01f95793          	srli	a5,s2,0x1f
   15b74:	01278933          	add	s2,a5,s2
   15b78:	40195913          	srai	s2,s2,0x1
   15b7c:	fbba90e3          	bne	s5,s11,15b1c <_ldtoa_r+0x26c>
   15b80:	09810613          	addi	a2,sp,152
   15b84:	00098693          	mv	a3,s3
   15b88:	0000f597          	auipc	a1,0xf
   15b8c:	c8458593          	addi	a1,a1,-892 # 2480c <eone>
   15b90:	00060513          	mv	a0,a2
   15b94:	ed4ff0ef          	jal	ra,15268 <ediv>
   15b98:	12410913          	addi	s2,sp,292
   15b9c:	0300006f          	j	15bcc <_ldtoa_r+0x31c>
   15ba0:	07c10793          	addi	a5,sp,124
   15ba4:	08e10693          	addi	a3,sp,142
   15ba8:	0007d703          	lhu	a4,0(a5)
   15bac:	00278793          	addi	a5,a5,2
   15bb0:	e8071ee3          	bnez	a4,15a4c <_ldtoa_r+0x19c>
   15bb4:	fef69ae3          	bne	a3,a5,15ba8 <_ldtoa_r+0x2f8>
   15bb8:	00000493          	li	s1,0
   15bbc:	12410913          	addi	s2,sp,292
   15bc0:	16010993          	addi	s3,sp,352
   15bc4:	0d010413          	addi	s0,sp,208
   15bc8:	0e810b93          	addi	s7,sp,232
   15bcc:	00040593          	mv	a1,s0
   15bd0:	09810513          	addi	a0,sp,152
   15bd4:	f28fe0ef          	jal	ra,142fc <emovi>
   15bd8:	09810713          	addi	a4,sp,152
   15bdc:	00040793          	mv	a5,s0
   15be0:	00278793          	addi	a5,a5,2
   15be4:	ffe7d683          	lhu	a3,-2(a5)
   15be8:	00270713          	addi	a4,a4,2
   15bec:	fed71f23          	sh	a3,-2(a4)
   15bf0:	ff7798e3          	bne	a5,s7,15be0 <_ldtoa_r+0x330>
   15bf4:	00040593          	mv	a1,s0
   15bf8:	07c10513          	addi	a0,sp,124
   15bfc:	0a011823          	sh	zero,176(sp)
   15c00:	efcfe0ef          	jal	ra,142fc <emovi>
   15c04:	07c10793          	addi	a5,sp,124
   15c08:	00240413          	addi	s0,s0,2
   15c0c:	ffe45703          	lhu	a4,-2(s0)
   15c10:	00278793          	addi	a5,a5,2
   15c14:	fee79f23          	sh	a4,-2(a5)
   15c18:	ff7418e3          	bne	s0,s7,15c08 <_ldtoa_r+0x358>
   15c1c:	09810513          	addi	a0,sp,152
   15c20:	00098613          	mv	a2,s3
   15c24:	07c10593          	addi	a1,sp,124
   15c28:	08011a23          	sh	zero,148(sp)
   15c2c:	820ff0ef          	jal	ra,14c4c <eiremain>
   15c30:	1ac15503          	lhu	a0,428(sp)
   15c34:	1c051863          	bnez	a0,15e04 <_ldtoa_r+0x554>
   15c38:	0000fa97          	auipc	s5,0xf
   15c3c:	bc0a8a93          	addi	s5,s5,-1088 # 247f8 <ezero>
   15c40:	09410d13          	addi	s10,sp,148
   15c44:	07e10413          	addi	s0,sp,126
   15c48:	0b610c93          	addi	s9,sp,182
   15c4c:	000a8593          	mv	a1,s5
   15c50:	07c10513          	addi	a0,sp,124
   15c54:	f90fe0ef          	jal	ra,143e4 <ecmp>
   15c58:	1a050663          	beqz	a0,15e04 <_ldtoa_r+0x554>
   15c5c:	00000713          	li	a4,0
   15c60:	000d0693          	mv	a3,s10
   15c64:	01c0006f          	j	15c80 <_ldtoa_r+0x3d0>
   15c68:	00171713          	slli	a4,a4,0x1
   15c6c:	00f69023          	sh	a5,0(a3)
   15c70:	01071713          	slli	a4,a4,0x10
   15c74:	ffe68693          	addi	a3,a3,-2
   15c78:	01075713          	srli	a4,a4,0x10
   15c7c:	04868463          	beq	a3,s0,15cc4 <_ldtoa_r+0x414>
   15c80:	0006d783          	lhu	a5,0(a3)
   15c84:	01079613          	slli	a2,a5,0x10
   15c88:	41065613          	srai	a2,a2,0x10
   15c8c:	00179793          	slli	a5,a5,0x1
   15c90:	00065463          	bgez	a2,15c98 <_ldtoa_r+0x3e8>
   15c94:	00176713          	ori	a4,a4,1
   15c98:	01079793          	slli	a5,a5,0x10
   15c9c:	0107d793          	srli	a5,a5,0x10
   15ca0:	00277613          	andi	a2,a4,2
   15ca4:	0017e593          	ori	a1,a5,1
   15ca8:	fc0600e3          	beqz	a2,15c68 <_ldtoa_r+0x3b8>
   15cac:	00171713          	slli	a4,a4,0x1
   15cb0:	00b69023          	sh	a1,0(a3)
   15cb4:	01071713          	slli	a4,a4,0x10
   15cb8:	ffe68693          	addi	a3,a3,-2
   15cbc:	01075713          	srli	a4,a4,0x10
   15cc0:	fc8690e3          	bne	a3,s0,15c80 <_ldtoa_r+0x3d0>
   15cc4:	0b410713          	addi	a4,sp,180
   15cc8:	07c10793          	addi	a5,sp,124
   15ccc:	00278793          	addi	a5,a5,2
   15cd0:	ffe7d683          	lhu	a3,-2(a5)
   15cd4:	00270713          	addi	a4,a4,2
   15cd8:	fed71f23          	sh	a3,-2(a4)
   15cdc:	ffa798e3          	bne	a5,s10,15ccc <_ldtoa_r+0x41c>
   15ce0:	0c011623          	sh	zero,204(sp)
   15ce4:	00000713          	li	a4,0
   15ce8:	0cc10693          	addi	a3,sp,204
   15cec:	01c0006f          	j	15d08 <_ldtoa_r+0x458>
   15cf0:	00171713          	slli	a4,a4,0x1
   15cf4:	00f69023          	sh	a5,0(a3)
   15cf8:	01071713          	slli	a4,a4,0x10
   15cfc:	ffe68693          	addi	a3,a3,-2
   15d00:	01075713          	srli	a4,a4,0x10
   15d04:	05968463          	beq	a3,s9,15d4c <_ldtoa_r+0x49c>
   15d08:	0006d783          	lhu	a5,0(a3)
   15d0c:	01079613          	slli	a2,a5,0x10
   15d10:	41065613          	srai	a2,a2,0x10
   15d14:	00179793          	slli	a5,a5,0x1
   15d18:	00065463          	bgez	a2,15d20 <_ldtoa_r+0x470>
   15d1c:	00176713          	ori	a4,a4,1
   15d20:	01079793          	slli	a5,a5,0x10
   15d24:	0107d793          	srli	a5,a5,0x10
   15d28:	00277613          	andi	a2,a4,2
   15d2c:	0017e593          	ori	a1,a5,1
   15d30:	fc0600e3          	beqz	a2,15cf0 <_ldtoa_r+0x440>
   15d34:	00171713          	slli	a4,a4,0x1
   15d38:	00b69023          	sh	a1,0(a3)
   15d3c:	01071713          	slli	a4,a4,0x10
   15d40:	ffe68693          	addi	a3,a3,-2
   15d44:	01075713          	srli	a4,a4,0x10
   15d48:	fd9690e3          	bne	a3,s9,15d08 <_ldtoa_r+0x458>
   15d4c:	00000713          	li	a4,0
   15d50:	0cc10693          	addi	a3,sp,204
   15d54:	01c0006f          	j	15d70 <_ldtoa_r+0x4c0>
   15d58:	00171713          	slli	a4,a4,0x1
   15d5c:	00f69023          	sh	a5,0(a3)
   15d60:	01071713          	slli	a4,a4,0x10
   15d64:	ffe68693          	addi	a3,a3,-2
   15d68:	01075713          	srli	a4,a4,0x10
   15d6c:	05968463          	beq	a3,s9,15db4 <_ldtoa_r+0x504>
   15d70:	0006d783          	lhu	a5,0(a3)
   15d74:	01079613          	slli	a2,a5,0x10
   15d78:	41065613          	srai	a2,a2,0x10
   15d7c:	00179793          	slli	a5,a5,0x1
   15d80:	00065463          	bgez	a2,15d88 <_ldtoa_r+0x4d8>
   15d84:	00176713          	ori	a4,a4,1
   15d88:	01079793          	slli	a5,a5,0x10
   15d8c:	0107d793          	srli	a5,a5,0x10
   15d90:	00277613          	andi	a2,a4,2
   15d94:	0017e593          	ori	a1,a5,1
   15d98:	fc0600e3          	beqz	a2,15d58 <_ldtoa_r+0x4a8>
   15d9c:	00171713          	slli	a4,a4,0x1
   15da0:	00b69023          	sh	a1,0(a3)
   15da4:	01071713          	slli	a4,a4,0x10
   15da8:	ffe68693          	addi	a3,a3,-2
   15dac:	01075713          	srli	a4,a4,0x10
   15db0:	fd9690e3          	bne	a3,s9,15d70 <_ldtoa_r+0x4c0>
   15db4:	00000613          	li	a2,0
   15db8:	000d0693          	mv	a3,s10
   15dbc:	0cc10713          	addi	a4,sp,204
   15dc0:	0006d583          	lhu	a1,0(a3)
   15dc4:	00075783          	lhu	a5,0(a4)
   15dc8:	ffe68693          	addi	a3,a3,-2
   15dcc:	ffe70713          	addi	a4,a4,-2
   15dd0:	00b787b3          	add	a5,a5,a1
   15dd4:	00c787b3          	add	a5,a5,a2
   15dd8:	00f69123          	sh	a5,2(a3)
   15ddc:	0107d793          	srli	a5,a5,0x10
   15de0:	0017f613          	andi	a2,a5,1
   15de4:	fd971ee3          	bne	a4,s9,15dc0 <_ldtoa_r+0x510>
   15de8:	09810513          	addi	a0,sp,152
   15dec:	00098613          	mv	a2,s3
   15df0:	07c10593          	addi	a1,sp,124
   15df4:	e59fe0ef          	jal	ra,14c4c <eiremain>
   15df8:	1ac15503          	lhu	a0,428(sp)
   15dfc:	fff48493          	addi	s1,s1,-1
   15e00:	e40506e3          	beqz	a0,15c4c <_ldtoa_r+0x39c>
   15e04:	01812783          	lw	a5,24(sp)
   15e08:	00812703          	lw	a4,8(sp)
   15e0c:	00c12403          	lw	s0,12(sp)
   15e10:	00f037b3          	snez	a5,a5
   15e14:	40f007b3          	neg	a5,a5
   15e18:	00d7f793          	andi	a5,a5,13
   15e1c:	02078793          	addi	a5,a5,32
   15e20:	12f10223          	sb	a5,292(sp)
   15e24:	00300793          	li	a5,3
   15e28:	02f70463          	beq	a4,a5,15e50 <_ldtoa_r+0x5a0>
   15e2c:	00a00793          	li	a5,10
   15e30:	1ef502e3          	beq	a0,a5,16814 <_ldtoa_r+0xf64>
   15e34:	03050513          	addi	a0,a0,48
   15e38:	02e00793          	li	a5,46
   15e3c:	12a102a3          	sb	a0,293(sp)
   15e40:	12f10323          	sb	a5,294(sp)
   15e44:	78044263          	bltz	s0,165c8 <_ldtoa_r+0xd18>
   15e48:	12710c93          	addi	s9,sp,295
   15e4c:	0300006f          	j	15e7c <_ldtoa_r+0x5cc>
   15e50:	00940433          	add	s0,s0,s1
   15e54:	02a00793          	li	a5,42
   15e58:	fc87dae3          	bge	a5,s0,15e2c <_ldtoa_r+0x57c>
   15e5c:	00a00793          	li	a5,10
   15e60:	18f506e3          	beq	a0,a5,167ec <_ldtoa_r+0xf3c>
   15e64:	03050513          	addi	a0,a0,48
   15e68:	02e00793          	li	a5,46
   15e6c:	12a102a3          	sb	a0,293(sp)
   15e70:	12f10323          	sb	a5,294(sp)
   15e74:	02a00413          	li	s0,42
   15e78:	12710c93          	addi	s9,sp,295
   15e7c:	00000c13          	li	s8,0
   15e80:	0b410a93          	addi	s5,sp,180
   15e84:	09410d93          	addi	s11,sp,148
   15e88:	07e10b93          	addi	s7,sp,126
   15e8c:	0b610d13          	addi	s10,sp,182
   15e90:	00000713          	li	a4,0
   15e94:	000d8693          	mv	a3,s11
   15e98:	01c0006f          	j	15eb4 <_ldtoa_r+0x604>
   15e9c:	00171713          	slli	a4,a4,0x1
   15ea0:	00f69023          	sh	a5,0(a3)
   15ea4:	01071713          	slli	a4,a4,0x10
   15ea8:	ffe68693          	addi	a3,a3,-2
   15eac:	01075713          	srli	a4,a4,0x10
   15eb0:	05768463          	beq	a3,s7,15ef8 <_ldtoa_r+0x648>
   15eb4:	0006d783          	lhu	a5,0(a3)
   15eb8:	01079613          	slli	a2,a5,0x10
   15ebc:	41065613          	srai	a2,a2,0x10
   15ec0:	00179793          	slli	a5,a5,0x1
   15ec4:	00065463          	bgez	a2,15ecc <_ldtoa_r+0x61c>
   15ec8:	00176713          	ori	a4,a4,1
   15ecc:	01079793          	slli	a5,a5,0x10
   15ed0:	0107d793          	srli	a5,a5,0x10
   15ed4:	00277613          	andi	a2,a4,2
   15ed8:	0017e593          	ori	a1,a5,1
   15edc:	fc0600e3          	beqz	a2,15e9c <_ldtoa_r+0x5ec>
   15ee0:	00171713          	slli	a4,a4,0x1
   15ee4:	00b69023          	sh	a1,0(a3)
   15ee8:	01071713          	slli	a4,a4,0x10
   15eec:	ffe68693          	addi	a3,a3,-2
   15ef0:	01075713          	srli	a4,a4,0x10
   15ef4:	fd7690e3          	bne	a3,s7,15eb4 <_ldtoa_r+0x604>
   15ef8:	000a8713          	mv	a4,s5
   15efc:	07c10793          	addi	a5,sp,124
   15f00:	00278793          	addi	a5,a5,2
   15f04:	ffe7d683          	lhu	a3,-2(a5)
   15f08:	00270713          	addi	a4,a4,2
   15f0c:	fed71f23          	sh	a3,-2(a4)
   15f10:	ffb798e3          	bne	a5,s11,15f00 <_ldtoa_r+0x650>
   15f14:	0c011623          	sh	zero,204(sp)
   15f18:	00000713          	li	a4,0
   15f1c:	0cc10693          	addi	a3,sp,204
   15f20:	01c0006f          	j	15f3c <_ldtoa_r+0x68c>
   15f24:	00171713          	slli	a4,a4,0x1
   15f28:	00f69023          	sh	a5,0(a3)
   15f2c:	01071713          	slli	a4,a4,0x10
   15f30:	ffe68693          	addi	a3,a3,-2
   15f34:	01075713          	srli	a4,a4,0x10
   15f38:	05a68463          	beq	a3,s10,15f80 <_ldtoa_r+0x6d0>
   15f3c:	0006d783          	lhu	a5,0(a3)
   15f40:	01079613          	slli	a2,a5,0x10
   15f44:	41065613          	srai	a2,a2,0x10
   15f48:	00179793          	slli	a5,a5,0x1
   15f4c:	00065463          	bgez	a2,15f54 <_ldtoa_r+0x6a4>
   15f50:	00176713          	ori	a4,a4,1
   15f54:	01079793          	slli	a5,a5,0x10
   15f58:	0107d793          	srli	a5,a5,0x10
   15f5c:	00277613          	andi	a2,a4,2
   15f60:	0017e593          	ori	a1,a5,1
   15f64:	fc0600e3          	beqz	a2,15f24 <_ldtoa_r+0x674>
   15f68:	00171713          	slli	a4,a4,0x1
   15f6c:	00b69023          	sh	a1,0(a3)
   15f70:	01071713          	slli	a4,a4,0x10
   15f74:	ffe68693          	addi	a3,a3,-2
   15f78:	01075713          	srli	a4,a4,0x10
   15f7c:	fda690e3          	bne	a3,s10,15f3c <_ldtoa_r+0x68c>
   15f80:	00000713          	li	a4,0
   15f84:	0cc10693          	addi	a3,sp,204
   15f88:	01c0006f          	j	15fa4 <_ldtoa_r+0x6f4>
   15f8c:	00171713          	slli	a4,a4,0x1
   15f90:	00f69023          	sh	a5,0(a3)
   15f94:	01071713          	slli	a4,a4,0x10
   15f98:	ffe68693          	addi	a3,a3,-2
   15f9c:	01075713          	srli	a4,a4,0x10
   15fa0:	05a68463          	beq	a3,s10,15fe8 <_ldtoa_r+0x738>
   15fa4:	0006d783          	lhu	a5,0(a3)
   15fa8:	01079613          	slli	a2,a5,0x10
   15fac:	41065613          	srai	a2,a2,0x10
   15fb0:	00179793          	slli	a5,a5,0x1
   15fb4:	00065463          	bgez	a2,15fbc <_ldtoa_r+0x70c>
   15fb8:	00176713          	ori	a4,a4,1
   15fbc:	01079793          	slli	a5,a5,0x10
   15fc0:	0107d793          	srli	a5,a5,0x10
   15fc4:	00277613          	andi	a2,a4,2
   15fc8:	0017e593          	ori	a1,a5,1
   15fcc:	fc0600e3          	beqz	a2,15f8c <_ldtoa_r+0x6dc>
   15fd0:	00171713          	slli	a4,a4,0x1
   15fd4:	00b69023          	sh	a1,0(a3)
   15fd8:	01071713          	slli	a4,a4,0x10
   15fdc:	ffe68693          	addi	a3,a3,-2
   15fe0:	01075713          	srli	a4,a4,0x10
   15fe4:	fda690e3          	bne	a3,s10,15fa4 <_ldtoa_r+0x6f4>
   15fe8:	00000613          	li	a2,0
   15fec:	000d8693          	mv	a3,s11
   15ff0:	0cc10713          	addi	a4,sp,204
   15ff4:	0006d583          	lhu	a1,0(a3)
   15ff8:	00075783          	lhu	a5,0(a4)
   15ffc:	ffe68693          	addi	a3,a3,-2
   16000:	ffe70713          	addi	a4,a4,-2
   16004:	00b787b3          	add	a5,a5,a1
   16008:	00c787b3          	add	a5,a5,a2
   1600c:	00f69123          	sh	a5,2(a3)
   16010:	0107d793          	srli	a5,a5,0x10
   16014:	0017f613          	andi	a2,a5,1
   16018:	fda71ee3          	bne	a4,s10,15ff4 <_ldtoa_r+0x744>
   1601c:	00098613          	mv	a2,s3
   16020:	07c10593          	addi	a1,sp,124
   16024:	09810513          	addi	a0,sp,152
   16028:	c25fe0ef          	jal	ra,14c4c <eiremain>
   1602c:	1ac15783          	lhu	a5,428(sp)
   16030:	018c8733          	add	a4,s9,s8
   16034:	001c0c13          	addi	s8,s8,1
   16038:	03078693          	addi	a3,a5,48
   1603c:	00d70023          	sb	a3,0(a4)
   16040:	e58458e3          	bge	s0,s8,15e90 <_ldtoa_r+0x5e0>
   16044:	00140993          	addi	s3,s0,1
   16048:	013c89b3          	add	s3,s9,s3
   1604c:	008c8cb3          	add	s9,s9,s0
   16050:	00400713          	li	a4,4
   16054:	06f75e63          	bge	a4,a5,160d0 <_ldtoa_r+0x820>
   16058:	00500713          	li	a4,5
   1605c:	00e78ae3          	beq	a5,a4,16870 <_ldtoa_r+0xfc0>
   16060:	ffe9c783          	lbu	a5,-2(s3)
   16064:	ffe98713          	addi	a4,s3,-2
   16068:	07f7f793          	andi	a5,a5,127
   1606c:	7c044a63          	bltz	s0,16840 <_ldtoa_r+0xf90>
   16070:	02e00693          	li	a3,46
   16074:	04d78263          	beq	a5,a3,160b8 <_ldtoa_r+0x808>
   16078:	00178693          	addi	a3,a5,1
   1607c:	00d70023          	sb	a3,0(a4)
   16080:	03800693          	li	a3,56
   16084:	03000593          	li	a1,48
   16088:	02e00613          	li	a2,46
   1608c:	03800513          	li	a0,56
   16090:	00f6c863          	blt	a3,a5,160a0 <_ldtoa_r+0x7f0>
   16094:	03c0006f          	j	160d0 <_ldtoa_r+0x820>
   16098:	00d70023          	sb	a3,0(a4)
   1609c:	02f57a63          	bgeu	a0,a5,160d0 <_ldtoa_r+0x820>
   160a0:	00b70023          	sb	a1,0(a4)
   160a4:	fff70713          	addi	a4,a4,-1
   160a8:	00074783          	lbu	a5,0(a4)
   160ac:	07f7f793          	andi	a5,a5,127
   160b0:	00178693          	addi	a3,a5,1
   160b4:	fec792e3          	bne	a5,a2,16098 <_ldtoa_r+0x7e8>
   160b8:	fff74783          	lbu	a5,-1(a4)
   160bc:	03800693          	li	a3,56
   160c0:	00f6fee3          	bgeu	a3,a5,168dc <_ldtoa_r+0x102c>
   160c4:	03100793          	li	a5,49
   160c8:	00148493          	addi	s1,s1,1
   160cc:	fef70fa3          	sb	a5,-1(a4)
   160d0:	00048613          	mv	a2,s1
   160d4:	0000f597          	auipc	a1,0xf
   160d8:	99c58593          	addi	a1,a1,-1636 # 24a70 <bmask+0x48>
   160dc:	000c8513          	mv	a0,s9
   160e0:	159020ef          	jal	ra,18a38 <sprintf>
   160e4:	07215783          	lhu	a5,114(sp)
   160e8:	01c12703          	lw	a4,28(sp)
   160ec:	16912823          	sw	s1,368(sp)
   160f0:	fff7c793          	not	a5,a5
   160f4:	16e12223          	sw	a4,356(sp)
   160f8:	01179713          	slli	a4,a5,0x11
   160fc:	00071e63          	bnez	a4,16118 <_ldtoa_r+0x868>
   16100:	000a0513          	mv	a0,s4
   16104:	bfcfe0ef          	jal	ra,14500 <eisinf.part.1>
   16108:	22051c63          	bnez	a0,16340 <_ldtoa_r+0xa90>
   1610c:	000a0513          	mv	a0,s4
   16110:	93cfe0ef          	jal	ra,1424c <eisnan.part.0>
   16114:	22051663          	bnez	a0,16340 <_ldtoa_r+0xa90>
   16118:	01412683          	lw	a3,20(sp)
   1611c:	12414783          	lbu	a5,292(sp)
   16120:	00148713          	addi	a4,s1,1
   16124:	00e6a023          	sw	a4,0(a3)
   16128:	0c078ce3          	beqz	a5,16a00 <_ldtoa_r+0x1150>
   1612c:	02e00713          	li	a4,46
   16130:	06e78063          	beq	a5,a4,16190 <_ldtoa_r+0x8e0>
   16134:	00090793          	mv	a5,s2
   16138:	02e00693          	li	a3,46
   1613c:	0080006f          	j	16144 <_ldtoa_r+0x894>
   16140:	04d70a63          	beq	a4,a3,16194 <_ldtoa_r+0x8e4>
   16144:	00178793          	addi	a5,a5,1
   16148:	0007c703          	lbu	a4,0(a5)
   1614c:	fe071ae3          	bnez	a4,16140 <_ldtoa_r+0x890>
   16150:	04500693          	li	a3,69
   16154:	00f96663          	bltu	s2,a5,16160 <_ldtoa_r+0x8b0>
   16158:	0140006f          	j	1616c <_ldtoa_r+0x8bc>
   1615c:	01278863          	beq	a5,s2,1616c <_ldtoa_r+0x8bc>
   16160:	fff78793          	addi	a5,a5,-1
   16164:	0007c703          	lbu	a4,0(a5)
   16168:	fed71ae3          	bne	a4,a3,1615c <_ldtoa_r+0x8ac>
   1616c:	00078023          	sb	zero,0(a5)
   16170:	00090793          	mv	a5,s2
   16174:	02000693          	li	a3,32
   16178:	02d00613          	li	a2,45
   1617c:	0007c703          	lbu	a4,0(a5)
   16180:	00d70463          	beq	a4,a3,16188 <_ldtoa_r+0x8d8>
   16184:	02c71a63          	bne	a4,a2,161b8 <_ldtoa_r+0x908>
   16188:	00178793          	addi	a5,a5,1
   1618c:	ff1ff06f          	j	1617c <_ldtoa_r+0x8cc>
   16190:	00090793          	mv	a5,s2
   16194:	0017c703          	lbu	a4,1(a5)
   16198:	00178793          	addi	a5,a5,1
   1619c:	fee78fa3          	sb	a4,-1(a5)
   161a0:	fa0708e3          	beqz	a4,16150 <_ldtoa_r+0x8a0>
   161a4:	0017c703          	lbu	a4,1(a5)
   161a8:	00178793          	addi	a5,a5,1
   161ac:	fee78fa3          	sb	a4,-1(a5)
   161b0:	fe0712e3          	bnez	a4,16194 <_ldtoa_r+0x8e4>
   161b4:	f9dff06f          	j	16150 <_ldtoa_r+0x8a0>
   161b8:	00090413          	mv	s0,s2
   161bc:	00c0006f          	j	161c8 <_ldtoa_r+0x918>
   161c0:	0007c703          	lbu	a4,0(a5)
   161c4:	00068413          	mv	s0,a3
   161c8:	00e40023          	sb	a4,0(s0)
   161cc:	00140693          	addi	a3,s0,1
   161d0:	00178793          	addi	a5,a5,1
   161d4:	fe0716e3          	bnez	a4,161c0 <_ldtoa_r+0x910>
   161d8:	00812683          	lw	a3,8(sp)
   161dc:	00200793          	li	a5,2
   161e0:	fff44703          	lbu	a4,-1(s0)
   161e4:	12f68663          	beq	a3,a5,16310 <_ldtoa_r+0xa60>
   161e8:	00c12783          	lw	a5,12(sp)
   161ec:	00078693          	mv	a3,a5
   161f0:	0097d463          	bge	a5,s1,161f8 <_ldtoa_r+0x948>
   161f4:	00048693          	mv	a3,s1
   161f8:	03000793          	li	a5,48
   161fc:	02f71663          	bne	a4,a5,16228 <_ldtoa_r+0x978>
   16200:	412407b3          	sub	a5,s0,s2
   16204:	02f6d263          	bge	a3,a5,16228 <_ldtoa_r+0x978>
   16208:	03000613          	li	a2,48
   1620c:	0080006f          	j	16214 <_ldtoa_r+0x964>
   16210:	00e6dc63          	bge	a3,a4,16228 <_ldtoa_r+0x978>
   16214:	fff40413          	addi	s0,s0,-1
   16218:	fff44783          	lbu	a5,-1(s0)
   1621c:	00040023          	sb	zero,0(s0)
   16220:	41240733          	sub	a4,s0,s2
   16224:	fec786e3          	beq	a5,a2,16210 <_ldtoa_r+0x960>
   16228:	00812703          	lw	a4,8(sp)
   1622c:	00300793          	li	a5,3
   16230:	0af70263          	beq	a4,a5,162d4 <_ldtoa_r+0xa24>
   16234:	01012783          	lw	a5,16(sp)
   16238:	040b2223          	sw	zero,68(s6)
   1623c:	00978613          	addi	a2,a5,9
   16240:	01700793          	li	a5,23
   16244:	0cc7f263          	bgeu	a5,a2,16308 <_ldtoa_r+0xa58>
   16248:	00100713          	li	a4,1
   1624c:	00400793          	li	a5,4
   16250:	00179793          	slli	a5,a5,0x1
   16254:	01478693          	addi	a3,a5,20
   16258:	00070593          	mv	a1,a4
   1625c:	00170713          	addi	a4,a4,1
   16260:	fed678e3          	bgeu	a2,a3,16250 <_ldtoa_r+0x9a0>
   16264:	04bb2223          	sw	a1,68(s6)
   16268:	000b0513          	mv	a0,s6
   1626c:	5ac010ef          	jal	ra,17818 <_Balloc>
   16270:	04ab2023          	sw	a0,64(s6)
   16274:	00090593          	mv	a1,s2
   16278:	00050493          	mv	s1,a0
   1627c:	311020ef          	jal	ra,18d8c <strcpy>
   16280:	02012783          	lw	a5,32(sp)
   16284:	00078863          	beqz	a5,16294 <_ldtoa_r+0x9e4>
   16288:	41240433          	sub	s0,s0,s2
   1628c:	00848433          	add	s0,s1,s0
   16290:	0087a023          	sw	s0,0(a5)
   16294:	1ec12083          	lw	ra,492(sp)
   16298:	1e812403          	lw	s0,488(sp)
   1629c:	00048513          	mv	a0,s1
   162a0:	1e012903          	lw	s2,480(sp)
   162a4:	1e412483          	lw	s1,484(sp)
   162a8:	1dc12983          	lw	s3,476(sp)
   162ac:	1d812a03          	lw	s4,472(sp)
   162b0:	1d412a83          	lw	s5,468(sp)
   162b4:	1d012b03          	lw	s6,464(sp)
   162b8:	1cc12b83          	lw	s7,460(sp)
   162bc:	1c812c03          	lw	s8,456(sp)
   162c0:	1c412c83          	lw	s9,452(sp)
   162c4:	1c012d03          	lw	s10,448(sp)
   162c8:	1bc12d83          	lw	s11,444(sp)
   162cc:	1f010113          	addi	sp,sp,496
   162d0:	00008067          	ret
   162d4:	00c12783          	lw	a5,12(sp)
   162d8:	009784b3          	add	s1,a5,s1
   162dc:	4a04ce63          	bltz	s1,16798 <_ldtoa_r+0xee8>
   162e0:	01412783          	lw	a5,20(sp)
   162e4:	01012703          	lw	a4,16(sp)
   162e8:	0007a783          	lw	a5,0(a5)
   162ec:	00f707b3          	add	a5,a4,a5
   162f0:	00f12823          	sw	a5,16(sp)
   162f4:	01012783          	lw	a5,16(sp)
   162f8:	040b2223          	sw	zero,68(s6)
   162fc:	00378613          	addi	a2,a5,3
   16300:	01700793          	li	a5,23
   16304:	f4c7e2e3          	bltu	a5,a2,16248 <_ldtoa_r+0x998>
   16308:	00000593          	li	a1,0
   1630c:	f5dff06f          	j	16268 <_ldtoa_r+0x9b8>
   16310:	03000793          	li	a5,48
   16314:	f2f710e3          	bne	a4,a5,16234 <_ldtoa_r+0x984>
   16318:	412407b3          	sub	a5,s0,s2
   1631c:	00100693          	li	a3,1
   16320:	eef6c4e3          	blt	a3,a5,16208 <_ldtoa_r+0x958>
   16324:	f11ff06f          	j	16234 <_ldtoa_r+0x984>
   16328:	01012b83          	lw	s7,16(sp)
   1632c:	01712623          	sw	s7,12(sp)
   16330:	02a00793          	li	a5,42
   16334:	e577de63          	bge	a5,s7,15990 <_ldtoa_r+0xe0>
   16338:	00f12623          	sw	a5,12(sp)
   1633c:	e54ff06f          	j	15990 <_ldtoa_r+0xe0>
   16340:	01412703          	lw	a4,20(sp)
   16344:	000027b7          	lui	a5,0x2
   16348:	70f78793          	addi	a5,a5,1807 # 270f <_start-0xd8f1>
   1634c:	00f72023          	sw	a5,0(a4)
   16350:	e21ff06f          	j	16170 <_ldtoa_r+0x8c0>
   16354:	0b410a93          	addi	s5,sp,180
   16358:	000a8713          	mv	a4,s5
   1635c:	07c10793          	addi	a5,sp,124
   16360:	09010613          	addi	a2,sp,144
   16364:	00278793          	addi	a5,a5,2
   16368:	ffe7d683          	lhu	a3,-2(a5)
   1636c:	00270713          	addi	a4,a4,2
   16370:	fed71f23          	sh	a3,-2(a4)
   16374:	fec798e3          	bne	a5,a2,16364 <_ldtoa_r+0xab4>
   16378:	000047b7          	lui	a5,0x4
   1637c:	08e78793          	addi	a5,a5,142 # 408e <_start-0xbf72>
   16380:	0cf11323          	sh	a5,198(sp)
   16384:	000087b7          	lui	a5,0x8
   16388:	fff78793          	addi	a5,a5,-1 # 7fff <_start-0x8001>
   1638c:	02f12223          	sw	a5,36(sp)
   16390:	ffffc7b7          	lui	a5,0xffffc
   16394:	00278793          	addi	a5,a5,2 # ffffc002 <__global_pointer$+0xfffd4a92>
   16398:	01000d13          	li	s10,16
   1639c:	00000493          	li	s1,0
   163a0:	0000ec17          	auipc	s8,0xe
   163a4:	520c0c13          	addi	s8,s8,1312 # 248c0 <etens+0xa0>
   163a8:	12410913          	addi	s2,sp,292
   163ac:	16010993          	addi	s3,sp,352
   163b0:	0d010413          	addi	s0,sp,208
   163b4:	0aa10b93          	addi	s7,sp,170
   163b8:	02f12423          	sw	a5,40(sp)
   163bc:	05e10c93          	addi	s9,sp,94
   163c0:	00098693          	mv	a3,s3
   163c4:	09810613          	addi	a2,sp,152
   163c8:	000a8593          	mv	a1,s5
   163cc:	000c0513          	mv	a0,s8
   163d0:	e99fe0ef          	jal	ra,15268 <ediv>
   163d4:	04c10713          	addi	a4,sp,76
   163d8:	09810793          	addi	a5,sp,152
   163dc:	00278793          	addi	a5,a5,2
   163e0:	ffe7d683          	lhu	a3,-2(a5)
   163e4:	00270713          	addi	a4,a4,2
   163e8:	fed71f23          	sh	a3,-2(a4)
   163ec:	ffb798e3          	bne	a5,s11,163dc <_ldtoa_r+0xb2c>
   163f0:	02412783          	lw	a5,36(sp)
   163f4:	05e15503          	lhu	a0,94(sp)
   163f8:	00f57633          	and	a2,a0,a5
   163fc:	02812783          	lw	a5,40(sp)
   16400:	00f605b3          	add	a1,a2,a5
   16404:	3ab05463          	blez	a1,167ac <_ldtoa_r+0xefc>
   16408:	09000613          	li	a2,144
   1640c:	40b60633          	sub	a2,a2,a1
   16410:	00040713          	mv	a4,s0
   16414:	04c10793          	addi	a5,sp,76
   16418:	00278793          	addi	a5,a5,2
   1641c:	ffe7d683          	lhu	a3,-2(a5)
   16420:	00270713          	addi	a4,a4,2
   16424:	fed71f23          	sh	a3,-2(a4)
   16428:	ff4798e3          	bne	a5,s4,16418 <_ldtoa_r+0xb68>
   1642c:	06c05863          	blez	a2,1649c <_ldtoa_r+0xbec>
   16430:	00f00793          	li	a5,15
   16434:	00040713          	mv	a4,s0
   16438:	02c7dc63          	bge	a5,a2,16470 <_ldtoa_r+0xbc0>
   1643c:	ff060613          	addi	a2,a2,-16 # 7ff0 <_start-0x8010>
   16440:	00465693          	srli	a3,a2,0x4
   16444:	00168713          	addi	a4,a3,1
   16448:	00171713          	slli	a4,a4,0x1
   1644c:	00e40733          	add	a4,s0,a4
   16450:	00040793          	mv	a5,s0
   16454:	00278793          	addi	a5,a5,2
   16458:	fe079f23          	sh	zero,-2(a5)
   1645c:	fee79ce3          	bne	a5,a4,16454 <_ldtoa_r+0xba4>
   16460:	08000613          	li	a2,128
   16464:	40b60633          	sub	a2,a2,a1
   16468:	00469693          	slli	a3,a3,0x4
   1646c:	40d60633          	sub	a2,a2,a3
   16470:	0000e797          	auipc	a5,0xe
   16474:	38878793          	addi	a5,a5,904 # 247f8 <ezero>
   16478:	00161613          	slli	a2,a2,0x1
   1647c:	00c78633          	add	a2,a5,a2
   16480:	23065683          	lhu	a3,560(a2)
   16484:	00075783          	lhu	a5,0(a4)
   16488:	00d7f7b3          	and	a5,a5,a3
   1648c:	00f71023          	sh	a5,0(a4)
   16490:	01051513          	slli	a0,a0,0x10
   16494:	41055513          	srai	a0,a0,0x10
   16498:	16054063          	bltz	a0,165f8 <_ldtoa_r+0xd48>
   1649c:	09810793          	addi	a5,sp,152
   164a0:	00040713          	mv	a4,s0
   164a4:	0007d603          	lhu	a2,0(a5)
   164a8:	00075683          	lhu	a3,0(a4)
   164ac:	00278793          	addi	a5,a5,2
   164b0:	00270713          	addi	a4,a4,2
   164b4:	02d61463          	bne	a2,a3,164dc <_ldtoa_r+0xc2c>
   164b8:	fefb96e3          	bne	s7,a5,164a4 <_ldtoa_r+0xbf4>
   164bc:	000a8713          	mv	a4,s5
   164c0:	09810793          	addi	a5,sp,152
   164c4:	00278793          	addi	a5,a5,2
   164c8:	ffe7d683          	lhu	a3,-2(a5)
   164cc:	00270713          	addi	a4,a4,2
   164d0:	fed71f23          	sh	a3,-2(a4)
   164d4:	ffb798e3          	bne	a5,s11,164c4 <_ldtoa_r+0xc14>
   164d8:	01a484b3          	add	s1,s1,s10
   164dc:	014c0c13          	addi	s8,s8,20
   164e0:	0000e797          	auipc	a5,0xe
   164e4:	44478793          	addi	a5,a5,1092 # 24924 <emtens>
   164e8:	001d5d13          	srli	s10,s10,0x1
   164ec:	ecfc1ae3          	bne	s8,a5,163c0 <_ldtoa_r+0xb10>
   164f0:	0c615783          	lhu	a5,198(sp)
   164f4:	08e15703          	lhu	a4,142(sp)
   164f8:	0c810613          	addi	a2,sp,200
   164fc:	00e787b3          	add	a5,a5,a4
   16500:	ffffc737          	lui	a4,0xffffc
   16504:	f7270713          	addi	a4,a4,-142 # ffffbf72 <__global_pointer$+0xfffd4a02>
   16508:	00e787b3          	add	a5,a5,a4
   1650c:	0cf11323          	sh	a5,198(sp)
   16510:	07c10713          	addi	a4,sp,124
   16514:	000a8793          	mv	a5,s5
   16518:	00278793          	addi	a5,a5,2
   1651c:	ffe7d683          	lhu	a3,-2(a5)
   16520:	00270713          	addi	a4,a4,2
   16524:	fed71f23          	sh	a3,-2(a4)
   16528:	fec798e3          	bne	a5,a2,16518 <_ldtoa_r+0xc68>
   1652c:	00000693          	li	a3,0
   16530:	09810793          	addi	a5,sp,152
   16534:	0000e717          	auipc	a4,0xe
   16538:	2d870713          	addi	a4,a4,728 # 2480c <eone>
   1653c:	0080006f          	j	16544 <_ldtoa_r+0xc94>
   16540:	00075683          	lhu	a3,0(a4)
   16544:	00278793          	addi	a5,a5,2
   16548:	fed79f23          	sh	a3,-2(a5)
   1654c:	00270713          	addi	a4,a4,2
   16550:	ffb798e3          	bne	a5,s11,16540 <_ldtoa_r+0xc90>
   16554:	00001d37          	lui	s10,0x1
   16558:	0000ec97          	auipc	s9,0xe
   1655c:	2c8c8c93          	addi	s9,s9,712 # 24820 <etens>
   16560:	0000ed97          	auipc	s11,0xe
   16564:	3b0d8d93          	addi	s11,s11,944 # 24910 <etens+0xf0>
   16568:	0100006f          	j	16578 <_ldtoa_r+0xcc8>
   1656c:	001d5d13          	srli	s10,s10,0x1
   16570:	2dbc8463          	beq	s9,s11,16838 <_ldtoa_r+0xf88>
   16574:	014c8c93          	addi	s9,s9,20
   16578:	000a8593          	mv	a1,s5
   1657c:	000d8513          	mv	a0,s11
   16580:	e65fd0ef          	jal	ra,143e4 <ecmp>
   16584:	000a8593          	mv	a1,s5
   16588:	2aa04863          	bgtz	a0,16838 <_ldtoa_r+0xf88>
   1658c:	000c8513          	mv	a0,s9
   16590:	e55fd0ef          	jal	ra,143e4 <ecmp>
   16594:	fca04ce3          	bgtz	a0,1656c <_ldtoa_r+0xcbc>
   16598:	00098693          	mv	a3,s3
   1659c:	000a8613          	mv	a2,s5
   165a0:	000a8593          	mv	a1,s5
   165a4:	000c8513          	mv	a0,s9
   165a8:	cc1fe0ef          	jal	ra,15268 <ediv>
   165ac:	09810613          	addi	a2,sp,152
   165b0:	00098693          	mv	a3,s3
   165b4:	00060593          	mv	a1,a2
   165b8:	000c8513          	mv	a0,s9
   165bc:	8a5fe0ef          	jal	ra,14e60 <emul>
   165c0:	01a484b3          	add	s1,s1,s10
   165c4:	fa9ff06f          	j	1656c <_ldtoa_r+0xcbc>
   165c8:	1ac15783          	lhu	a5,428(sp)
   165cc:	12610c93          	addi	s9,sp,294
   165d0:	12710993          	addi	s3,sp,295
   165d4:	a7dff06f          	j	16050 <_ldtoa_r+0x7a0>
   165d8:	12410913          	addi	s2,sp,292
   165dc:	0000e597          	auipc	a1,0xe
   165e0:	47058593          	addi	a1,a1,1136 # 24a4c <bmask+0x24>
   165e4:	00090513          	mv	a0,s2
   165e8:	000024b7          	lui	s1,0x2
   165ec:	44c020ef          	jal	ra,18a38 <sprintf>
   165f0:	70f48493          	addi	s1,s1,1807 # 270f <_start-0xd8f1>
   165f4:	af1ff06f          	j	160e4 <_ldtoa_r+0x834>
   165f8:	04c10793          	addi	a5,sp,76
   165fc:	00040713          	mv	a4,s0
   16600:	0080006f          	j	16608 <_ldtoa_r+0xd58>
   16604:	e8fc8ce3          	beq	s9,a5,1649c <_ldtoa_r+0xbec>
   16608:	0007d603          	lhu	a2,0(a5)
   1660c:	00075683          	lhu	a3,0(a4)
   16610:	00278793          	addi	a5,a5,2
   16614:	00270713          	addi	a4,a4,2
   16618:	fed606e3          	beq	a2,a3,16604 <_ldtoa_r+0xd54>
   1661c:	0e215783          	lhu	a5,226(sp)
   16620:	02412703          	lw	a4,36(sp)
   16624:	00f777b3          	and	a5,a4,a5
   16628:	00e79e63          	bne	a5,a4,16644 <_ldtoa_r+0xd94>
   1662c:	00040513          	mv	a0,s0
   16630:	c1dfd0ef          	jal	ra,1424c <eisnan.part.0>
   16634:	e60514e3          	bnez	a0,1649c <_ldtoa_r+0xbec>
   16638:	00040513          	mv	a0,s0
   1663c:	ec5fd0ef          	jal	ra,14500 <eisinf.part.1>
   16640:	e4051ee3          	bnez	a0,1649c <_ldtoa_r+0xbec>
   16644:	0ec10593          	addi	a1,sp,236
   16648:	0000e517          	auipc	a0,0xe
   1664c:	1c450513          	addi	a0,a0,452 # 2480c <eone>
   16650:	cadfd0ef          	jal	ra,142fc <emovi>
   16654:	10810593          	addi	a1,sp,264
   16658:	00040513          	mv	a0,s0
   1665c:	ca1fd0ef          	jal	ra,142fc <emovi>
   16660:	0ec15603          	lhu	a2,236(sp)
   16664:	10a15503          	lhu	a0,266(sp)
   16668:	0ee15803          	lhu	a6,238(sp)
   1666c:	fff64613          	not	a2,a2
   16670:	01061613          	slli	a2,a2,0x10
   16674:	01065613          	srli	a2,a2,0x10
   16678:	0ec11623          	sh	a2,236(sp)
   1667c:	40a805b3          	sub	a1,a6,a0
   16680:	00050693          	mv	a3,a0
   16684:	06b05e63          	blez	a1,16700 <_ldtoa_r+0xe50>
   16688:	00090693          	mv	a3,s2
   1668c:	10810713          	addi	a4,sp,264
   16690:	12010793          	addi	a5,sp,288
   16694:	00270713          	addi	a4,a4,2
   16698:	ffe75583          	lhu	a1,-2(a4)
   1669c:	00268693          	addi	a3,a3,2
   166a0:	feb69f23          	sh	a1,-2(a3)
   166a4:	fef718e3          	bne	a4,a5,16694 <_ldtoa_r+0xde4>
   166a8:	12011e23          	sh	zero,316(sp)
   166ac:	10810713          	addi	a4,sp,264
   166b0:	0ec10693          	addi	a3,sp,236
   166b4:	0080006f          	j	166bc <_ldtoa_r+0xe0c>
   166b8:	0006d603          	lhu	a2,0(a3)
   166bc:	00270713          	addi	a4,a4,2
   166c0:	fec71f23          	sh	a2,-2(a4)
   166c4:	00268693          	addi	a3,a3,2
   166c8:	fef718e3          	bne	a4,a5,166b8 <_ldtoa_r+0xe08>
   166cc:	12011023          	sh	zero,288(sp)
   166d0:	0ec10713          	addi	a4,sp,236
   166d4:	00090793          	mv	a5,s2
   166d8:	13c10613          	addi	a2,sp,316
   166dc:	00278793          	addi	a5,a5,2
   166e0:	ffe7d683          	lhu	a3,-2(a5)
   166e4:	00270713          	addi	a4,a4,2
   166e8:	fed71f23          	sh	a3,-2(a4)
   166ec:	fec798e3          	bne	a5,a2,166dc <_ldtoa_r+0xe2c>
   166f0:	10a15683          	lhu	a3,266(sp)
   166f4:	410505b3          	sub	a1,a0,a6
   166f8:	10011223          	sh	zero,260(sp)
   166fc:	00068513          	mv	a0,a3
   16700:	30058863          	beqz	a1,16a10 <_ldtoa_r+0x1160>
   16704:	02d12623          	sw	a3,44(sp)
   16708:	f6f00793          	li	a5,-145
   1670c:	06f5c863          	blt	a1,a5,1677c <_ldtoa_r+0xecc>
   16710:	0ec10513          	addi	a0,sp,236
   16714:	e09fd0ef          	jal	ra,1451c <eshift.part.3>
   16718:	02c12683          	lw	a3,44(sp)
   1671c:	00050593          	mv	a1,a0
   16720:	12010793          	addi	a5,sp,288
   16724:	10410813          	addi	a6,sp,260
   16728:	0ec15603          	lhu	a2,236(sp)
   1672c:	10815703          	lhu	a4,264(sp)
   16730:	32e60c63          	beq	a2,a4,16a68 <_ldtoa_r+0x11b8>
   16734:	00000713          	li	a4,0
   16738:	00070613          	mv	a2,a4
   1673c:	0007d703          	lhu	a4,0(a5)
   16740:	00085503          	lhu	a0,0(a6) # ffff8000 <__global_pointer$+0xfffd0a90>
   16744:	ffe78793          	addi	a5,a5,-2
   16748:	40c70733          	sub	a4,a4,a2
   1674c:	40a70733          	sub	a4,a4,a0
   16750:	00e79123          	sh	a4,2(a5)
   16754:	01075713          	srli	a4,a4,0x10
   16758:	00177613          	andi	a2,a4,1
   1675c:	10a10713          	addi	a4,sp,266
   16760:	ffe80813          	addi	a6,a6,-2
   16764:	fce79ce3          	bne	a5,a4,1673c <_ldtoa_r+0xe8c>
   16768:	00100613          	li	a2,1
   1676c:	00098793          	mv	a5,s3
   16770:	04000713          	li	a4,64
   16774:	10810513          	addi	a0,sp,264
   16778:	8ccfe0ef          	jal	ra,14844 <emdnorm>
   1677c:	00040593          	mv	a1,s0
   16780:	10810513          	addi	a0,sp,264
   16784:	e2cfe0ef          	jal	ra,14db0 <emovo.isra.6>
   16788:	d15ff06f          	j	1649c <_ldtoa_r+0xbec>
   1678c:	01012783          	lw	a5,16(sp)
   16790:	fff78b93          	addi	s7,a5,-1
   16794:	b99ff06f          	j	1632c <_ldtoa_r+0xa7c>
   16798:	01412783          	lw	a5,20(sp)
   1679c:	12010223          	sb	zero,292(sp)
   167a0:	00090413          	mv	s0,s2
   167a4:	0007a023          	sw	zero,0(a5)
   167a8:	b4dff06f          	j	162f4 <_ldtoa_r+0xa44>
   167ac:	00040793          	mv	a5,s0
   167b0:	0e410713          	addi	a4,sp,228
   167b4:	00278793          	addi	a5,a5,2
   167b8:	fe079f23          	sh	zero,-2(a5)
   167bc:	fee79ce3          	bne	a5,a4,167b4 <_ldtoa_r+0xf04>
   167c0:	cd1ff06f          	j	16490 <_ldtoa_r+0xbe0>
   167c4:	01812783          	lw	a5,24(sp)
   167c8:	12410913          	addi	s2,sp,292
   167cc:	0e078a63          	beqz	a5,168c0 <_ldtoa_r+0x1010>
   167d0:	0000e597          	auipc	a1,0xe
   167d4:	28458593          	addi	a1,a1,644 # 24a54 <bmask+0x2c>
   167d8:	00090513          	mv	a0,s2
   167dc:	000024b7          	lui	s1,0x2
   167e0:	258020ef          	jal	ra,18a38 <sprintf>
   167e4:	70f48493          	addi	s1,s1,1807 # 270f <_start-0xd8f1>
   167e8:	8fdff06f          	j	160e4 <_ldtoa_r+0x834>
   167ec:	03100793          	li	a5,49
   167f0:	12f102a3          	sb	a5,293(sp)
   167f4:	02e00793          	li	a5,46
   167f8:	12f10323          	sb	a5,294(sp)
   167fc:	00148493          	addi	s1,s1,1
   16800:	02900413          	li	s0,41
   16804:	03000793          	li	a5,48
   16808:	12f103a3          	sb	a5,295(sp)
   1680c:	12810c93          	addi	s9,sp,296
   16810:	e6cff06f          	j	15e7c <_ldtoa_r+0x5cc>
   16814:	03100793          	li	a5,49
   16818:	12f102a3          	sb	a5,293(sp)
   1681c:	02e00793          	li	a5,46
   16820:	12f10323          	sb	a5,294(sp)
   16824:	00148493          	addi	s1,s1,1
   16828:	1e804063          	bgtz	s0,16a08 <_ldtoa_r+0x1158>
   1682c:	12710c93          	addi	s9,sp,295
   16830:	8a0410e3          	bnez	s0,160d0 <_ldtoa_r+0x820>
   16834:	e48ff06f          	j	15e7c <_ldtoa_r+0x5cc>
   16838:	0e810b93          	addi	s7,sp,232
   1683c:	b90ff06f          	j	15bcc <_ldtoa_r+0x31c>
   16840:	03100793          	li	a5,49
   16844:	fef98f23          	sb	a5,-2(s3)
   16848:	00148493          	addi	s1,s1,1
   1684c:	885ff06f          	j	160d0 <_ldtoa_r+0x820>
   16850:	12410913          	addi	s2,sp,292
   16854:	0000e597          	auipc	a1,0xe
   16858:	21858593          	addi	a1,a1,536 # 24a6c <bmask+0x44>
   1685c:	00090513          	mv	a0,s2
   16860:	000024b7          	lui	s1,0x2
   16864:	1d4020ef          	jal	ra,18a38 <sprintf>
   16868:	70f48493          	addi	s1,s1,1807 # 270f <_start-0xd8f1>
   1686c:	879ff06f          	j	160e4 <_ldtoa_r+0x834>
   16870:	09810593          	addi	a1,sp,152
   16874:	07c10513          	addi	a0,sp,124
   16878:	d38fe0ef          	jal	ra,14db0 <emovo.isra.6>
   1687c:	0000e597          	auipc	a1,0xe
   16880:	f7c58593          	addi	a1,a1,-132 # 247f8 <ezero>
   16884:	09810513          	addi	a0,sp,152
   16888:	b5dfd0ef          	jal	ra,143e4 <ecmp>
   1688c:	fc051a63          	bnez	a0,16060 <_ldtoa_r+0x7b0>
   16890:	840440e3          	bltz	s0,160d0 <_ldtoa_r+0x820>
   16894:	ffe9c783          	lbu	a5,-2(s3)
   16898:	fd278713          	addi	a4,a5,-46
   1689c:	00173713          	seqz	a4,a4
   168a0:	fff74713          	not	a4,a4
   168a4:	00ec8733          	add	a4,s9,a4
   168a8:	00074703          	lbu	a4,0(a4)
   168ac:	00177713          	andi	a4,a4,1
   168b0:	820700e3          	beqz	a4,160d0 <_ldtoa_r+0x820>
   168b4:	ffe98713          	addi	a4,s3,-2
   168b8:	07f7f793          	andi	a5,a5,127
   168bc:	fb4ff06f          	j	16070 <_ldtoa_r+0x7c0>
   168c0:	0000e597          	auipc	a1,0xe
   168c4:	1a058593          	addi	a1,a1,416 # 24a60 <bmask+0x38>
   168c8:	00090513          	mv	a0,s2
   168cc:	000024b7          	lui	s1,0x2
   168d0:	168020ef          	jal	ra,18a38 <sprintf>
   168d4:	70f48493          	addi	s1,s1,1807 # 270f <_start-0xd8f1>
   168d8:	80dff06f          	j	160e4 <_ldtoa_r+0x834>
   168dc:	00178793          	addi	a5,a5,1
   168e0:	fef70fa3          	sb	a5,-1(a4)
   168e4:	fecff06f          	j	160d0 <_ldtoa_r+0x820>
   168e8:	0d010413          	addi	s0,sp,208
   168ec:	00040593          	mv	a1,s0
   168f0:	07c10513          	addi	a0,sp,124
   168f4:	00004ab7          	lui	s5,0x4
   168f8:	a05fd0ef          	jal	ra,142fc <emovi>
   168fc:	00000493          	li	s1,0
   16900:	0e810b93          	addi	s7,sp,232
   16904:	0cc10913          	addi	s2,sp,204
   16908:	0d210993          	addi	s3,sp,210
   1690c:	ffea8a93          	addi	s5,s5,-2 # 3ffe <_start-0xc002>
   16910:	fd500c93          	li	s9,-43
   16914:	0e815783          	lhu	a5,232(sp)
   16918:	0077f793          	andi	a5,a5,7
   1691c:	0c079863          	bnez	a5,169ec <_ldtoa_r+0x113c>
   16920:	0b410713          	addi	a4,sp,180
   16924:	00040793          	mv	a5,s0
   16928:	00278793          	addi	a5,a5,2
   1692c:	ffe7d683          	lhu	a3,-2(a5)
   16930:	00270713          	addi	a4,a4,2
   16934:	fed71f23          	sh	a3,-2(a4)
   16938:	ff7798e3          	bne	a5,s7,16928 <_ldtoa_r+0x1078>
   1693c:	0b410513          	addi	a0,sp,180
   16940:	0c011623          	sh	zero,204(sp)
   16944:	f50fd0ef          	jal	ra,14094 <eshdn1>
   16948:	0b410513          	addi	a0,sp,180
   1694c:	f48fd0ef          	jal	ra,14094 <eshdn1>
   16950:	00000613          	li	a2,0
   16954:	00090693          	mv	a3,s2
   16958:	000b8713          	mv	a4,s7
   1695c:	0006d583          	lhu	a1,0(a3)
   16960:	00075783          	lhu	a5,0(a4)
   16964:	ffe68693          	addi	a3,a3,-2
   16968:	ffe70713          	addi	a4,a4,-2
   1696c:	00b787b3          	add	a5,a5,a1
   16970:	00c787b3          	add	a5,a5,a2
   16974:	00f69123          	sh	a5,2(a3)
   16978:	0107d793          	srli	a5,a5,0x10
   1697c:	0017f613          	andi	a2,a5,1
   16980:	fd371ee3          	bne	a4,s3,1695c <_ldtoa_r+0x10ac>
   16984:	0b615783          	lhu	a5,182(sp)
   16988:	0b815703          	lhu	a4,184(sp)
   1698c:	00378793          	addi	a5,a5,3
   16990:	0af11b23          	sh	a5,182(sp)
   16994:	02070063          	beqz	a4,169b4 <_ldtoa_r+0x1104>
   16998:	0b410513          	addi	a0,sp,180
   1699c:	ef8fd0ef          	jal	ra,14094 <eshdn1>
   169a0:	0b615783          	lhu	a5,182(sp)
   169a4:	0b815703          	lhu	a4,184(sp)
   169a8:	00178793          	addi	a5,a5,1
   169ac:	0af11b23          	sh	a5,182(sp)
   169b0:	fe0714e3          	bnez	a4,16998 <_ldtoa_r+0x10e8>
   169b4:	0cc15783          	lhu	a5,204(sp)
   169b8:	02079a63          	bnez	a5,169ec <_ldtoa_r+0x113c>
   169bc:	0b615783          	lhu	a5,182(sp)
   169c0:	02fae663          	bltu	s5,a5,169ec <_ldtoa_r+0x113c>
   169c4:	00040713          	mv	a4,s0
   169c8:	0b410793          	addi	a5,sp,180
   169cc:	00278793          	addi	a5,a5,2
   169d0:	ffe7d683          	lhu	a3,-2(a5)
   169d4:	00270713          	addi	a4,a4,2
   169d8:	fed71f23          	sh	a3,-2(a4)
   169dc:	ff2798e3          	bne	a5,s2,169cc <_ldtoa_r+0x111c>
   169e0:	0e011423          	sh	zero,232(sp)
   169e4:	fff48493          	addi	s1,s1,-1
   169e8:	f39496e3          	bne	s1,s9,16914 <_ldtoa_r+0x1064>
   169ec:	07c10593          	addi	a1,sp,124
   169f0:	00040513          	mv	a0,s0
   169f4:	bbcfe0ef          	jal	ra,14db0 <emovo.isra.6>
   169f8:	16010993          	addi	s3,sp,352
   169fc:	8b0ff06f          	j	15aac <_ldtoa_r+0x1fc>
   16a00:	00090793          	mv	a5,s2
   16a04:	f68ff06f          	j	1616c <_ldtoa_r+0x8bc>
   16a08:	fff40413          	addi	s0,s0,-1
   16a0c:	df9ff06f          	j	16804 <_ldtoa_r+0xf54>
   16a10:	10c10713          	addi	a4,sp,268
   16a14:	0f010793          	addi	a5,sp,240
   16a18:	00278793          	addi	a5,a5,2
   16a1c:	00270713          	addi	a4,a4,2
   16a20:	ffe7d803          	lhu	a6,-2(a5)
   16a24:	ffe75603          	lhu	a2,-2(a4)
   16a28:	02c81863          	bne	a6,a2,16a58 <_ldtoa_r+0x11a8>
   16a2c:	10610613          	addi	a2,sp,262
   16a30:	fec794e3          	bne	a5,a2,16a18 <_ldtoa_r+0x1168>
   16a34:	0ec15703          	lhu	a4,236(sp)
   16a38:	10815783          	lhu	a5,264(sp)
   16a3c:	06f70463          	beq	a4,a5,16aa4 <_ldtoa_r+0x11f4>
   16a40:	00040793          	mv	a5,s0
   16a44:	0e410713          	addi	a4,sp,228
   16a48:	00278793          	addi	a5,a5,2
   16a4c:	fe079f23          	sh	zero,-2(a5)
   16a50:	fee79ce3          	bne	a5,a4,16a48 <_ldtoa_r+0x1198>
   16a54:	a49ff06f          	j	1649c <_ldtoa_r+0xbec>
   16a58:	0d066863          	bltu	a2,a6,16b28 <_ldtoa_r+0x1278>
   16a5c:	12010793          	addi	a5,sp,288
   16a60:	10410813          	addi	a6,sp,260
   16a64:	cc5ff06f          	j	16728 <_ldtoa_r+0xe78>
   16a68:	00000613          	li	a2,0
   16a6c:	00080713          	mv	a4,a6
   16a70:	0ee10893          	addi	a7,sp,238
   16a74:	0007d803          	lhu	a6,0(a5)
   16a78:	00075503          	lhu	a0,0(a4)
   16a7c:	ffe78793          	addi	a5,a5,-2
   16a80:	ffe70713          	addi	a4,a4,-2
   16a84:	01050533          	add	a0,a0,a6
   16a88:	00c50633          	add	a2,a0,a2
   16a8c:	00c79123          	sh	a2,2(a5)
   16a90:	01065613          	srli	a2,a2,0x10
   16a94:	00167613          	andi	a2,a2,1
   16a98:	fd171ee3          	bne	a4,a7,16a74 <_ldtoa_r+0x11c4>
   16a9c:	00000613          	li	a2,0
   16aa0:	ccdff06f          	j	1676c <_ldtoa_r+0xebc>
   16aa4:	00068713          	mv	a4,a3
   16aa8:	06069263          	bnez	a3,16b0c <_ldtoa_r+0x125c>
   16aac:	10e11783          	lh	a5,270(sp)
   16ab0:	0407ce63          	bltz	a5,16b0c <_ldtoa_r+0x125c>
   16ab4:	12010693          	addi	a3,sp,288
   16ab8:	0200006f          	j	16ad8 <_ldtoa_r+0x1228>
   16abc:	00f69023          	sh	a5,0(a3)
   16ac0:	00171713          	slli	a4,a4,0x1
   16ac4:	01071713          	slli	a4,a4,0x10
   16ac8:	ffe68693          	addi	a3,a3,-2
   16acc:	10a10793          	addi	a5,sp,266
   16ad0:	01075713          	srli	a4,a4,0x10
   16ad4:	caf684e3          	beq	a3,a5,1677c <_ldtoa_r+0xecc>
   16ad8:	0006d783          	lhu	a5,0(a3)
   16adc:	01079613          	slli	a2,a5,0x10
   16ae0:	41065613          	srai	a2,a2,0x10
   16ae4:	00179793          	slli	a5,a5,0x1
   16ae8:	00065463          	bgez	a2,16af0 <_ldtoa_r+0x1240>
   16aec:	00176713          	ori	a4,a4,1
   16af0:	01079793          	slli	a5,a5,0x10
   16af4:	0107d793          	srli	a5,a5,0x10
   16af8:	00277613          	andi	a2,a4,2
   16afc:	0017e593          	ori	a1,a5,1
   16b00:	fa060ee3          	beqz	a2,16abc <_ldtoa_r+0x120c>
   16b04:	00b69023          	sh	a1,0(a3)
   16b08:	fb9ff06f          	j	16ac0 <_ldtoa_r+0x1210>
   16b0c:	10c10613          	addi	a2,sp,268
   16b10:	12010793          	addi	a5,sp,288
   16b14:	08071263          	bnez	a4,16b98 <_ldtoa_r+0x12e8>
   16b18:	08c78263          	beq	a5,a2,16b9c <_ldtoa_r+0x12ec>
   16b1c:	00065703          	lhu	a4,0(a2)
   16b20:	00260613          	addi	a2,a2,2
   16b24:	ff1ff06f          	j	16b14 <_ldtoa_r+0x1264>
   16b28:	00090613          	mv	a2,s2
   16b2c:	10810713          	addi	a4,sp,264
   16b30:	12010793          	addi	a5,sp,288
   16b34:	00270713          	addi	a4,a4,2
   16b38:	ffe75503          	lhu	a0,-2(a4)
   16b3c:	00260613          	addi	a2,a2,2
   16b40:	fea61f23          	sh	a0,-2(a2)
   16b44:	fef718e3          	bne	a4,a5,16b34 <_ldtoa_r+0x1284>
   16b48:	12011e23          	sh	zero,316(sp)
   16b4c:	10810613          	addi	a2,sp,264
   16b50:	0ec10713          	addi	a4,sp,236
   16b54:	10410813          	addi	a6,sp,260
   16b58:	00270713          	addi	a4,a4,2
   16b5c:	ffe75503          	lhu	a0,-2(a4)
   16b60:	00260613          	addi	a2,a2,2
   16b64:	fea61f23          	sh	a0,-2(a2)
   16b68:	ff0718e3          	bne	a4,a6,16b58 <_ldtoa_r+0x12a8>
   16b6c:	12011023          	sh	zero,288(sp)
   16b70:	0ec10513          	addi	a0,sp,236
   16b74:	00090713          	mv	a4,s2
   16b78:	13c10613          	addi	a2,sp,316
   16b7c:	00270713          	addi	a4,a4,2
   16b80:	ffe75883          	lhu	a7,-2(a4)
   16b84:	00250513          	addi	a0,a0,2
   16b88:	ff151f23          	sh	a7,-2(a0)
   16b8c:	fec718e3          	bne	a4,a2,16b7c <_ldtoa_r+0x12cc>
   16b90:	10011223          	sh	zero,260(sp)
   16b94:	b95ff06f          	j	16728 <_ldtoa_r+0xe78>
   16b98:	00168513          	addi	a0,a3,1
   16b9c:	10a11523          	sh	a0,266(sp)
   16ba0:	bddff06f          	j	1677c <_ldtoa_r+0xecc>

00016ba4 <_ldcheck>:
   16ba4:	00852703          	lw	a4,8(a0)
   16ba8:	00c52783          	lw	a5,12(a0)
   16bac:	00052603          	lw	a2,0(a0)
   16bb0:	00452683          	lw	a3,4(a0)
   16bb4:	fc010113          	addi	sp,sp,-64
   16bb8:	00010513          	mv	a0,sp
   16bbc:	01410593          	addi	a1,sp,20
   16bc0:	00e12423          	sw	a4,8(sp)
   16bc4:	00f12623          	sw	a5,12(sp)
   16bc8:	02112e23          	sw	ra,60(sp)
   16bcc:	00c12023          	sw	a2,0(sp)
   16bd0:	00d12223          	sw	a3,4(sp)
   16bd4:	b99fe0ef          	jal	ra,1576c <e113toe.isra.8>
   16bd8:	02615783          	lhu	a5,38(sp)
   16bdc:	00000513          	li	a0,0
   16be0:	fff7c793          	not	a5,a5
   16be4:	01179713          	slli	a4,a5,0x11
   16be8:	00071a63          	bnez	a4,16bfc <_ldcheck+0x58>
   16bec:	01410513          	addi	a0,sp,20
   16bf0:	e5cfd0ef          	jal	ra,1424c <eisnan.part.0>
   16bf4:	00153513          	seqz	a0,a0
   16bf8:	00150513          	addi	a0,a0,1
   16bfc:	03c12083          	lw	ra,60(sp)
   16c00:	04010113          	addi	sp,sp,64
   16c04:	00008067          	ret

00016c08 <__localeconv_l>:
   16c08:	0f050513          	addi	a0,a0,240
   16c0c:	00008067          	ret

00016c10 <_localeconv_r>:
   16c10:	00010517          	auipc	a0,0x10
   16c14:	cd850513          	addi	a0,a0,-808 # 268e8 <__global_locale+0xf0>
   16c18:	00008067          	ret

00016c1c <localeconv>:
   16c1c:	00010517          	auipc	a0,0x10
   16c20:	ccc50513          	addi	a0,a0,-820 # 268e8 <__global_locale+0xf0>
   16c24:	00008067          	ret

00016c28 <_setlocale_r>:
   16c28:	04060063          	beqz	a2,16c68 <_setlocale_r+0x40>
   16c2c:	ff010113          	addi	sp,sp,-16
   16c30:	0000e597          	auipc	a1,0xe
   16c34:	e4858593          	addi	a1,a1,-440 # 24a78 <bmask+0x50>
   16c38:	00060513          	mv	a0,a2
   16c3c:	00812423          	sw	s0,8(sp)
   16c40:	00112623          	sw	ra,12(sp)
   16c44:	00060413          	mv	s0,a2
   16c48:	7c9010ef          	jal	ra,18c10 <strcmp>
   16c4c:	02051463          	bnez	a0,16c74 <_setlocale_r+0x4c>
   16c50:	0000e517          	auipc	a0,0xe
   16c54:	e2450513          	addi	a0,a0,-476 # 24a74 <bmask+0x4c>
   16c58:	00c12083          	lw	ra,12(sp)
   16c5c:	00812403          	lw	s0,8(sp)
   16c60:	01010113          	addi	sp,sp,16
   16c64:	00008067          	ret
   16c68:	0000e517          	auipc	a0,0xe
   16c6c:	e0c50513          	addi	a0,a0,-500 # 24a74 <bmask+0x4c>
   16c70:	00008067          	ret
   16c74:	0000e597          	auipc	a1,0xe
   16c78:	e0058593          	addi	a1,a1,-512 # 24a74 <bmask+0x4c>
   16c7c:	00040513          	mv	a0,s0
   16c80:	791010ef          	jal	ra,18c10 <strcmp>
   16c84:	fc0506e3          	beqz	a0,16c50 <_setlocale_r+0x28>
   16c88:	0000e597          	auipc	a1,0xe
   16c8c:	b6058593          	addi	a1,a1,-1184 # 247e8 <zeroes.4505+0x44>
   16c90:	00040513          	mv	a0,s0
   16c94:	77d010ef          	jal	ra,18c10 <strcmp>
   16c98:	fa050ce3          	beqz	a0,16c50 <_setlocale_r+0x28>
   16c9c:	00000513          	li	a0,0
   16ca0:	fb9ff06f          	j	16c58 <_setlocale_r+0x30>

00016ca4 <__locale_mb_cur_max>:
   16ca4:	00010517          	auipc	a0,0x10
   16ca8:	c7c54503          	lbu	a0,-900(a0) # 26920 <__global_locale+0x128>
   16cac:	00008067          	ret

00016cb0 <setlocale>:
   16cb0:	81c18793          	addi	a5,gp,-2020 # 26d8c <_impure_ptr>
   16cb4:	00058613          	mv	a2,a1
   16cb8:	00050593          	mv	a1,a0
   16cbc:	0007a503          	lw	a0,0(a5)
   16cc0:	f69ff06f          	j	16c28 <_setlocale_r>

00016cc4 <__swhatbuf_r>:
   16cc4:	f9010113          	addi	sp,sp,-112
   16cc8:	06812423          	sw	s0,104(sp)
   16ccc:	00058413          	mv	s0,a1
   16cd0:	00e59583          	lh	a1,14(a1)
   16cd4:	06912223          	sw	s1,100(sp)
   16cd8:	07212023          	sw	s2,96(sp)
   16cdc:	06112623          	sw	ra,108(sp)
   16ce0:	00060493          	mv	s1,a2
   16ce4:	00068913          	mv	s2,a3
   16ce8:	0405ca63          	bltz	a1,16d3c <__swhatbuf_r+0x78>
   16cec:	00810613          	addi	a2,sp,8
   16cf0:	6a4060ef          	jal	ra,1d394 <_fstat_r>
   16cf4:	04054463          	bltz	a0,16d3c <__swhatbuf_r+0x78>
   16cf8:	00c12703          	lw	a4,12(sp)
   16cfc:	0000f7b7          	lui	a5,0xf
   16d00:	06c12083          	lw	ra,108(sp)
   16d04:	00e7f7b3          	and	a5,a5,a4
   16d08:	ffffe737          	lui	a4,0xffffe
   16d0c:	00e787b3          	add	a5,a5,a4
   16d10:	0017b793          	seqz	a5,a5
   16d14:	06812403          	lw	s0,104(sp)
   16d18:	00f92023          	sw	a5,0(s2) # fffff000 <__global_pointer$+0xfffd7a90>
   16d1c:	40000793          	li	a5,1024
   16d20:	00f4a023          	sw	a5,0(s1)
   16d24:	00001537          	lui	a0,0x1
   16d28:	06412483          	lw	s1,100(sp)
   16d2c:	06012903          	lw	s2,96(sp)
   16d30:	80050513          	addi	a0,a0,-2048 # 800 <_start-0xf800>
   16d34:	07010113          	addi	sp,sp,112
   16d38:	00008067          	ret
   16d3c:	00c45783          	lhu	a5,12(s0)
   16d40:	00092023          	sw	zero,0(s2)
   16d44:	0807f793          	andi	a5,a5,128
   16d48:	02078463          	beqz	a5,16d70 <__swhatbuf_r+0xac>
   16d4c:	06c12083          	lw	ra,108(sp)
   16d50:	06812403          	lw	s0,104(sp)
   16d54:	04000793          	li	a5,64
   16d58:	00f4a023          	sw	a5,0(s1)
   16d5c:	06012903          	lw	s2,96(sp)
   16d60:	06412483          	lw	s1,100(sp)
   16d64:	00000513          	li	a0,0
   16d68:	07010113          	addi	sp,sp,112
   16d6c:	00008067          	ret
   16d70:	06c12083          	lw	ra,108(sp)
   16d74:	06812403          	lw	s0,104(sp)
   16d78:	40000793          	li	a5,1024
   16d7c:	00f4a023          	sw	a5,0(s1)
   16d80:	06012903          	lw	s2,96(sp)
   16d84:	06412483          	lw	s1,100(sp)
   16d88:	00000513          	li	a0,0
   16d8c:	07010113          	addi	sp,sp,112
   16d90:	00008067          	ret

00016d94 <__smakebuf_r>:
   16d94:	00c5d703          	lhu	a4,12(a1)
   16d98:	fe010113          	addi	sp,sp,-32
   16d9c:	00812c23          	sw	s0,24(sp)
   16da0:	00112e23          	sw	ra,28(sp)
   16da4:	00912a23          	sw	s1,20(sp)
   16da8:	01212823          	sw	s2,16(sp)
   16dac:	00277713          	andi	a4,a4,2
   16db0:	00058413          	mv	s0,a1
   16db4:	02070863          	beqz	a4,16de4 <__smakebuf_r+0x50>
   16db8:	04358713          	addi	a4,a1,67
   16dbc:	00e5a023          	sw	a4,0(a1)
   16dc0:	00e5a823          	sw	a4,16(a1)
   16dc4:	00100713          	li	a4,1
   16dc8:	00e5aa23          	sw	a4,20(a1)
   16dcc:	01c12083          	lw	ra,28(sp)
   16dd0:	01812403          	lw	s0,24(sp)
   16dd4:	01412483          	lw	s1,20(sp)
   16dd8:	01012903          	lw	s2,16(sp)
   16ddc:	02010113          	addi	sp,sp,32
   16de0:	00008067          	ret
   16de4:	00c10693          	addi	a3,sp,12
   16de8:	00810613          	addi	a2,sp,8
   16dec:	00050493          	mv	s1,a0
   16df0:	ed5ff0ef          	jal	ra,16cc4 <__swhatbuf_r>
   16df4:	00812583          	lw	a1,8(sp)
   16df8:	00050913          	mv	s2,a0
   16dfc:	00048513          	mv	a0,s1
   16e00:	0b4000ef          	jal	ra,16eb4 <_malloc_r>
   16e04:	00c41783          	lh	a5,12(s0)
   16e08:	04050863          	beqz	a0,16e58 <__smakebuf_r+0xc4>
   16e0c:	ffffd697          	auipc	a3,0xffffd
   16e10:	96468693          	addi	a3,a3,-1692 # 13770 <_cleanup_r>
   16e14:	02d4ae23          	sw	a3,60(s1)
   16e18:	00812683          	lw	a3,8(sp)
   16e1c:	00c12703          	lw	a4,12(sp)
   16e20:	0807e793          	ori	a5,a5,128
   16e24:	00f41623          	sh	a5,12(s0)
   16e28:	00a42023          	sw	a0,0(s0)
   16e2c:	00a42823          	sw	a0,16(s0)
   16e30:	00d42a23          	sw	a3,20(s0)
   16e34:	04071863          	bnez	a4,16e84 <__smakebuf_r+0xf0>
   16e38:	0127e7b3          	or	a5,a5,s2
   16e3c:	00f41623          	sh	a5,12(s0)
   16e40:	01c12083          	lw	ra,28(sp)
   16e44:	01812403          	lw	s0,24(sp)
   16e48:	01412483          	lw	s1,20(sp)
   16e4c:	01012903          	lw	s2,16(sp)
   16e50:	02010113          	addi	sp,sp,32
   16e54:	00008067          	ret
   16e58:	2007f713          	andi	a4,a5,512
   16e5c:	f60718e3          	bnez	a4,16dcc <__smakebuf_r+0x38>
   16e60:	ffc7f793          	andi	a5,a5,-4
   16e64:	0027e793          	ori	a5,a5,2
   16e68:	04340713          	addi	a4,s0,67
   16e6c:	00f41623          	sh	a5,12(s0)
   16e70:	00100793          	li	a5,1
   16e74:	00e42023          	sw	a4,0(s0)
   16e78:	00e42823          	sw	a4,16(s0)
   16e7c:	00f42a23          	sw	a5,20(s0)
   16e80:	f4dff06f          	j	16dcc <__smakebuf_r+0x38>
   16e84:	00e41583          	lh	a1,14(s0)
   16e88:	00048513          	mv	a0,s1
   16e8c:	221060ef          	jal	ra,1d8ac <_isatty_r>
   16e90:	00051663          	bnez	a0,16e9c <__smakebuf_r+0x108>
   16e94:	00c41783          	lh	a5,12(s0)
   16e98:	fa1ff06f          	j	16e38 <__smakebuf_r+0xa4>
   16e9c:	00c45783          	lhu	a5,12(s0)
   16ea0:	ffc7f793          	andi	a5,a5,-4
   16ea4:	0017e793          	ori	a5,a5,1
   16ea8:	01079793          	slli	a5,a5,0x10
   16eac:	4107d793          	srai	a5,a5,0x10
   16eb0:	f89ff06f          	j	16e38 <__smakebuf_r+0xa4>

00016eb4 <_malloc_r>:
   16eb4:	fd010113          	addi	sp,sp,-48
   16eb8:	02912223          	sw	s1,36(sp)
   16ebc:	03212023          	sw	s2,32(sp)
   16ec0:	02112623          	sw	ra,44(sp)
   16ec4:	02812423          	sw	s0,40(sp)
   16ec8:	01312e23          	sw	s3,28(sp)
   16ecc:	01412c23          	sw	s4,24(sp)
   16ed0:	01512a23          	sw	s5,20(sp)
   16ed4:	01612823          	sw	s6,16(sp)
   16ed8:	01712623          	sw	s7,12(sp)
   16edc:	01812423          	sw	s8,8(sp)
   16ee0:	01912223          	sw	s9,4(sp)
   16ee4:	00b58493          	addi	s1,a1,11
   16ee8:	01600793          	li	a5,22
   16eec:	00050913          	mv	s2,a0
   16ef0:	0697e663          	bltu	a5,s1,16f5c <_malloc_r+0xa8>
   16ef4:	01000793          	li	a5,16
   16ef8:	22b7ec63          	bltu	a5,a1,17130 <_malloc_r+0x27c>
   16efc:	115000ef          	jal	ra,17810 <__malloc_lock>
   16f00:	01000493          	li	s1,16
   16f04:	01800793          	li	a5,24
   16f08:	00200613          	li	a2,2
   16f0c:	00010997          	auipc	s3,0x10
   16f10:	a5898993          	addi	s3,s3,-1448 # 26964 <__malloc_av_>
   16f14:	00f987b3          	add	a5,s3,a5
   16f18:	0047a403          	lw	s0,4(a5) # f004 <_start-0xffc>
   16f1c:	ff878713          	addi	a4,a5,-8
   16f20:	26e40063          	beq	s0,a4,17180 <_malloc_r+0x2cc>
   16f24:	00442783          	lw	a5,4(s0)
   16f28:	00c42683          	lw	a3,12(s0)
   16f2c:	00842603          	lw	a2,8(s0)
   16f30:	ffc7f793          	andi	a5,a5,-4
   16f34:	00f407b3          	add	a5,s0,a5
   16f38:	0047a703          	lw	a4,4(a5)
   16f3c:	00d62623          	sw	a3,12(a2)
   16f40:	00c6a423          	sw	a2,8(a3)
   16f44:	00176713          	ori	a4,a4,1
   16f48:	00090513          	mv	a0,s2
   16f4c:	00e7a223          	sw	a4,4(a5)
   16f50:	0c5000ef          	jal	ra,17814 <__malloc_unlock>
   16f54:	00840513          	addi	a0,s0,8
   16f58:	1e40006f          	j	1713c <_malloc_r+0x288>
   16f5c:	ff84f493          	andi	s1,s1,-8
   16f60:	1c04c863          	bltz	s1,17130 <_malloc_r+0x27c>
   16f64:	1cb4e663          	bltu	s1,a1,17130 <_malloc_r+0x27c>
   16f68:	0a9000ef          	jal	ra,17810 <__malloc_lock>
   16f6c:	1f700793          	li	a5,503
   16f70:	4a97f463          	bgeu	a5,s1,17418 <_malloc_r+0x564>
   16f74:	0094d793          	srli	a5,s1,0x9
   16f78:	1e078c63          	beqz	a5,17170 <_malloc_r+0x2bc>
   16f7c:	00400713          	li	a4,4
   16f80:	42f76863          	bltu	a4,a5,173b0 <_malloc_r+0x4fc>
   16f84:	0064d793          	srli	a5,s1,0x6
   16f88:	03978613          	addi	a2,a5,57
   16f8c:	03878513          	addi	a0,a5,56
   16f90:	00361693          	slli	a3,a2,0x3
   16f94:	00010997          	auipc	s3,0x10
   16f98:	9d098993          	addi	s3,s3,-1584 # 26964 <__malloc_av_>
   16f9c:	00d986b3          	add	a3,s3,a3
   16fa0:	0046a403          	lw	s0,4(a3)
   16fa4:	ff868693          	addi	a3,a3,-8
   16fa8:	02868c63          	beq	a3,s0,16fe0 <_malloc_r+0x12c>
   16fac:	00442783          	lw	a5,4(s0)
   16fb0:	00f00593          	li	a1,15
   16fb4:	ffc7f793          	andi	a5,a5,-4
   16fb8:	40978733          	sub	a4,a5,s1
   16fbc:	02e5c063          	blt	a1,a4,16fdc <_malloc_r+0x128>
   16fc0:	38075263          	bgez	a4,17344 <_malloc_r+0x490>
   16fc4:	00c42403          	lw	s0,12(s0)
   16fc8:	00868c63          	beq	a3,s0,16fe0 <_malloc_r+0x12c>
   16fcc:	00442783          	lw	a5,4(s0)
   16fd0:	ffc7f793          	andi	a5,a5,-4
   16fd4:	40978733          	sub	a4,a5,s1
   16fd8:	fee5d4e3          	bge	a1,a4,16fc0 <_malloc_r+0x10c>
   16fdc:	00050613          	mv	a2,a0
   16fe0:	0109a403          	lw	s0,16(s3)
   16fe4:	00010817          	auipc	a6,0x10
   16fe8:	98880813          	addi	a6,a6,-1656 # 2696c <__malloc_av_+0x8>
   16fec:	1b040863          	beq	s0,a6,1719c <_malloc_r+0x2e8>
   16ff0:	00442583          	lw	a1,4(s0)
   16ff4:	00f00713          	li	a4,15
   16ff8:	ffc5f593          	andi	a1,a1,-4
   16ffc:	409587b3          	sub	a5,a1,s1
   17000:	44f74263          	blt	a4,a5,17444 <_malloc_r+0x590>
   17004:	00010717          	auipc	a4,0x10
   17008:	97072a23          	sw	a6,-1676(a4) # 26978 <__malloc_av_+0x14>
   1700c:	00010717          	auipc	a4,0x10
   17010:	97072423          	sw	a6,-1688(a4) # 26974 <__malloc_av_+0x10>
   17014:	4007d863          	bgez	a5,17424 <_malloc_r+0x570>
   17018:	1ff00793          	li	a5,511
   1701c:	32b7ea63          	bltu	a5,a1,17350 <_malloc_r+0x49c>
   17020:	0035d593          	srli	a1,a1,0x3
   17024:	00158793          	addi	a5,a1,1
   17028:	00379793          	slli	a5,a5,0x3
   1702c:	0049a503          	lw	a0,4(s3)
   17030:	00f987b3          	add	a5,s3,a5
   17034:	0007a683          	lw	a3,0(a5)
   17038:	4025d593          	srai	a1,a1,0x2
   1703c:	00100713          	li	a4,1
   17040:	00b71733          	sll	a4,a4,a1
   17044:	00a76733          	or	a4,a4,a0
   17048:	ff878593          	addi	a1,a5,-8
   1704c:	00b42623          	sw	a1,12(s0)
   17050:	00d42423          	sw	a3,8(s0)
   17054:	00010597          	auipc	a1,0x10
   17058:	90e5aa23          	sw	a4,-1772(a1) # 26968 <__malloc_av_+0x4>
   1705c:	0087a023          	sw	s0,0(a5)
   17060:	0086a623          	sw	s0,12(a3)
   17064:	40265793          	srai	a5,a2,0x2
   17068:	00100693          	li	a3,1
   1706c:	00f696b3          	sll	a3,a3,a5
   17070:	14d76063          	bltu	a4,a3,171b0 <_malloc_r+0x2fc>
   17074:	00e6f7b3          	and	a5,a3,a4
   17078:	02079463          	bnez	a5,170a0 <_malloc_r+0x1ec>
   1707c:	00169693          	slli	a3,a3,0x1
   17080:	ffc67613          	andi	a2,a2,-4
   17084:	00e6f7b3          	and	a5,a3,a4
   17088:	00460613          	addi	a2,a2,4
   1708c:	00079a63          	bnez	a5,170a0 <_malloc_r+0x1ec>
   17090:	00169693          	slli	a3,a3,0x1
   17094:	00e6f7b3          	and	a5,a3,a4
   17098:	00460613          	addi	a2,a2,4
   1709c:	fe078ae3          	beqz	a5,17090 <_malloc_r+0x1dc>
   170a0:	00f00513          	li	a0,15
   170a4:	00361893          	slli	a7,a2,0x3
   170a8:	011988b3          	add	a7,s3,a7
   170ac:	00088593          	mv	a1,a7
   170b0:	00060313          	mv	t1,a2
   170b4:	00c5a403          	lw	s0,12(a1)
   170b8:	00859a63          	bne	a1,s0,170cc <_malloc_r+0x218>
   170bc:	3180006f          	j	173d4 <_malloc_r+0x520>
   170c0:	32075463          	bgez	a4,173e8 <_malloc_r+0x534>
   170c4:	00c42403          	lw	s0,12(s0)
   170c8:	30858663          	beq	a1,s0,173d4 <_malloc_r+0x520>
   170cc:	00442783          	lw	a5,4(s0)
   170d0:	ffc7f793          	andi	a5,a5,-4
   170d4:	40978733          	sub	a4,a5,s1
   170d8:	fee554e3          	bge	a0,a4,170c0 <_malloc_r+0x20c>
   170dc:	00c42683          	lw	a3,12(s0)
   170e0:	00842603          	lw	a2,8(s0)
   170e4:	0014e593          	ori	a1,s1,1
   170e8:	00b42223          	sw	a1,4(s0)
   170ec:	00d62623          	sw	a3,12(a2)
   170f0:	00c6a423          	sw	a2,8(a3)
   170f4:	009404b3          	add	s1,s0,s1
   170f8:	00010697          	auipc	a3,0x10
   170fc:	8896a023          	sw	s1,-1920(a3) # 26978 <__malloc_av_+0x14>
   17100:	00010697          	auipc	a3,0x10
   17104:	8696aa23          	sw	s1,-1932(a3) # 26974 <__malloc_av_+0x10>
   17108:	00176693          	ori	a3,a4,1
   1710c:	0104a623          	sw	a6,12(s1)
   17110:	0104a423          	sw	a6,8(s1)
   17114:	00d4a223          	sw	a3,4(s1)
   17118:	00f407b3          	add	a5,s0,a5
   1711c:	00090513          	mv	a0,s2
   17120:	00e7a023          	sw	a4,0(a5)
   17124:	6f0000ef          	jal	ra,17814 <__malloc_unlock>
   17128:	00840513          	addi	a0,s0,8
   1712c:	0100006f          	j	1713c <_malloc_r+0x288>
   17130:	00c00793          	li	a5,12
   17134:	00f92023          	sw	a5,0(s2)
   17138:	00000513          	li	a0,0
   1713c:	02c12083          	lw	ra,44(sp)
   17140:	02812403          	lw	s0,40(sp)
   17144:	02412483          	lw	s1,36(sp)
   17148:	02012903          	lw	s2,32(sp)
   1714c:	01c12983          	lw	s3,28(sp)
   17150:	01812a03          	lw	s4,24(sp)
   17154:	01412a83          	lw	s5,20(sp)
   17158:	01012b03          	lw	s6,16(sp)
   1715c:	00c12b83          	lw	s7,12(sp)
   17160:	00812c03          	lw	s8,8(sp)
   17164:	00412c83          	lw	s9,4(sp)
   17168:	03010113          	addi	sp,sp,48
   1716c:	00008067          	ret
   17170:	20000693          	li	a3,512
   17174:	04000613          	li	a2,64
   17178:	03f00513          	li	a0,63
   1717c:	e19ff06f          	j	16f94 <_malloc_r+0xe0>
   17180:	00c7a403          	lw	s0,12(a5)
   17184:	00260613          	addi	a2,a2,2
   17188:	d8879ee3          	bne	a5,s0,16f24 <_malloc_r+0x70>
   1718c:	0109a403          	lw	s0,16(s3)
   17190:	0000f817          	auipc	a6,0xf
   17194:	7dc80813          	addi	a6,a6,2012 # 2696c <__malloc_av_+0x8>
   17198:	e5041ce3          	bne	s0,a6,16ff0 <_malloc_r+0x13c>
   1719c:	0049a703          	lw	a4,4(s3)
   171a0:	40265793          	srai	a5,a2,0x2
   171a4:	00100693          	li	a3,1
   171a8:	00f696b3          	sll	a3,a3,a5
   171ac:	ecd774e3          	bgeu	a4,a3,17074 <_malloc_r+0x1c0>
   171b0:	0089a403          	lw	s0,8(s3)
   171b4:	00442a83          	lw	s5,4(s0)
   171b8:	ffcafb93          	andi	s7,s5,-4
   171bc:	009be863          	bltu	s7,s1,171cc <_malloc_r+0x318>
   171c0:	409b87b3          	sub	a5,s7,s1
   171c4:	00f00713          	li	a4,15
   171c8:	14f74863          	blt	a4,a5,17318 <_malloc_r+0x464>
   171cc:	83018793          	addi	a5,gp,-2000 # 26da0 <__malloc_top_pad>
   171d0:	82018c13          	addi	s8,gp,-2016 # 26d90 <__malloc_sbrk_base>
   171d4:	0007aa83          	lw	s5,0(a5)
   171d8:	000c2703          	lw	a4,0(s8)
   171dc:	fff00793          	li	a5,-1
   171e0:	01740a33          	add	s4,s0,s7
   171e4:	01548ab3          	add	s5,s1,s5
   171e8:	34f70663          	beq	a4,a5,17534 <_malloc_r+0x680>
   171ec:	000017b7          	lui	a5,0x1
   171f0:	00f78793          	addi	a5,a5,15 # 100f <_start-0xeff1>
   171f4:	00fa8ab3          	add	s5,s5,a5
   171f8:	fffff7b7          	lui	a5,0xfffff
   171fc:	00fafab3          	and	s5,s5,a5
   17200:	000a8593          	mv	a1,s5
   17204:	00090513          	mv	a0,s2
   17208:	6c0010ef          	jal	ra,188c8 <_sbrk_r>
   1720c:	fff00793          	li	a5,-1
   17210:	00050b13          	mv	s6,a0
   17214:	28f50663          	beq	a0,a5,174a0 <_malloc_r+0x5ec>
   17218:	29456263          	bltu	a0,s4,1749c <_malloc_r+0x5e8>
   1721c:	85418c93          	addi	s9,gp,-1964 # 26dc4 <__malloc_current_mallinfo>
   17220:	000ca783          	lw	a5,0(s9)
   17224:	00fa87b3          	add	a5,s5,a5
   17228:	84f1aa23          	sw	a5,-1964(gp) # 26dc4 <__malloc_current_mallinfo>
   1722c:	00078713          	mv	a4,a5
   17230:	3aaa0663          	beq	s4,a0,175dc <_malloc_r+0x728>
   17234:	000c2683          	lw	a3,0(s8)
   17238:	fff00793          	li	a5,-1
   1723c:	3af68e63          	beq	a3,a5,175f8 <_malloc_r+0x744>
   17240:	414b07b3          	sub	a5,s6,s4
   17244:	00e787b3          	add	a5,a5,a4
   17248:	84f1aa23          	sw	a5,-1964(gp) # 26dc4 <__malloc_current_mallinfo>
   1724c:	007b7c13          	andi	s8,s6,7
   17250:	300c0663          	beqz	s8,1755c <_malloc_r+0x6a8>
   17254:	418b0b33          	sub	s6,s6,s8
   17258:	000017b7          	lui	a5,0x1
   1725c:	008b0b13          	addi	s6,s6,8
   17260:	fff78a13          	addi	s4,a5,-1 # fff <_start-0xf001>
   17264:	015b0ab3          	add	s5,s6,s5
   17268:	00878793          	addi	a5,a5,8
   1726c:	014af733          	and	a4,s5,s4
   17270:	418787b3          	sub	a5,a5,s8
   17274:	40e787b3          	sub	a5,a5,a4
   17278:	0147fa33          	and	s4,a5,s4
   1727c:	000a0593          	mv	a1,s4
   17280:	00090513          	mv	a0,s2
   17284:	644010ef          	jal	ra,188c8 <_sbrk_r>
   17288:	fff00793          	li	a5,-1
   1728c:	3cf50063          	beq	a0,a5,1764c <_malloc_r+0x798>
   17290:	41650533          	sub	a0,a0,s6
   17294:	01450ab3          	add	s5,a0,s4
   17298:	000ca783          	lw	a5,0(s9)
   1729c:	0000f717          	auipc	a4,0xf
   172a0:	6d672823          	sw	s6,1744(a4) # 2696c <__malloc_av_+0x8>
   172a4:	001aea93          	ori	s5,s5,1
   172a8:	00fa07b3          	add	a5,s4,a5
   172ac:	84f1aa23          	sw	a5,-1964(gp) # 26dc4 <__malloc_current_mallinfo>
   172b0:	015b2223          	sw	s5,4(s6)
   172b4:	35340663          	beq	s0,s3,17600 <_malloc_r+0x74c>
   172b8:	00f00613          	li	a2,15
   172bc:	35767663          	bgeu	a2,s7,17608 <_malloc_r+0x754>
   172c0:	00442683          	lw	a3,4(s0)
   172c4:	ff4b8713          	addi	a4,s7,-12
   172c8:	ff877713          	andi	a4,a4,-8
   172cc:	0016f693          	andi	a3,a3,1
   172d0:	00e6e6b3          	or	a3,a3,a4
   172d4:	00d42223          	sw	a3,4(s0)
   172d8:	00500593          	li	a1,5
   172dc:	00e406b3          	add	a3,s0,a4
   172e0:	00b6a223          	sw	a1,4(a3)
   172e4:	00b6a423          	sw	a1,8(a3)
   172e8:	36e66c63          	bltu	a2,a4,17660 <_malloc_r+0x7ac>
   172ec:	004b2a83          	lw	s5,4(s6)
   172f0:	000b0413          	mv	s0,s6
   172f4:	82c18713          	addi	a4,gp,-2004 # 26d9c <__malloc_max_sbrked_mem>
   172f8:	00072703          	lw	a4,0(a4)
   172fc:	00f77463          	bgeu	a4,a5,17304 <_malloc_r+0x450>
   17300:	82f1a623          	sw	a5,-2004(gp) # 26d9c <__malloc_max_sbrked_mem>
   17304:	82818713          	addi	a4,gp,-2008 # 26d98 <_edata>
   17308:	00072703          	lw	a4,0(a4)
   1730c:	18f77e63          	bgeu	a4,a5,174a8 <_malloc_r+0x5f4>
   17310:	82f1a423          	sw	a5,-2008(gp) # 26d98 <_edata>
   17314:	1940006f          	j	174a8 <_malloc_r+0x5f4>
   17318:	0014e713          	ori	a4,s1,1
   1731c:	00e42223          	sw	a4,4(s0)
   17320:	009404b3          	add	s1,s0,s1
   17324:	0000f717          	auipc	a4,0xf
   17328:	64972423          	sw	s1,1608(a4) # 2696c <__malloc_av_+0x8>
   1732c:	0017e793          	ori	a5,a5,1
   17330:	00090513          	mv	a0,s2
   17334:	00f4a223          	sw	a5,4(s1)
   17338:	4dc000ef          	jal	ra,17814 <__malloc_unlock>
   1733c:	00840513          	addi	a0,s0,8
   17340:	dfdff06f          	j	1713c <_malloc_r+0x288>
   17344:	00c42683          	lw	a3,12(s0)
   17348:	00842603          	lw	a2,8(s0)
   1734c:	be9ff06f          	j	16f34 <_malloc_r+0x80>
   17350:	0095d793          	srli	a5,a1,0x9
   17354:	00400713          	li	a4,4
   17358:	12f77863          	bgeu	a4,a5,17488 <_malloc_r+0x5d4>
   1735c:	01400713          	li	a4,20
   17360:	22f76863          	bltu	a4,a5,17590 <_malloc_r+0x6dc>
   17364:	05c78693          	addi	a3,a5,92
   17368:	05b78713          	addi	a4,a5,91
   1736c:	00369693          	slli	a3,a3,0x3
   17370:	00d986b3          	add	a3,s3,a3
   17374:	0006a783          	lw	a5,0(a3)
   17378:	ff868693          	addi	a3,a3,-8
   1737c:	1cf68063          	beq	a3,a5,1753c <_malloc_r+0x688>
   17380:	0047a703          	lw	a4,4(a5)
   17384:	ffc77713          	andi	a4,a4,-4
   17388:	00e5f663          	bgeu	a1,a4,17394 <_malloc_r+0x4e0>
   1738c:	0087a783          	lw	a5,8(a5)
   17390:	fef698e3          	bne	a3,a5,17380 <_malloc_r+0x4cc>
   17394:	00c7a683          	lw	a3,12(a5)
   17398:	0049a703          	lw	a4,4(s3)
   1739c:	00d42623          	sw	a3,12(s0)
   173a0:	00f42423          	sw	a5,8(s0)
   173a4:	0086a423          	sw	s0,8(a3)
   173a8:	0087a623          	sw	s0,12(a5)
   173ac:	cb9ff06f          	j	17064 <_malloc_r+0x1b0>
   173b0:	01400713          	li	a4,20
   173b4:	10f77c63          	bgeu	a4,a5,174cc <_malloc_r+0x618>
   173b8:	05400713          	li	a4,84
   173bc:	1ef76863          	bltu	a4,a5,175ac <_malloc_r+0x6f8>
   173c0:	00c4d793          	srli	a5,s1,0xc
   173c4:	06f78613          	addi	a2,a5,111
   173c8:	06e78513          	addi	a0,a5,110
   173cc:	00361693          	slli	a3,a2,0x3
   173d0:	bc5ff06f          	j	16f94 <_malloc_r+0xe0>
   173d4:	00130313          	addi	t1,t1,1
   173d8:	00337793          	andi	a5,t1,3
   173dc:	00858593          	addi	a1,a1,8
   173e0:	cc079ae3          	bnez	a5,170b4 <_malloc_r+0x200>
   173e4:	1040006f          	j	174e8 <_malloc_r+0x634>
   173e8:	00f407b3          	add	a5,s0,a5
   173ec:	0047a703          	lw	a4,4(a5)
   173f0:	00c42683          	lw	a3,12(s0)
   173f4:	00842603          	lw	a2,8(s0)
   173f8:	00176713          	ori	a4,a4,1
   173fc:	00e7a223          	sw	a4,4(a5)
   17400:	00d62623          	sw	a3,12(a2)
   17404:	00090513          	mv	a0,s2
   17408:	00c6a423          	sw	a2,8(a3)
   1740c:	408000ef          	jal	ra,17814 <__malloc_unlock>
   17410:	00840513          	addi	a0,s0,8
   17414:	d29ff06f          	j	1713c <_malloc_r+0x288>
   17418:	0034d613          	srli	a2,s1,0x3
   1741c:	00848793          	addi	a5,s1,8
   17420:	aedff06f          	j	16f0c <_malloc_r+0x58>
   17424:	00b405b3          	add	a1,s0,a1
   17428:	0045a783          	lw	a5,4(a1)
   1742c:	00090513          	mv	a0,s2
   17430:	0017e793          	ori	a5,a5,1
   17434:	00f5a223          	sw	a5,4(a1)
   17438:	3dc000ef          	jal	ra,17814 <__malloc_unlock>
   1743c:	00840513          	addi	a0,s0,8
   17440:	cfdff06f          	j	1713c <_malloc_r+0x288>
   17444:	0014e713          	ori	a4,s1,1
   17448:	00e42223          	sw	a4,4(s0)
   1744c:	009404b3          	add	s1,s0,s1
   17450:	0000f717          	auipc	a4,0xf
   17454:	52972423          	sw	s1,1320(a4) # 26978 <__malloc_av_+0x14>
   17458:	0000f717          	auipc	a4,0xf
   1745c:	50972e23          	sw	s1,1308(a4) # 26974 <__malloc_av_+0x10>
   17460:	0017e713          	ori	a4,a5,1
   17464:	0104a623          	sw	a6,12(s1)
   17468:	0104a423          	sw	a6,8(s1)
   1746c:	00e4a223          	sw	a4,4(s1)
   17470:	00b405b3          	add	a1,s0,a1
   17474:	00090513          	mv	a0,s2
   17478:	00f5a023          	sw	a5,0(a1)
   1747c:	398000ef          	jal	ra,17814 <__malloc_unlock>
   17480:	00840513          	addi	a0,s0,8
   17484:	cb9ff06f          	j	1713c <_malloc_r+0x288>
   17488:	0065d793          	srli	a5,a1,0x6
   1748c:	03978693          	addi	a3,a5,57
   17490:	03878713          	addi	a4,a5,56
   17494:	00369693          	slli	a3,a3,0x3
   17498:	ed9ff06f          	j	17370 <_malloc_r+0x4bc>
   1749c:	13340663          	beq	s0,s3,175c8 <_malloc_r+0x714>
   174a0:	0089a403          	lw	s0,8(s3)
   174a4:	00442a83          	lw	s5,4(s0)
   174a8:	ffcafa93          	andi	s5,s5,-4
   174ac:	409a87b3          	sub	a5,s5,s1
   174b0:	009ae663          	bltu	s5,s1,174bc <_malloc_r+0x608>
   174b4:	00f00713          	li	a4,15
   174b8:	e6f740e3          	blt	a4,a5,17318 <_malloc_r+0x464>
   174bc:	00090513          	mv	a0,s2
   174c0:	354000ef          	jal	ra,17814 <__malloc_unlock>
   174c4:	00000513          	li	a0,0
   174c8:	c75ff06f          	j	1713c <_malloc_r+0x288>
   174cc:	05c78613          	addi	a2,a5,92
   174d0:	05b78513          	addi	a0,a5,91
   174d4:	00361693          	slli	a3,a2,0x3
   174d8:	abdff06f          	j	16f94 <_malloc_r+0xe0>
   174dc:	0088a783          	lw	a5,8(a7)
   174e0:	fff60613          	addi	a2,a2,-1
   174e4:	1d179863          	bne	a5,a7,176b4 <_malloc_r+0x800>
   174e8:	00367793          	andi	a5,a2,3
   174ec:	ff888893          	addi	a7,a7,-8
   174f0:	fe0796e3          	bnez	a5,174dc <_malloc_r+0x628>
   174f4:	0049a703          	lw	a4,4(s3)
   174f8:	fff6c793          	not	a5,a3
   174fc:	00e7f7b3          	and	a5,a5,a4
   17500:	0000f717          	auipc	a4,0xf
   17504:	46f72423          	sw	a5,1128(a4) # 26968 <__malloc_av_+0x4>
   17508:	00169693          	slli	a3,a3,0x1
   1750c:	cad7e2e3          	bltu	a5,a3,171b0 <_malloc_r+0x2fc>
   17510:	ca0680e3          	beqz	a3,171b0 <_malloc_r+0x2fc>
   17514:	00f6f733          	and	a4,a3,a5
   17518:	00071a63          	bnez	a4,1752c <_malloc_r+0x678>
   1751c:	00169693          	slli	a3,a3,0x1
   17520:	00f6f733          	and	a4,a3,a5
   17524:	00430313          	addi	t1,t1,4
   17528:	fe070ae3          	beqz	a4,1751c <_malloc_r+0x668>
   1752c:	00030613          	mv	a2,t1
   17530:	b75ff06f          	j	170a4 <_malloc_r+0x1f0>
   17534:	010a8a93          	addi	s5,s5,16
   17538:	cc9ff06f          	j	17200 <_malloc_r+0x34c>
   1753c:	0049a503          	lw	a0,4(s3)
   17540:	40275593          	srai	a1,a4,0x2
   17544:	00100713          	li	a4,1
   17548:	00b71733          	sll	a4,a4,a1
   1754c:	00a76733          	or	a4,a4,a0
   17550:	0000f597          	auipc	a1,0xf
   17554:	40e5ac23          	sw	a4,1048(a1) # 26968 <__malloc_av_+0x4>
   17558:	e45ff06f          	j	1739c <_malloc_r+0x4e8>
   1755c:	000017b7          	lui	a5,0x1
   17560:	fff78713          	addi	a4,a5,-1 # fff <_start-0xf001>
   17564:	015b0a33          	add	s4,s6,s5
   17568:	00ea7a33          	and	s4,s4,a4
   1756c:	414787b3          	sub	a5,a5,s4
   17570:	00e7fa33          	and	s4,a5,a4
   17574:	000a0593          	mv	a1,s4
   17578:	00090513          	mv	a0,s2
   1757c:	34c010ef          	jal	ra,188c8 <_sbrk_r>
   17580:	fff00793          	li	a5,-1
   17584:	d0f516e3          	bne	a0,a5,17290 <_malloc_r+0x3dc>
   17588:	00000a13          	li	s4,0
   1758c:	d0dff06f          	j	17298 <_malloc_r+0x3e4>
   17590:	05400713          	li	a4,84
   17594:	08f76063          	bltu	a4,a5,17614 <_malloc_r+0x760>
   17598:	00c5d793          	srli	a5,a1,0xc
   1759c:	06f78693          	addi	a3,a5,111
   175a0:	06e78713          	addi	a4,a5,110
   175a4:	00369693          	slli	a3,a3,0x3
   175a8:	dc9ff06f          	j	17370 <_malloc_r+0x4bc>
   175ac:	15400713          	li	a4,340
   175b0:	08f76063          	bltu	a4,a5,17630 <_malloc_r+0x77c>
   175b4:	00f4d793          	srli	a5,s1,0xf
   175b8:	07878613          	addi	a2,a5,120
   175bc:	07778513          	addi	a0,a5,119
   175c0:	00361693          	slli	a3,a2,0x3
   175c4:	9d1ff06f          	j	16f94 <_malloc_r+0xe0>
   175c8:	85418c93          	addi	s9,gp,-1964 # 26dc4 <__malloc_current_mallinfo>
   175cc:	000ca783          	lw	a5,0(s9)
   175d0:	00fa8733          	add	a4,s5,a5
   175d4:	84e1aa23          	sw	a4,-1964(gp) # 26dc4 <__malloc_current_mallinfo>
   175d8:	c5dff06f          	j	17234 <_malloc_r+0x380>
   175dc:	014a1693          	slli	a3,s4,0x14
   175e0:	c4069ae3          	bnez	a3,17234 <_malloc_r+0x380>
   175e4:	0089a403          	lw	s0,8(s3)
   175e8:	015b8ab3          	add	s5,s7,s5
   175ec:	001aea93          	ori	s5,s5,1
   175f0:	01542223          	sw	s5,4(s0)
   175f4:	d01ff06f          	j	172f4 <_malloc_r+0x440>
   175f8:	8361a023          	sw	s6,-2016(gp) # 26d90 <__malloc_sbrk_base>
   175fc:	c51ff06f          	j	1724c <_malloc_r+0x398>
   17600:	000b0413          	mv	s0,s6
   17604:	cf1ff06f          	j	172f4 <_malloc_r+0x440>
   17608:	00100793          	li	a5,1
   1760c:	00fb2223          	sw	a5,4(s6)
   17610:	eadff06f          	j	174bc <_malloc_r+0x608>
   17614:	15400713          	li	a4,340
   17618:	06f76263          	bltu	a4,a5,1767c <_malloc_r+0x7c8>
   1761c:	00f5d793          	srli	a5,a1,0xf
   17620:	07878693          	addi	a3,a5,120
   17624:	07778713          	addi	a4,a5,119
   17628:	00369693          	slli	a3,a3,0x3
   1762c:	d45ff06f          	j	17370 <_malloc_r+0x4bc>
   17630:	55400713          	li	a4,1364
   17634:	06f76263          	bltu	a4,a5,17698 <_malloc_r+0x7e4>
   17638:	0124d793          	srli	a5,s1,0x12
   1763c:	07d78613          	addi	a2,a5,125
   17640:	07c78513          	addi	a0,a5,124
   17644:	00361693          	slli	a3,a2,0x3
   17648:	94dff06f          	j	16f94 <_malloc_r+0xe0>
   1764c:	ff8c0c13          	addi	s8,s8,-8
   17650:	018a8ab3          	add	s5,s5,s8
   17654:	416a8ab3          	sub	s5,s5,s6
   17658:	00000a13          	li	s4,0
   1765c:	c3dff06f          	j	17298 <_malloc_r+0x3e4>
   17660:	00840593          	addi	a1,s0,8
   17664:	00090513          	mv	a0,s2
   17668:	da4fc0ef          	jal	ra,13c0c <_free_r>
   1766c:	0089a403          	lw	s0,8(s3)
   17670:	000ca783          	lw	a5,0(s9)
   17674:	00442a83          	lw	s5,4(s0)
   17678:	c7dff06f          	j	172f4 <_malloc_r+0x440>
   1767c:	55400713          	li	a4,1364
   17680:	02f76463          	bltu	a4,a5,176a8 <_malloc_r+0x7f4>
   17684:	0125d793          	srli	a5,a1,0x12
   17688:	07d78693          	addi	a3,a5,125
   1768c:	07c78713          	addi	a4,a5,124
   17690:	00369693          	slli	a3,a3,0x3
   17694:	cddff06f          	j	17370 <_malloc_r+0x4bc>
   17698:	3f800693          	li	a3,1016
   1769c:	07f00613          	li	a2,127
   176a0:	07e00513          	li	a0,126
   176a4:	8f1ff06f          	j	16f94 <_malloc_r+0xe0>
   176a8:	3f800693          	li	a3,1016
   176ac:	07e00713          	li	a4,126
   176b0:	cc1ff06f          	j	17370 <_malloc_r+0x4bc>
   176b4:	0049a783          	lw	a5,4(s3)
   176b8:	e51ff06f          	j	17508 <_malloc_r+0x654>

000176bc <_mbtowc_r>:
   176bc:	0000f797          	auipc	a5,0xf
   176c0:	13c78793          	addi	a5,a5,316 # 267f8 <__global_locale>
   176c4:	0e47a303          	lw	t1,228(a5)
   176c8:	00030067          	jr	t1

000176cc <__ascii_mbtowc>:
   176cc:	02058063          	beqz	a1,176ec <__ascii_mbtowc+0x20>
   176d0:	04060263          	beqz	a2,17714 <__ascii_mbtowc+0x48>
   176d4:	04068863          	beqz	a3,17724 <__ascii_mbtowc+0x58>
   176d8:	00064783          	lbu	a5,0(a2)
   176dc:	00f5a023          	sw	a5,0(a1)
   176e0:	00064503          	lbu	a0,0(a2)
   176e4:	00a03533          	snez	a0,a0
   176e8:	00008067          	ret
   176ec:	ff010113          	addi	sp,sp,-16
   176f0:	00c10593          	addi	a1,sp,12
   176f4:	02060463          	beqz	a2,1771c <__ascii_mbtowc+0x50>
   176f8:	02068a63          	beqz	a3,1772c <__ascii_mbtowc+0x60>
   176fc:	00064783          	lbu	a5,0(a2)
   17700:	00f5a023          	sw	a5,0(a1)
   17704:	00064503          	lbu	a0,0(a2)
   17708:	00a03533          	snez	a0,a0
   1770c:	01010113          	addi	sp,sp,16
   17710:	00008067          	ret
   17714:	00000513          	li	a0,0
   17718:	00008067          	ret
   1771c:	00000513          	li	a0,0
   17720:	fedff06f          	j	1770c <__ascii_mbtowc+0x40>
   17724:	ffe00513          	li	a0,-2
   17728:	00008067          	ret
   1772c:	ffe00513          	li	a0,-2
   17730:	fddff06f          	j	1770c <__ascii_mbtowc+0x40>

00017734 <memchr>:
   17734:	00357793          	andi	a5,a0,3
   17738:	0ff5f813          	andi	a6,a1,255
   1773c:	0c078663          	beqz	a5,17808 <memchr+0xd4>
   17740:	fff60793          	addi	a5,a2,-1
   17744:	04060e63          	beqz	a2,177a0 <memchr+0x6c>
   17748:	00054703          	lbu	a4,0(a0)
   1774c:	05070c63          	beq	a4,a6,177a4 <memchr+0x70>
   17750:	fff00693          	li	a3,-1
   17754:	0140006f          	j	17768 <memchr+0x34>
   17758:	fff78793          	addi	a5,a5,-1
   1775c:	04d78263          	beq	a5,a3,177a0 <memchr+0x6c>
   17760:	00054703          	lbu	a4,0(a0)
   17764:	05070063          	beq	a4,a6,177a4 <memchr+0x70>
   17768:	00150513          	addi	a0,a0,1
   1776c:	00357713          	andi	a4,a0,3
   17770:	fe0714e3          	bnez	a4,17758 <memchr+0x24>
   17774:	00300713          	li	a4,3
   17778:	02f76863          	bltu	a4,a5,177a8 <memchr+0x74>
   1777c:	02078263          	beqz	a5,177a0 <memchr+0x6c>
   17780:	00054703          	lbu	a4,0(a0)
   17784:	03070063          	beq	a4,a6,177a4 <memchr+0x70>
   17788:	00f507b3          	add	a5,a0,a5
   1778c:	00c0006f          	j	17798 <memchr+0x64>
   17790:	00054703          	lbu	a4,0(a0)
   17794:	01070863          	beq	a4,a6,177a4 <memchr+0x70>
   17798:	00150513          	addi	a0,a0,1
   1779c:	fea79ae3          	bne	a5,a0,17790 <memchr+0x5c>
   177a0:	00000513          	li	a0,0
   177a4:	00008067          	ret
   177a8:	00010737          	lui	a4,0x10
   177ac:	00859893          	slli	a7,a1,0x8
   177b0:	fff70713          	addi	a4,a4,-1 # ffff <_start-0x1>
   177b4:	00e8f8b3          	and	a7,a7,a4
   177b8:	0ff5f593          	andi	a1,a1,255
   177bc:	00b8e5b3          	or	a1,a7,a1
   177c0:	01059893          	slli	a7,a1,0x10
   177c4:	00b8e8b3          	or	a7,a7,a1
   177c8:	80808637          	lui	a2,0x80808
   177cc:	feff05b7          	lui	a1,0xfeff0
   177d0:	eff58593          	addi	a1,a1,-257 # fefefeff <__global_pointer$+0xfefc898f>
   177d4:	08060613          	addi	a2,a2,128 # 80808080 <__global_pointer$+0x807e0b10>
   177d8:	00300313          	li	t1,3
   177dc:	00052703          	lw	a4,0(a0)
   177e0:	00e8c733          	xor	a4,a7,a4
   177e4:	00b706b3          	add	a3,a4,a1
   177e8:	fff74713          	not	a4,a4
   177ec:	00e6f733          	and	a4,a3,a4
   177f0:	00c77733          	and	a4,a4,a2
   177f4:	f80716e3          	bnez	a4,17780 <memchr+0x4c>
   177f8:	ffc78793          	addi	a5,a5,-4
   177fc:	00450513          	addi	a0,a0,4
   17800:	fcf36ee3          	bltu	t1,a5,177dc <memchr+0xa8>
   17804:	f79ff06f          	j	1777c <memchr+0x48>
   17808:	00060793          	mv	a5,a2
   1780c:	f69ff06f          	j	17774 <memchr+0x40>

00017810 <__malloc_lock>:
   17810:	00008067          	ret

00017814 <__malloc_unlock>:
   17814:	00008067          	ret

00017818 <_Balloc>:
   17818:	04c52783          	lw	a5,76(a0)
   1781c:	ff010113          	addi	sp,sp,-16
   17820:	00812423          	sw	s0,8(sp)
   17824:	00912223          	sw	s1,4(sp)
   17828:	00112623          	sw	ra,12(sp)
   1782c:	01212023          	sw	s2,0(sp)
   17830:	00050413          	mv	s0,a0
   17834:	00058493          	mv	s1,a1
   17838:	02078e63          	beqz	a5,17874 <_Balloc+0x5c>
   1783c:	00249713          	slli	a4,s1,0x2
   17840:	00e787b3          	add	a5,a5,a4
   17844:	0007a503          	lw	a0,0(a5)
   17848:	04050663          	beqz	a0,17894 <_Balloc+0x7c>
   1784c:	00052703          	lw	a4,0(a0)
   17850:	00e7a023          	sw	a4,0(a5)
   17854:	00052823          	sw	zero,16(a0)
   17858:	00052623          	sw	zero,12(a0)
   1785c:	00c12083          	lw	ra,12(sp)
   17860:	00812403          	lw	s0,8(sp)
   17864:	00412483          	lw	s1,4(sp)
   17868:	00012903          	lw	s2,0(sp)
   1786c:	01010113          	addi	sp,sp,16
   17870:	00008067          	ret
   17874:	02100613          	li	a2,33
   17878:	00400593          	li	a1,4
   1787c:	700050ef          	jal	ra,1cf7c <_calloc_r>
   17880:	04a42623          	sw	a0,76(s0)
   17884:	00050793          	mv	a5,a0
   17888:	fa051ae3          	bnez	a0,1783c <_Balloc+0x24>
   1788c:	00000513          	li	a0,0
   17890:	fcdff06f          	j	1785c <_Balloc+0x44>
   17894:	00100913          	li	s2,1
   17898:	00991933          	sll	s2,s2,s1
   1789c:	00590613          	addi	a2,s2,5
   178a0:	00261613          	slli	a2,a2,0x2
   178a4:	00100593          	li	a1,1
   178a8:	00040513          	mv	a0,s0
   178ac:	6d0050ef          	jal	ra,1cf7c <_calloc_r>
   178b0:	fc050ee3          	beqz	a0,1788c <_Balloc+0x74>
   178b4:	00952223          	sw	s1,4(a0)
   178b8:	01252423          	sw	s2,8(a0)
   178bc:	f99ff06f          	j	17854 <_Balloc+0x3c>

000178c0 <_Bfree>:
   178c0:	02058063          	beqz	a1,178e0 <_Bfree+0x20>
   178c4:	0045a703          	lw	a4,4(a1)
   178c8:	04c52783          	lw	a5,76(a0)
   178cc:	00271713          	slli	a4,a4,0x2
   178d0:	00e787b3          	add	a5,a5,a4
   178d4:	0007a703          	lw	a4,0(a5)
   178d8:	00e5a023          	sw	a4,0(a1)
   178dc:	00b7a023          	sw	a1,0(a5)
   178e0:	00008067          	ret

000178e4 <__multadd>:
   178e4:	fd010113          	addi	sp,sp,-48
   178e8:	01312e23          	sw	s3,28(sp)
   178ec:	0105a983          	lw	s3,16(a1)
   178f0:	01812423          	sw	s8,8(sp)
   178f4:	00010c37          	lui	s8,0x10
   178f8:	02812423          	sw	s0,40(sp)
   178fc:	02912223          	sw	s1,36(sp)
   17900:	03212023          	sw	s2,32(sp)
   17904:	01412c23          	sw	s4,24(sp)
   17908:	01512a23          	sw	s5,20(sp)
   1790c:	01612823          	sw	s6,16(sp)
   17910:	02112623          	sw	ra,44(sp)
   17914:	01712623          	sw	s7,12(sp)
   17918:	00058a13          	mv	s4,a1
   1791c:	00050a93          	mv	s5,a0
   17920:	00060913          	mv	s2,a2
   17924:	00068413          	mv	s0,a3
   17928:	01458493          	addi	s1,a1,20
   1792c:	00000b13          	li	s6,0
   17930:	fffc0c13          	addi	s8,s8,-1 # ffff <_start-0x1>
   17934:	0004ab83          	lw	s7,0(s1)
   17938:	00090593          	mv	a1,s2
   1793c:	00448493          	addi	s1,s1,4
   17940:	018bf533          	and	a0,s7,s8
   17944:	3510c0ef          	jal	ra,24494 <__mulsi3>
   17948:	00850433          	add	s0,a0,s0
   1794c:	00090593          	mv	a1,s2
   17950:	010bd513          	srli	a0,s7,0x10
   17954:	3410c0ef          	jal	ra,24494 <__mulsi3>
   17958:	01045693          	srli	a3,s0,0x10
   1795c:	00d50533          	add	a0,a0,a3
   17960:	01051693          	slli	a3,a0,0x10
   17964:	01847433          	and	s0,s0,s8
   17968:	00868433          	add	s0,a3,s0
   1796c:	fe84ae23          	sw	s0,-4(s1)
   17970:	001b0b13          	addi	s6,s6,1
   17974:	01055413          	srli	s0,a0,0x10
   17978:	fb3b4ee3          	blt	s6,s3,17934 <__multadd+0x50>
   1797c:	02040263          	beqz	s0,179a0 <__multadd+0xbc>
   17980:	008a2783          	lw	a5,8(s4)
   17984:	04f9d863          	bge	s3,a5,179d4 <__multadd+0xf0>
   17988:	00498793          	addi	a5,s3,4
   1798c:	00279793          	slli	a5,a5,0x2
   17990:	00fa07b3          	add	a5,s4,a5
   17994:	0087a223          	sw	s0,4(a5)
   17998:	00198993          	addi	s3,s3,1
   1799c:	013a2823          	sw	s3,16(s4)
   179a0:	02c12083          	lw	ra,44(sp)
   179a4:	02812403          	lw	s0,40(sp)
   179a8:	000a0513          	mv	a0,s4
   179ac:	02412483          	lw	s1,36(sp)
   179b0:	02012903          	lw	s2,32(sp)
   179b4:	01c12983          	lw	s3,28(sp)
   179b8:	01812a03          	lw	s4,24(sp)
   179bc:	01412a83          	lw	s5,20(sp)
   179c0:	01012b03          	lw	s6,16(sp)
   179c4:	00c12b83          	lw	s7,12(sp)
   179c8:	00812c03          	lw	s8,8(sp)
   179cc:	03010113          	addi	sp,sp,48
   179d0:	00008067          	ret
   179d4:	004a2583          	lw	a1,4(s4)
   179d8:	000a8513          	mv	a0,s5
   179dc:	00158593          	addi	a1,a1,1
   179e0:	e39ff0ef          	jal	ra,17818 <_Balloc>
   179e4:	010a2603          	lw	a2,16(s4)
   179e8:	00050493          	mv	s1,a0
   179ec:	00ca0593          	addi	a1,s4,12
   179f0:	00260613          	addi	a2,a2,2
   179f4:	00c50513          	addi	a0,a0,12
   179f8:	00261613          	slli	a2,a2,0x2
   179fc:	765050ef          	jal	ra,1d960 <memcpy>
   17a00:	004a2703          	lw	a4,4(s4)
   17a04:	04caa783          	lw	a5,76(s5)
   17a08:	00271713          	slli	a4,a4,0x2
   17a0c:	00e787b3          	add	a5,a5,a4
   17a10:	0007a703          	lw	a4,0(a5)
   17a14:	00ea2023          	sw	a4,0(s4)
   17a18:	0147a023          	sw	s4,0(a5)
   17a1c:	00498793          	addi	a5,s3,4
   17a20:	00048a13          	mv	s4,s1
   17a24:	00279793          	slli	a5,a5,0x2
   17a28:	00fa07b3          	add	a5,s4,a5
   17a2c:	0087a223          	sw	s0,4(a5)
   17a30:	00198993          	addi	s3,s3,1
   17a34:	013a2823          	sw	s3,16(s4)
   17a38:	f69ff06f          	j	179a0 <__multadd+0xbc>

00017a3c <__s2b>:
   17a3c:	fe010113          	addi	sp,sp,-32
   17a40:	00812c23          	sw	s0,24(sp)
   17a44:	01212823          	sw	s2,16(sp)
   17a48:	00058413          	mv	s0,a1
   17a4c:	00050913          	mv	s2,a0
   17a50:	00900593          	li	a1,9
   17a54:	00868513          	addi	a0,a3,8
   17a58:	00912a23          	sw	s1,20(sp)
   17a5c:	01312623          	sw	s3,12(sp)
   17a60:	01412423          	sw	s4,8(sp)
   17a64:	00112e23          	sw	ra,28(sp)
   17a68:	01512223          	sw	s5,4(sp)
   17a6c:	00068493          	mv	s1,a3
   17a70:	00060a13          	mv	s4,a2
   17a74:	00070993          	mv	s3,a4
   17a78:	2410c0ef          	jal	ra,244b8 <__divsi3>
   17a7c:	00900793          	li	a5,9
   17a80:	0c97d263          	bge	a5,s1,17b44 <__s2b+0x108>
   17a84:	00100793          	li	a5,1
   17a88:	00000593          	li	a1,0
   17a8c:	00179793          	slli	a5,a5,0x1
   17a90:	00158593          	addi	a1,a1,1
   17a94:	fea7cce3          	blt	a5,a0,17a8c <__s2b+0x50>
   17a98:	00090513          	mv	a0,s2
   17a9c:	d7dff0ef          	jal	ra,17818 <_Balloc>
   17aa0:	00100793          	li	a5,1
   17aa4:	00f52823          	sw	a5,16(a0)
   17aa8:	01352a23          	sw	s3,20(a0)
   17aac:	00900793          	li	a5,9
   17ab0:	0947d463          	bge	a5,s4,17b38 <__s2b+0xfc>
   17ab4:	00940a93          	addi	s5,s0,9
   17ab8:	014409b3          	add	s3,s0,s4
   17abc:	000a8413          	mv	s0,s5
   17ac0:	00140413          	addi	s0,s0,1
   17ac4:	fff44683          	lbu	a3,-1(s0)
   17ac8:	00050593          	mv	a1,a0
   17acc:	00a00613          	li	a2,10
   17ad0:	fd068693          	addi	a3,a3,-48
   17ad4:	00090513          	mv	a0,s2
   17ad8:	e0dff0ef          	jal	ra,178e4 <__multadd>
   17adc:	fe8992e3          	bne	s3,s0,17ac0 <__s2b+0x84>
   17ae0:	ff8a0413          	addi	s0,s4,-8
   17ae4:	008a8433          	add	s0,s5,s0
   17ae8:	029a5663          	bge	s4,s1,17b14 <__s2b+0xd8>
   17aec:	414484b3          	sub	s1,s1,s4
   17af0:	009404b3          	add	s1,s0,s1
   17af4:	00140413          	addi	s0,s0,1
   17af8:	fff44683          	lbu	a3,-1(s0)
   17afc:	00050593          	mv	a1,a0
   17b00:	00a00613          	li	a2,10
   17b04:	fd068693          	addi	a3,a3,-48
   17b08:	00090513          	mv	a0,s2
   17b0c:	dd9ff0ef          	jal	ra,178e4 <__multadd>
   17b10:	fe8492e3          	bne	s1,s0,17af4 <__s2b+0xb8>
   17b14:	01c12083          	lw	ra,28(sp)
   17b18:	01812403          	lw	s0,24(sp)
   17b1c:	01412483          	lw	s1,20(sp)
   17b20:	01012903          	lw	s2,16(sp)
   17b24:	00c12983          	lw	s3,12(sp)
   17b28:	00812a03          	lw	s4,8(sp)
   17b2c:	00412a83          	lw	s5,4(sp)
   17b30:	02010113          	addi	sp,sp,32
   17b34:	00008067          	ret
   17b38:	00a40413          	addi	s0,s0,10
   17b3c:	00900a13          	li	s4,9
   17b40:	fa9ff06f          	j	17ae8 <__s2b+0xac>
   17b44:	00000593          	li	a1,0
   17b48:	f51ff06f          	j	17a98 <__s2b+0x5c>

00017b4c <__hi0bits>:
   17b4c:	ffff0737          	lui	a4,0xffff0
   17b50:	00e57733          	and	a4,a0,a4
   17b54:	00050793          	mv	a5,a0
   17b58:	00000513          	li	a0,0
   17b5c:	00071663          	bnez	a4,17b68 <__hi0bits+0x1c>
   17b60:	01079793          	slli	a5,a5,0x10
   17b64:	01000513          	li	a0,16
   17b68:	ff000737          	lui	a4,0xff000
   17b6c:	00e7f733          	and	a4,a5,a4
   17b70:	00071663          	bnez	a4,17b7c <__hi0bits+0x30>
   17b74:	00850513          	addi	a0,a0,8
   17b78:	00879793          	slli	a5,a5,0x8
   17b7c:	f0000737          	lui	a4,0xf0000
   17b80:	00e7f733          	and	a4,a5,a4
   17b84:	00071663          	bnez	a4,17b90 <__hi0bits+0x44>
   17b88:	00450513          	addi	a0,a0,4
   17b8c:	00479793          	slli	a5,a5,0x4
   17b90:	c0000737          	lui	a4,0xc0000
   17b94:	00e7f733          	and	a4,a5,a4
   17b98:	00071663          	bnez	a4,17ba4 <__hi0bits+0x58>
   17b9c:	00250513          	addi	a0,a0,2
   17ba0:	00279793          	slli	a5,a5,0x2
   17ba4:	0007c863          	bltz	a5,17bb4 <__hi0bits+0x68>
   17ba8:	00179713          	slli	a4,a5,0x1
   17bac:	00150513          	addi	a0,a0,1
   17bb0:	00075463          	bgez	a4,17bb8 <__hi0bits+0x6c>
   17bb4:	00008067          	ret
   17bb8:	02000513          	li	a0,32
   17bbc:	00008067          	ret

00017bc0 <__lo0bits>:
   17bc0:	00052783          	lw	a5,0(a0)
   17bc4:	0077f713          	andi	a4,a5,7
   17bc8:	02070663          	beqz	a4,17bf4 <__lo0bits+0x34>
   17bcc:	0017f693          	andi	a3,a5,1
   17bd0:	00000713          	li	a4,0
   17bd4:	00069c63          	bnez	a3,17bec <__lo0bits+0x2c>
   17bd8:	0027f713          	andi	a4,a5,2
   17bdc:	08070463          	beqz	a4,17c64 <__lo0bits+0xa4>
   17be0:	0017d793          	srli	a5,a5,0x1
   17be4:	00f52023          	sw	a5,0(a0)
   17be8:	00100713          	li	a4,1
   17bec:	00070513          	mv	a0,a4
   17bf0:	00008067          	ret
   17bf4:	01079693          	slli	a3,a5,0x10
   17bf8:	0106d693          	srli	a3,a3,0x10
   17bfc:	00000713          	li	a4,0
   17c00:	00069663          	bnez	a3,17c0c <__lo0bits+0x4c>
   17c04:	0107d793          	srli	a5,a5,0x10
   17c08:	01000713          	li	a4,16
   17c0c:	0ff7f693          	andi	a3,a5,255
   17c10:	00069663          	bnez	a3,17c1c <__lo0bits+0x5c>
   17c14:	00870713          	addi	a4,a4,8 # c0000008 <__global_pointer$+0xbffd8a98>
   17c18:	0087d793          	srli	a5,a5,0x8
   17c1c:	00f7f693          	andi	a3,a5,15
   17c20:	00069663          	bnez	a3,17c2c <__lo0bits+0x6c>
   17c24:	00470713          	addi	a4,a4,4
   17c28:	0047d793          	srli	a5,a5,0x4
   17c2c:	0037f693          	andi	a3,a5,3
   17c30:	00069663          	bnez	a3,17c3c <__lo0bits+0x7c>
   17c34:	00270713          	addi	a4,a4,2
   17c38:	0027d793          	srli	a5,a5,0x2
   17c3c:	0017f693          	andi	a3,a5,1
   17c40:	00069863          	bnez	a3,17c50 <__lo0bits+0x90>
   17c44:	0017d793          	srli	a5,a5,0x1
   17c48:	00170713          	addi	a4,a4,1
   17c4c:	00078863          	beqz	a5,17c5c <__lo0bits+0x9c>
   17c50:	00f52023          	sw	a5,0(a0)
   17c54:	00070513          	mv	a0,a4
   17c58:	00008067          	ret
   17c5c:	02000713          	li	a4,32
   17c60:	f8dff06f          	j	17bec <__lo0bits+0x2c>
   17c64:	0027d793          	srli	a5,a5,0x2
   17c68:	00200713          	li	a4,2
   17c6c:	00f52023          	sw	a5,0(a0)
   17c70:	00070513          	mv	a0,a4
   17c74:	00008067          	ret

00017c78 <__i2b>:
   17c78:	ff010113          	addi	sp,sp,-16
   17c7c:	00812423          	sw	s0,8(sp)
   17c80:	00058413          	mv	s0,a1
   17c84:	00100593          	li	a1,1
   17c88:	00112623          	sw	ra,12(sp)
   17c8c:	b8dff0ef          	jal	ra,17818 <_Balloc>
   17c90:	00852a23          	sw	s0,20(a0)
   17c94:	00c12083          	lw	ra,12(sp)
   17c98:	00812403          	lw	s0,8(sp)
   17c9c:	00100713          	li	a4,1
   17ca0:	00e52823          	sw	a4,16(a0)
   17ca4:	01010113          	addi	sp,sp,16
   17ca8:	00008067          	ret

00017cac <__multiply>:
   17cac:	fb010113          	addi	sp,sp,-80
   17cb0:	03312e23          	sw	s3,60(sp)
   17cb4:	03812423          	sw	s8,40(sp)
   17cb8:	01062983          	lw	s3,16(a2)
   17cbc:	0105ac03          	lw	s8,16(a1)
   17cc0:	03412c23          	sw	s4,56(sp)
   17cc4:	03912223          	sw	s9,36(sp)
   17cc8:	04112623          	sw	ra,76(sp)
   17ccc:	04812423          	sw	s0,72(sp)
   17cd0:	04912223          	sw	s1,68(sp)
   17cd4:	05212023          	sw	s2,64(sp)
   17cd8:	03512a23          	sw	s5,52(sp)
   17cdc:	03612823          	sw	s6,48(sp)
   17ce0:	03712623          	sw	s7,44(sp)
   17ce4:	03a12023          	sw	s10,32(sp)
   17ce8:	01b12e23          	sw	s11,28(sp)
   17cec:	00058a13          	mv	s4,a1
   17cf0:	00060c93          	mv	s9,a2
   17cf4:	013c4c63          	blt	s8,s3,17d0c <__multiply+0x60>
   17cf8:	00098713          	mv	a4,s3
   17cfc:	00058c93          	mv	s9,a1
   17d00:	000c0993          	mv	s3,s8
   17d04:	00060a13          	mv	s4,a2
   17d08:	00070c13          	mv	s8,a4
   17d0c:	008ca783          	lw	a5,8(s9)
   17d10:	004ca583          	lw	a1,4(s9)
   17d14:	01898b33          	add	s6,s3,s8
   17d18:	0167a7b3          	slt	a5,a5,s6
   17d1c:	00f585b3          	add	a1,a1,a5
   17d20:	af9ff0ef          	jal	ra,17818 <_Balloc>
   17d24:	01450b93          	addi	s7,a0,20
   17d28:	002b1a93          	slli	s5,s6,0x2
   17d2c:	015b87b3          	add	a5,s7,s5
   17d30:	00078713          	mv	a4,a5
   17d34:	00f12023          	sw	a5,0(sp)
   17d38:	00a12623          	sw	a0,12(sp)
   17d3c:	000b8793          	mv	a5,s7
   17d40:	00ebfa63          	bgeu	s7,a4,17d54 <__multiply+0xa8>
   17d44:	00012703          	lw	a4,0(sp)
   17d48:	0007a023          	sw	zero,0(a5)
   17d4c:	00478793          	addi	a5,a5,4
   17d50:	fee7eae3          	bltu	a5,a4,17d44 <__multiply+0x98>
   17d54:	014a0a13          	addi	s4,s4,20
   17d58:	002c1c13          	slli	s8,s8,0x2
   17d5c:	014c8793          	addi	a5,s9,20
   17d60:	018a0733          	add	a4,s4,s8
   17d64:	00299993          	slli	s3,s3,0x2
   17d68:	000104b7          	lui	s1,0x10
   17d6c:	00f12423          	sw	a5,8(sp)
   17d70:	00e12223          	sw	a4,4(sp)
   17d74:	013789b3          	add	s3,a5,s3
   17d78:	fff48493          	addi	s1,s1,-1 # ffff <_start-0x1>
   17d7c:	02ea6063          	bltu	s4,a4,17d9c <__multiply+0xf0>
   17d80:	1240006f          	j	17ea4 <__multiply+0x1f8>
   17d84:	0107d913          	srli	s2,a5,0x10
   17d88:	08091c63          	bnez	s2,17e20 <__multiply+0x174>
   17d8c:	00412783          	lw	a5,4(sp)
   17d90:	004a0a13          	addi	s4,s4,4
   17d94:	004b8b93          	addi	s7,s7,4
   17d98:	10fa7663          	bgeu	s4,a5,17ea4 <__multiply+0x1f8>
   17d9c:	000a2783          	lw	a5,0(s4)
   17da0:	0097f933          	and	s2,a5,s1
   17da4:	fe0900e3          	beqz	s2,17d84 <__multiply+0xd8>
   17da8:	00812d03          	lw	s10,8(sp)
   17dac:	000b8c13          	mv	s8,s7
   17db0:	00000c93          	li	s9,0
   17db4:	000d2a83          	lw	s5,0(s10) # 1000 <_start-0xf000>
   17db8:	000c2403          	lw	s0,0(s8)
   17dbc:	00090593          	mv	a1,s2
   17dc0:	009af533          	and	a0,s5,s1
   17dc4:	6d00c0ef          	jal	ra,24494 <__mulsi3>
   17dc8:	00947db3          	and	s11,s0,s1
   17dcc:	01b50db3          	add	s11,a0,s11
   17dd0:	00090593          	mv	a1,s2
   17dd4:	010ad513          	srli	a0,s5,0x10
   17dd8:	019d8db3          	add	s11,s11,s9
   17ddc:	6b80c0ef          	jal	ra,24494 <__mulsi3>
   17de0:	01045413          	srli	s0,s0,0x10
   17de4:	00850533          	add	a0,a0,s0
   17de8:	010dd413          	srli	s0,s11,0x10
   17dec:	00850533          	add	a0,a0,s0
   17df0:	01051693          	slli	a3,a0,0x10
   17df4:	009dfdb3          	and	s11,s11,s1
   17df8:	004c0c13          	addi	s8,s8,4
   17dfc:	01b6edb3          	or	s11,a3,s11
   17e00:	004d0d13          	addi	s10,s10,4
   17e04:	ffbc2e23          	sw	s11,-4(s8)
   17e08:	01055c93          	srli	s9,a0,0x10
   17e0c:	fb3d64e3          	bltu	s10,s3,17db4 <__multiply+0x108>
   17e10:	019c2023          	sw	s9,0(s8)
   17e14:	000a2783          	lw	a5,0(s4)
   17e18:	0107d913          	srli	s2,a5,0x10
   17e1c:	f60908e3          	beqz	s2,17d8c <__multiply+0xe0>
   17e20:	000ba403          	lw	s0,0(s7)
   17e24:	00812c03          	lw	s8,8(sp)
   17e28:	000b8d13          	mv	s10,s7
   17e2c:	00040d93          	mv	s11,s0
   17e30:	00000c93          	li	s9,0
   17e34:	000c2503          	lw	a0,0(s8)
   17e38:	00090593          	mv	a1,s2
   17e3c:	010ddd93          	srli	s11,s11,0x10
   17e40:	00957533          	and	a0,a0,s1
   17e44:	6500c0ef          	jal	ra,24494 <__mulsi3>
   17e48:	01b50db3          	add	s11,a0,s11
   17e4c:	019d8cb3          	add	s9,s11,s9
   17e50:	010c9513          	slli	a0,s9,0x10
   17e54:	00947433          	and	s0,s0,s1
   17e58:	00856433          	or	s0,a0,s0
   17e5c:	004d0d13          	addi	s10,s10,4
   17e60:	fe8d2e23          	sw	s0,-4(s10)
   17e64:	004c0c13          	addi	s8,s8,4
   17e68:	000d2d83          	lw	s11,0(s10)
   17e6c:	ffec5503          	lhu	a0,-2(s8)
   17e70:	00090593          	mv	a1,s2
   17e74:	009df433          	and	s0,s11,s1
   17e78:	61c0c0ef          	jal	ra,24494 <__mulsi3>
   17e7c:	010cd793          	srli	a5,s9,0x10
   17e80:	00850433          	add	s0,a0,s0
   17e84:	00f40433          	add	s0,s0,a5
   17e88:	01045c93          	srli	s9,s0,0x10
   17e8c:	fb3c64e3          	bltu	s8,s3,17e34 <__multiply+0x188>
   17e90:	00412783          	lw	a5,4(sp)
   17e94:	008d2023          	sw	s0,0(s10)
   17e98:	004a0a13          	addi	s4,s4,4
   17e9c:	004b8b93          	addi	s7,s7,4
   17ea0:	eefa6ee3          	bltu	s4,a5,17d9c <__multiply+0xf0>
   17ea4:	03605663          	blez	s6,17ed0 <__multiply+0x224>
   17ea8:	00012703          	lw	a4,0(sp)
   17eac:	ffc72783          	lw	a5,-4(a4)
   17eb0:	ffc70a93          	addi	s5,a4,-4
   17eb4:	00078863          	beqz	a5,17ec4 <__multiply+0x218>
   17eb8:	0180006f          	j	17ed0 <__multiply+0x224>
   17ebc:	000aa783          	lw	a5,0(s5)
   17ec0:	00079863          	bnez	a5,17ed0 <__multiply+0x224>
   17ec4:	fffb0b13          	addi	s6,s6,-1
   17ec8:	ffca8a93          	addi	s5,s5,-4
   17ecc:	fe0b18e3          	bnez	s6,17ebc <__multiply+0x210>
   17ed0:	00c12783          	lw	a5,12(sp)
   17ed4:	04c12083          	lw	ra,76(sp)
   17ed8:	04812403          	lw	s0,72(sp)
   17edc:	0167a823          	sw	s6,16(a5)
   17ee0:	04412483          	lw	s1,68(sp)
   17ee4:	04012903          	lw	s2,64(sp)
   17ee8:	03c12983          	lw	s3,60(sp)
   17eec:	03812a03          	lw	s4,56(sp)
   17ef0:	03412a83          	lw	s5,52(sp)
   17ef4:	03012b03          	lw	s6,48(sp)
   17ef8:	02c12b83          	lw	s7,44(sp)
   17efc:	02812c03          	lw	s8,40(sp)
   17f00:	02412c83          	lw	s9,36(sp)
   17f04:	02012d03          	lw	s10,32(sp)
   17f08:	01c12d83          	lw	s11,28(sp)
   17f0c:	00078513          	mv	a0,a5
   17f10:	05010113          	addi	sp,sp,80
   17f14:	00008067          	ret

00017f18 <__pow5mult>:
   17f18:	fe010113          	addi	sp,sp,-32
   17f1c:	00812c23          	sw	s0,24(sp)
   17f20:	01312623          	sw	s3,12(sp)
   17f24:	01412423          	sw	s4,8(sp)
   17f28:	00112e23          	sw	ra,28(sp)
   17f2c:	00912a23          	sw	s1,20(sp)
   17f30:	01212823          	sw	s2,16(sp)
   17f34:	00367793          	andi	a5,a2,3
   17f38:	00060413          	mv	s0,a2
   17f3c:	00050993          	mv	s3,a0
   17f40:	00058a13          	mv	s4,a1
   17f44:	0c079463          	bnez	a5,1800c <__pow5mult+0xf4>
   17f48:	40245413          	srai	s0,s0,0x2
   17f4c:	000a0913          	mv	s2,s4
   17f50:	06040863          	beqz	s0,17fc0 <__pow5mult+0xa8>
   17f54:	0489a483          	lw	s1,72(s3)
   17f58:	0c048e63          	beqz	s1,18034 <__pow5mult+0x11c>
   17f5c:	00147793          	andi	a5,s0,1
   17f60:	000a0913          	mv	s2,s4
   17f64:	02079063          	bnez	a5,17f84 <__pow5mult+0x6c>
   17f68:	40145413          	srai	s0,s0,0x1
   17f6c:	04040a63          	beqz	s0,17fc0 <__pow5mult+0xa8>
   17f70:	0004a503          	lw	a0,0(s1)
   17f74:	06050863          	beqz	a0,17fe4 <__pow5mult+0xcc>
   17f78:	00050493          	mv	s1,a0
   17f7c:	00147793          	andi	a5,s0,1
   17f80:	fe0784e3          	beqz	a5,17f68 <__pow5mult+0x50>
   17f84:	00048613          	mv	a2,s1
   17f88:	00090593          	mv	a1,s2
   17f8c:	00098513          	mv	a0,s3
   17f90:	d1dff0ef          	jal	ra,17cac <__multiply>
   17f94:	06090863          	beqz	s2,18004 <__pow5mult+0xec>
   17f98:	00492703          	lw	a4,4(s2)
   17f9c:	04c9a783          	lw	a5,76(s3)
   17fa0:	40145413          	srai	s0,s0,0x1
   17fa4:	00271713          	slli	a4,a4,0x2
   17fa8:	00e787b3          	add	a5,a5,a4
   17fac:	0007a703          	lw	a4,0(a5)
   17fb0:	00e92023          	sw	a4,0(s2)
   17fb4:	0127a023          	sw	s2,0(a5)
   17fb8:	00050913          	mv	s2,a0
   17fbc:	fa041ae3          	bnez	s0,17f70 <__pow5mult+0x58>
   17fc0:	01c12083          	lw	ra,28(sp)
   17fc4:	01812403          	lw	s0,24(sp)
   17fc8:	00090513          	mv	a0,s2
   17fcc:	01412483          	lw	s1,20(sp)
   17fd0:	01012903          	lw	s2,16(sp)
   17fd4:	00c12983          	lw	s3,12(sp)
   17fd8:	00812a03          	lw	s4,8(sp)
   17fdc:	02010113          	addi	sp,sp,32
   17fe0:	00008067          	ret
   17fe4:	00048613          	mv	a2,s1
   17fe8:	00048593          	mv	a1,s1
   17fec:	00098513          	mv	a0,s3
   17ff0:	cbdff0ef          	jal	ra,17cac <__multiply>
   17ff4:	00a4a023          	sw	a0,0(s1)
   17ff8:	00052023          	sw	zero,0(a0)
   17ffc:	00050493          	mv	s1,a0
   18000:	f7dff06f          	j	17f7c <__pow5mult+0x64>
   18004:	00050913          	mv	s2,a0
   18008:	f61ff06f          	j	17f68 <__pow5mult+0x50>
   1800c:	fff78793          	addi	a5,a5,-1
   18010:	0000d717          	auipc	a4,0xd
   18014:	a7870713          	addi	a4,a4,-1416 # 24a88 <p05.3298>
   18018:	00279793          	slli	a5,a5,0x2
   1801c:	00f707b3          	add	a5,a4,a5
   18020:	0007a603          	lw	a2,0(a5)
   18024:	00000693          	li	a3,0
   18028:	8bdff0ef          	jal	ra,178e4 <__multadd>
   1802c:	00050a13          	mv	s4,a0
   18030:	f19ff06f          	j	17f48 <__pow5mult+0x30>
   18034:	00100593          	li	a1,1
   18038:	00098513          	mv	a0,s3
   1803c:	fdcff0ef          	jal	ra,17818 <_Balloc>
   18040:	27100793          	li	a5,625
   18044:	00f52a23          	sw	a5,20(a0)
   18048:	00100793          	li	a5,1
   1804c:	00f52823          	sw	a5,16(a0)
   18050:	04a9a423          	sw	a0,72(s3)
   18054:	00050493          	mv	s1,a0
   18058:	00052023          	sw	zero,0(a0)
   1805c:	f01ff06f          	j	17f5c <__pow5mult+0x44>

00018060 <__lshift>:
   18060:	fe010113          	addi	sp,sp,-32
   18064:	01412423          	sw	s4,8(sp)
   18068:	0105aa03          	lw	s4,16(a1)
   1806c:	00912a23          	sw	s1,20(sp)
   18070:	0085a783          	lw	a5,8(a1)
   18074:	40565493          	srai	s1,a2,0x5
   18078:	01448a33          	add	s4,s1,s4
   1807c:	00812c23          	sw	s0,24(sp)
   18080:	01212823          	sw	s2,16(sp)
   18084:	01312623          	sw	s3,12(sp)
   18088:	01512223          	sw	s5,4(sp)
   1808c:	00112e23          	sw	ra,28(sp)
   18090:	001a0413          	addi	s0,s4,1
   18094:	00058993          	mv	s3,a1
   18098:	00060913          	mv	s2,a2
   1809c:	00050a93          	mv	s5,a0
   180a0:	0045a583          	lw	a1,4(a1)
   180a4:	0087d863          	bge	a5,s0,180b4 <__lshift+0x54>
   180a8:	00179793          	slli	a5,a5,0x1
   180ac:	00158593          	addi	a1,a1,1
   180b0:	fe87cce3          	blt	a5,s0,180a8 <__lshift+0x48>
   180b4:	000a8513          	mv	a0,s5
   180b8:	f60ff0ef          	jal	ra,17818 <_Balloc>
   180bc:	01450713          	addi	a4,a0,20
   180c0:	02905463          	blez	s1,180e8 <__lshift+0x88>
   180c4:	00548493          	addi	s1,s1,5
   180c8:	00249493          	slli	s1,s1,0x2
   180cc:	009506b3          	add	a3,a0,s1
   180d0:	00070793          	mv	a5,a4
   180d4:	00478793          	addi	a5,a5,4
   180d8:	fe07ae23          	sw	zero,-4(a5)
   180dc:	fef69ce3          	bne	a3,a5,180d4 <__lshift+0x74>
   180e0:	fec48493          	addi	s1,s1,-20
   180e4:	00970733          	add	a4,a4,s1
   180e8:	0109a803          	lw	a6,16(s3)
   180ec:	01498793          	addi	a5,s3,20
   180f0:	01f97613          	andi	a2,s2,31
   180f4:	00281813          	slli	a6,a6,0x2
   180f8:	01078833          	add	a6,a5,a6
   180fc:	08060263          	beqz	a2,18180 <__lshift+0x120>
   18100:	02000893          	li	a7,32
   18104:	40c888b3          	sub	a7,a7,a2
   18108:	00000593          	li	a1,0
   1810c:	0007a683          	lw	a3,0(a5)
   18110:	00470713          	addi	a4,a4,4
   18114:	00478793          	addi	a5,a5,4
   18118:	00c696b3          	sll	a3,a3,a2
   1811c:	00b6e6b3          	or	a3,a3,a1
   18120:	fed72e23          	sw	a3,-4(a4)
   18124:	ffc7a683          	lw	a3,-4(a5)
   18128:	0116d5b3          	srl	a1,a3,a7
   1812c:	ff07e0e3          	bltu	a5,a6,1810c <__lshift+0xac>
   18130:	00b72023          	sw	a1,0(a4)
   18134:	00058463          	beqz	a1,1813c <__lshift+0xdc>
   18138:	00040a13          	mv	s4,s0
   1813c:	0049a703          	lw	a4,4(s3)
   18140:	04caa783          	lw	a5,76(s5)
   18144:	01c12083          	lw	ra,28(sp)
   18148:	00271713          	slli	a4,a4,0x2
   1814c:	00e787b3          	add	a5,a5,a4
   18150:	0007a703          	lw	a4,0(a5)
   18154:	01452823          	sw	s4,16(a0)
   18158:	01812403          	lw	s0,24(sp)
   1815c:	00e9a023          	sw	a4,0(s3)
   18160:	0137a023          	sw	s3,0(a5)
   18164:	01412483          	lw	s1,20(sp)
   18168:	01012903          	lw	s2,16(sp)
   1816c:	00c12983          	lw	s3,12(sp)
   18170:	00812a03          	lw	s4,8(sp)
   18174:	00412a83          	lw	s5,4(sp)
   18178:	02010113          	addi	sp,sp,32
   1817c:	00008067          	ret
   18180:	00478793          	addi	a5,a5,4
   18184:	ffc7a683          	lw	a3,-4(a5)
   18188:	00470713          	addi	a4,a4,4
   1818c:	fed72e23          	sw	a3,-4(a4)
   18190:	fb07f6e3          	bgeu	a5,a6,1813c <__lshift+0xdc>
   18194:	00478793          	addi	a5,a5,4
   18198:	ffc7a683          	lw	a3,-4(a5)
   1819c:	00470713          	addi	a4,a4,4
   181a0:	fed72e23          	sw	a3,-4(a4)
   181a4:	fd07eee3          	bltu	a5,a6,18180 <__lshift+0x120>
   181a8:	f95ff06f          	j	1813c <__lshift+0xdc>

000181ac <__mcmp>:
   181ac:	00050613          	mv	a2,a0
   181b0:	0105a783          	lw	a5,16(a1)
   181b4:	01052503          	lw	a0,16(a0)
   181b8:	40f50533          	sub	a0,a0,a5
   181bc:	04051463          	bnez	a0,18204 <__mcmp+0x58>
   181c0:	00279713          	slli	a4,a5,0x2
   181c4:	01460613          	addi	a2,a2,20
   181c8:	01458593          	addi	a1,a1,20
   181cc:	00e607b3          	add	a5,a2,a4
   181d0:	00e585b3          	add	a1,a1,a4
   181d4:	0080006f          	j	181dc <__mcmp+0x30>
   181d8:	02f67663          	bgeu	a2,a5,18204 <__mcmp+0x58>
   181dc:	ffc78793          	addi	a5,a5,-4
   181e0:	ffc58593          	addi	a1,a1,-4
   181e4:	0007a703          	lw	a4,0(a5)
   181e8:	0005a683          	lw	a3,0(a1)
   181ec:	fed706e3          	beq	a4,a3,181d8 <__mcmp+0x2c>
   181f0:	00d73733          	sltu	a4,a4,a3
   181f4:	40e00533          	neg	a0,a4
   181f8:	ffe57513          	andi	a0,a0,-2
   181fc:	00150513          	addi	a0,a0,1
   18200:	00008067          	ret
   18204:	00008067          	ret

00018208 <__mdiff>:
   18208:	fe010113          	addi	sp,sp,-32
   1820c:	01212823          	sw	s2,16(sp)
   18210:	01062703          	lw	a4,16(a2)
   18214:	0105a903          	lw	s2,16(a1)
   18218:	00812c23          	sw	s0,24(sp)
   1821c:	00912a23          	sw	s1,20(sp)
   18220:	01312623          	sw	s3,12(sp)
   18224:	01412423          	sw	s4,8(sp)
   18228:	00112e23          	sw	ra,28(sp)
   1822c:	40e90933          	sub	s2,s2,a4
   18230:	00058993          	mv	s3,a1
   18234:	00060a13          	mv	s4,a2
   18238:	01458413          	addi	s0,a1,20
   1823c:	01460493          	addi	s1,a2,20
   18240:	04091863          	bnez	s2,18290 <__mdiff+0x88>
   18244:	00271713          	slli	a4,a4,0x2
   18248:	00e407b3          	add	a5,s0,a4
   1824c:	00e48733          	add	a4,s1,a4
   18250:	0080006f          	j	18258 <__mdiff+0x50>
   18254:	16f47263          	bgeu	s0,a5,183b8 <__mdiff+0x1b0>
   18258:	ffc78793          	addi	a5,a5,-4
   1825c:	ffc70713          	addi	a4,a4,-4
   18260:	0007a583          	lw	a1,0(a5)
   18264:	00072683          	lw	a3,0(a4)
   18268:	fed586e3          	beq	a1,a3,18254 <__mdiff+0x4c>
   1826c:	02d5f663          	bgeu	a1,a3,18298 <__mdiff+0x90>
   18270:	00040713          	mv	a4,s0
   18274:	00098793          	mv	a5,s3
   18278:	00048413          	mv	s0,s1
   1827c:	000a0993          	mv	s3,s4
   18280:	00070493          	mv	s1,a4
   18284:	00078a13          	mv	s4,a5
   18288:	00100913          	li	s2,1
   1828c:	00c0006f          	j	18298 <__mdiff+0x90>
   18290:	fe0940e3          	bltz	s2,18270 <__mdiff+0x68>
   18294:	00000913          	li	s2,0
   18298:	0049a583          	lw	a1,4(s3)
   1829c:	d7cff0ef          	jal	ra,17818 <_Balloc>
   182a0:	0109a303          	lw	t1,16(s3)
   182a4:	010a2e83          	lw	t4,16(s4)
   182a8:	00010637          	lui	a2,0x10
   182ac:	00231e13          	slli	t3,t1,0x2
   182b0:	002e9e93          	slli	t4,t4,0x2
   182b4:	01252623          	sw	s2,12(a0)
   182b8:	01c40e33          	add	t3,s0,t3
   182bc:	01d48eb3          	add	t4,s1,t4
   182c0:	01450813          	addi	a6,a0,20
   182c4:	00000793          	li	a5,0
   182c8:	fff60613          	addi	a2,a2,-1 # ffff <_start-0x1>
   182cc:	0080006f          	j	182d4 <__mdiff+0xcc>
   182d0:	00088813          	mv	a6,a7
   182d4:	00042703          	lw	a4,0(s0)
   182d8:	0004a583          	lw	a1,0(s1)
   182dc:	00480893          	addi	a7,a6,4
   182e0:	00c776b3          	and	a3,a4,a2
   182e4:	00f686b3          	add	a3,a3,a5
   182e8:	00c5f7b3          	and	a5,a1,a2
   182ec:	40f686b3          	sub	a3,a3,a5
   182f0:	0105d593          	srli	a1,a1,0x10
   182f4:	01075793          	srli	a5,a4,0x10
   182f8:	40b787b3          	sub	a5,a5,a1
   182fc:	4106d713          	srai	a4,a3,0x10
   18300:	00e787b3          	add	a5,a5,a4
   18304:	01079713          	slli	a4,a5,0x10
   18308:	00c6f6b3          	and	a3,a3,a2
   1830c:	00d766b3          	or	a3,a4,a3
   18310:	00448493          	addi	s1,s1,4
   18314:	fed8ae23          	sw	a3,-4(a7)
   18318:	00440413          	addi	s0,s0,4
   1831c:	4107d793          	srai	a5,a5,0x10
   18320:	fbd4e8e3          	bltu	s1,t4,182d0 <__mdiff+0xc8>
   18324:	05c47e63          	bgeu	s0,t3,18380 <__mdiff+0x178>
   18328:	00010eb7          	lui	t4,0x10
   1832c:	00088813          	mv	a6,a7
   18330:	00040593          	mv	a1,s0
   18334:	fffe8e93          	addi	t4,t4,-1 # ffff <_start-0x1>
   18338:	0005a703          	lw	a4,0(a1)
   1833c:	00480813          	addi	a6,a6,4
   18340:	00458593          	addi	a1,a1,4
   18344:	01d77633          	and	a2,a4,t4
   18348:	00f60633          	add	a2,a2,a5
   1834c:	41065693          	srai	a3,a2,0x10
   18350:	01075793          	srli	a5,a4,0x10
   18354:	00d787b3          	add	a5,a5,a3
   18358:	01079693          	slli	a3,a5,0x10
   1835c:	01d67633          	and	a2,a2,t4
   18360:	00c6e6b3          	or	a3,a3,a2
   18364:	fed82e23          	sw	a3,-4(a6)
   18368:	4107d793          	srai	a5,a5,0x10
   1836c:	fdc5e6e3          	bltu	a1,t3,18338 <__mdiff+0x130>
   18370:	fffe0813          	addi	a6,t3,-1
   18374:	40880833          	sub	a6,a6,s0
   18378:	ffc87813          	andi	a6,a6,-4
   1837c:	01088833          	add	a6,a7,a6
   18380:	00069a63          	bnez	a3,18394 <__mdiff+0x18c>
   18384:	ffc80813          	addi	a6,a6,-4
   18388:	00082783          	lw	a5,0(a6)
   1838c:	fff30313          	addi	t1,t1,-1
   18390:	fe078ae3          	beqz	a5,18384 <__mdiff+0x17c>
   18394:	01c12083          	lw	ra,28(sp)
   18398:	01812403          	lw	s0,24(sp)
   1839c:	00652823          	sw	t1,16(a0)
   183a0:	01412483          	lw	s1,20(sp)
   183a4:	01012903          	lw	s2,16(sp)
   183a8:	00c12983          	lw	s3,12(sp)
   183ac:	00812a03          	lw	s4,8(sp)
   183b0:	02010113          	addi	sp,sp,32
   183b4:	00008067          	ret
   183b8:	00000593          	li	a1,0
   183bc:	c5cff0ef          	jal	ra,17818 <_Balloc>
   183c0:	01c12083          	lw	ra,28(sp)
   183c4:	01812403          	lw	s0,24(sp)
   183c8:	00100793          	li	a5,1
   183cc:	00f52823          	sw	a5,16(a0)
   183d0:	00052a23          	sw	zero,20(a0)
   183d4:	01412483          	lw	s1,20(sp)
   183d8:	01012903          	lw	s2,16(sp)
   183dc:	00c12983          	lw	s3,12(sp)
   183e0:	00812a03          	lw	s4,8(sp)
   183e4:	02010113          	addi	sp,sp,32
   183e8:	00008067          	ret

000183ec <__ulp>:
   183ec:	7ff007b7          	lui	a5,0x7ff00
   183f0:	00b7f5b3          	and	a1,a5,a1
   183f4:	fcc007b7          	lui	a5,0xfcc00
   183f8:	00f585b3          	add	a1,a1,a5
   183fc:	00b05863          	blez	a1,1840c <__ulp+0x20>
   18400:	00000793          	li	a5,0
   18404:	00078513          	mv	a0,a5
   18408:	00008067          	ret
   1840c:	40b005b3          	neg	a1,a1
   18410:	4145d593          	srai	a1,a1,0x14
   18414:	01300793          	li	a5,19
   18418:	00b7c863          	blt	a5,a1,18428 <__ulp+0x3c>
   1841c:	000807b7          	lui	a5,0x80
   18420:	40b7d5b3          	sra	a1,a5,a1
   18424:	fddff06f          	j	18400 <__ulp+0x14>
   18428:	fec58713          	addi	a4,a1,-20
   1842c:	01e00693          	li	a3,30
   18430:	00000593          	li	a1,0
   18434:	00100793          	li	a5,1
   18438:	fce6c6e3          	blt	a3,a4,18404 <__ulp+0x18>
   1843c:	800007b7          	lui	a5,0x80000
   18440:	00e7d7b3          	srl	a5,a5,a4
   18444:	00078513          	mv	a0,a5
   18448:	00008067          	ret

0001844c <__b2d>:
   1844c:	fe010113          	addi	sp,sp,-32
   18450:	00812c23          	sw	s0,24(sp)
   18454:	01052403          	lw	s0,16(a0)
   18458:	00912a23          	sw	s1,20(sp)
   1845c:	01450493          	addi	s1,a0,20
   18460:	00241413          	slli	s0,s0,0x2
   18464:	00848433          	add	s0,s1,s0
   18468:	01212823          	sw	s2,16(sp)
   1846c:	ffc42903          	lw	s2,-4(s0)
   18470:	01312623          	sw	s3,12(sp)
   18474:	01412423          	sw	s4,8(sp)
   18478:	00090513          	mv	a0,s2
   1847c:	00058a13          	mv	s4,a1
   18480:	00112e23          	sw	ra,28(sp)
   18484:	ec8ff0ef          	jal	ra,17b4c <__hi0bits>
   18488:	02000713          	li	a4,32
   1848c:	40a707b3          	sub	a5,a4,a0
   18490:	00fa2023          	sw	a5,0(s4)
   18494:	00a00793          	li	a5,10
   18498:	ffc40993          	addi	s3,s0,-4
   1849c:	08a7d063          	bge	a5,a0,1851c <__b2d+0xd0>
   184a0:	ff550513          	addi	a0,a0,-11
   184a4:	0534f063          	bgeu	s1,s3,184e4 <__b2d+0x98>
   184a8:	ff842783          	lw	a5,-8(s0)
   184ac:	04050063          	beqz	a0,184ec <__b2d+0xa0>
   184b0:	40a70633          	sub	a2,a4,a0
   184b4:	00c7d733          	srl	a4,a5,a2
   184b8:	00a916b3          	sll	a3,s2,a0
   184bc:	00e6e6b3          	or	a3,a3,a4
   184c0:	ff840593          	addi	a1,s0,-8
   184c4:	3ff00737          	lui	a4,0x3ff00
   184c8:	00e6e6b3          	or	a3,a3,a4
   184cc:	00a797b3          	sll	a5,a5,a0
   184d0:	02b4f263          	bgeu	s1,a1,184f4 <__b2d+0xa8>
   184d4:	ff442703          	lw	a4,-12(s0)
   184d8:	00c75733          	srl	a4,a4,a2
   184dc:	00e7e7b3          	or	a5,a5,a4
   184e0:	0140006f          	j	184f4 <__b2d+0xa8>
   184e4:	00000793          	li	a5,0
   184e8:	06051463          	bnez	a0,18550 <__b2d+0x104>
   184ec:	3ff00737          	lui	a4,0x3ff00
   184f0:	00e966b3          	or	a3,s2,a4
   184f4:	01c12083          	lw	ra,28(sp)
   184f8:	01812403          	lw	s0,24(sp)
   184fc:	01412483          	lw	s1,20(sp)
   18500:	01012903          	lw	s2,16(sp)
   18504:	00c12983          	lw	s3,12(sp)
   18508:	00812a03          	lw	s4,8(sp)
   1850c:	00078513          	mv	a0,a5
   18510:	00068593          	mv	a1,a3
   18514:	02010113          	addi	sp,sp,32
   18518:	00008067          	ret
   1851c:	00b00613          	li	a2,11
   18520:	40a60633          	sub	a2,a2,a0
   18524:	00c95733          	srl	a4,s2,a2
   18528:	3ff006b7          	lui	a3,0x3ff00
   1852c:	00d766b3          	or	a3,a4,a3
   18530:	00000713          	li	a4,0
   18534:	0134f663          	bgeu	s1,s3,18540 <__b2d+0xf4>
   18538:	ff842703          	lw	a4,-8(s0)
   1853c:	00c75733          	srl	a4,a4,a2
   18540:	01550513          	addi	a0,a0,21
   18544:	00a91533          	sll	a0,s2,a0
   18548:	00e567b3          	or	a5,a0,a4
   1854c:	fa9ff06f          	j	184f4 <__b2d+0xa8>
   18550:	00a91533          	sll	a0,s2,a0
   18554:	3ff00737          	lui	a4,0x3ff00
   18558:	00e566b3          	or	a3,a0,a4
   1855c:	00000793          	li	a5,0
   18560:	f95ff06f          	j	184f4 <__b2d+0xa8>

00018564 <__d2b>:
   18564:	fd010113          	addi	sp,sp,-48
   18568:	01512a23          	sw	s5,20(sp)
   1856c:	00058a93          	mv	s5,a1
   18570:	00100593          	li	a1,1
   18574:	02812423          	sw	s0,40(sp)
   18578:	02912223          	sw	s1,36(sp)
   1857c:	03212023          	sw	s2,32(sp)
   18580:	00060493          	mv	s1,a2
   18584:	01312e23          	sw	s3,28(sp)
   18588:	01412c23          	sw	s4,24(sp)
   1858c:	02112623          	sw	ra,44(sp)
   18590:	00068a13          	mv	s4,a3
   18594:	00070993          	mv	s3,a4
   18598:	a80ff0ef          	jal	ra,17818 <_Balloc>
   1859c:	00100637          	lui	a2,0x100
   185a0:	0144d413          	srli	s0,s1,0x14
   185a4:	fff60793          	addi	a5,a2,-1 # fffff <__global_pointer$+0xd8a8f>
   185a8:	7ff47413          	andi	s0,s0,2047
   185ac:	00050913          	mv	s2,a0
   185b0:	0097f7b3          	and	a5,a5,s1
   185b4:	00040463          	beqz	s0,185bc <__d2b+0x58>
   185b8:	00c7e7b3          	or	a5,a5,a2
   185bc:	00f12623          	sw	a5,12(sp)
   185c0:	080a8e63          	beqz	s5,1865c <__d2b+0xf8>
   185c4:	00810513          	addi	a0,sp,8
   185c8:	01512423          	sw	s5,8(sp)
   185cc:	df4ff0ef          	jal	ra,17bc0 <__lo0bits>
   185d0:	00050793          	mv	a5,a0
   185d4:	00c12703          	lw	a4,12(sp)
   185d8:	06051063          	bnez	a0,18638 <__d2b+0xd4>
   185dc:	00812683          	lw	a3,8(sp)
   185e0:	00d92a23          	sw	a3,20(s2)
   185e4:	00e034b3          	snez	s1,a4
   185e8:	00148493          	addi	s1,s1,1
   185ec:	00e92c23          	sw	a4,24(s2)
   185f0:	00992823          	sw	s1,16(s2)
   185f4:	08040663          	beqz	s0,18680 <__d2b+0x11c>
   185f8:	bcd40413          	addi	s0,s0,-1075
   185fc:	00f40433          	add	s0,s0,a5
   18600:	03500713          	li	a4,53
   18604:	008a2023          	sw	s0,0(s4)
   18608:	40f707b3          	sub	a5,a4,a5
   1860c:	00f9a023          	sw	a5,0(s3)
   18610:	02c12083          	lw	ra,44(sp)
   18614:	02812403          	lw	s0,40(sp)
   18618:	00090513          	mv	a0,s2
   1861c:	02412483          	lw	s1,36(sp)
   18620:	02012903          	lw	s2,32(sp)
   18624:	01c12983          	lw	s3,28(sp)
   18628:	01812a03          	lw	s4,24(sp)
   1862c:	01412a83          	lw	s5,20(sp)
   18630:	03010113          	addi	sp,sp,48
   18634:	00008067          	ret
   18638:	02000693          	li	a3,32
   1863c:	00812603          	lw	a2,8(sp)
   18640:	40a686b3          	sub	a3,a3,a0
   18644:	00d716b3          	sll	a3,a4,a3
   18648:	00c6e6b3          	or	a3,a3,a2
   1864c:	00a75733          	srl	a4,a4,a0
   18650:	00d92a23          	sw	a3,20(s2)
   18654:	00e12623          	sw	a4,12(sp)
   18658:	f8dff06f          	j	185e4 <__d2b+0x80>
   1865c:	00c10513          	addi	a0,sp,12
   18660:	d60ff0ef          	jal	ra,17bc0 <__lo0bits>
   18664:	00100793          	li	a5,1
   18668:	00f92823          	sw	a5,16(s2)
   1866c:	00c12783          	lw	a5,12(sp)
   18670:	00100493          	li	s1,1
   18674:	00f92a23          	sw	a5,20(s2)
   18678:	02050793          	addi	a5,a0,32
   1867c:	f6041ee3          	bnez	s0,185f8 <__d2b+0x94>
   18680:	00249713          	slli	a4,s1,0x2
   18684:	00e90733          	add	a4,s2,a4
   18688:	01072503          	lw	a0,16(a4) # 3ff00010 <__global_pointer$+0x3fed8aa0>
   1868c:	bce78793          	addi	a5,a5,-1074 # 7ffffbce <__global_pointer$+0x7ffd865e>
   18690:	00fa2023          	sw	a5,0(s4)
   18694:	cb8ff0ef          	jal	ra,17b4c <__hi0bits>
   18698:	00549493          	slli	s1,s1,0x5
   1869c:	40a484b3          	sub	s1,s1,a0
   186a0:	0099a023          	sw	s1,0(s3)
   186a4:	f6dff06f          	j	18610 <__d2b+0xac>

000186a8 <__ratio>:
   186a8:	fd010113          	addi	sp,sp,-48
   186ac:	03212023          	sw	s2,32(sp)
   186b0:	00058913          	mv	s2,a1
   186b4:	00810593          	addi	a1,sp,8
   186b8:	02112623          	sw	ra,44(sp)
   186bc:	02812423          	sw	s0,40(sp)
   186c0:	02912223          	sw	s1,36(sp)
   186c4:	01312e23          	sw	s3,28(sp)
   186c8:	00050993          	mv	s3,a0
   186cc:	d81ff0ef          	jal	ra,1844c <__b2d>
   186d0:	00050493          	mv	s1,a0
   186d4:	00058413          	mv	s0,a1
   186d8:	00090513          	mv	a0,s2
   186dc:	00c10593          	addi	a1,sp,12
   186e0:	d6dff0ef          	jal	ra,1844c <__b2d>
   186e4:	01092783          	lw	a5,16(s2)
   186e8:	0109a703          	lw	a4,16(s3)
   186ec:	00812683          	lw	a3,8(sp)
   186f0:	40f70733          	sub	a4,a4,a5
   186f4:	00c12783          	lw	a5,12(sp)
   186f8:	00571713          	slli	a4,a4,0x5
   186fc:	40f686b3          	sub	a3,a3,a5
   18700:	00d707b3          	add	a5,a4,a3
   18704:	02f05e63          	blez	a5,18740 <__ratio+0x98>
   18708:	01479793          	slli	a5,a5,0x14
   1870c:	00878433          	add	s0,a5,s0
   18710:	00050613          	mv	a2,a0
   18714:	00058693          	mv	a3,a1
   18718:	00048513          	mv	a0,s1
   1871c:	00040593          	mv	a1,s0
   18720:	2c1070ef          	jal	ra,201e0 <__divdf3>
   18724:	02c12083          	lw	ra,44(sp)
   18728:	02812403          	lw	s0,40(sp)
   1872c:	02412483          	lw	s1,36(sp)
   18730:	02012903          	lw	s2,32(sp)
   18734:	01c12983          	lw	s3,28(sp)
   18738:	03010113          	addi	sp,sp,48
   1873c:	00008067          	ret
   18740:	01479713          	slli	a4,a5,0x14
   18744:	40e585b3          	sub	a1,a1,a4
   18748:	fc9ff06f          	j	18710 <__ratio+0x68>

0001874c <_mprec_log10>:
   1874c:	ff010113          	addi	sp,sp,-16
   18750:	00812423          	sw	s0,8(sp)
   18754:	00112623          	sw	ra,12(sp)
   18758:	01212223          	sw	s2,4(sp)
   1875c:	01312023          	sw	s3,0(sp)
   18760:	01700793          	li	a5,23
   18764:	00050413          	mv	s0,a0
   18768:	04a7d863          	bge	a5,a0,187b8 <_mprec_log10+0x6c>
   1876c:	0000e797          	auipc	a5,0xe
   18770:	60478793          	addi	a5,a5,1540 # 26d70 <__malloc_av_+0x40c>
   18774:	0007a503          	lw	a0,0(a5)
   18778:	0047a583          	lw	a1,4(a5)
   1877c:	0000e797          	auipc	a5,0xe
   18780:	5fc78793          	addi	a5,a5,1532 # 26d78 <__malloc_av_+0x414>
   18784:	0007a903          	lw	s2,0(a5)
   18788:	0047a983          	lw	s3,4(a5)
   1878c:	fff40413          	addi	s0,s0,-1
   18790:	00090613          	mv	a2,s2
   18794:	00098693          	mv	a3,s3
   18798:	218080ef          	jal	ra,209b0 <__muldf3>
   1879c:	fe0418e3          	bnez	s0,1878c <_mprec_log10+0x40>
   187a0:	00c12083          	lw	ra,12(sp)
   187a4:	00812403          	lw	s0,8(sp)
   187a8:	00412903          	lw	s2,4(sp)
   187ac:	00012983          	lw	s3,0(sp)
   187b0:	01010113          	addi	sp,sp,16
   187b4:	00008067          	ret
   187b8:	00351413          	slli	s0,a0,0x3
   187bc:	0000c797          	auipc	a5,0xc
   187c0:	2cc78793          	addi	a5,a5,716 # 24a88 <p05.3298>
   187c4:	00878433          	add	s0,a5,s0
   187c8:	01042503          	lw	a0,16(s0)
   187cc:	01442583          	lw	a1,20(s0)
   187d0:	00c12083          	lw	ra,12(sp)
   187d4:	00812403          	lw	s0,8(sp)
   187d8:	00412903          	lw	s2,4(sp)
   187dc:	00012983          	lw	s3,0(sp)
   187e0:	01010113          	addi	sp,sp,16
   187e4:	00008067          	ret

000187e8 <__copybits>:
   187e8:	01062683          	lw	a3,16(a2)
   187ec:	fff58593          	addi	a1,a1,-1
   187f0:	4055d593          	srai	a1,a1,0x5
   187f4:	00158593          	addi	a1,a1,1
   187f8:	01460793          	addi	a5,a2,20
   187fc:	00269693          	slli	a3,a3,0x2
   18800:	00259593          	slli	a1,a1,0x2
   18804:	00d786b3          	add	a3,a5,a3
   18808:	00b505b3          	add	a1,a0,a1
   1880c:	02d7f863          	bgeu	a5,a3,1883c <__copybits+0x54>
   18810:	00050713          	mv	a4,a0
   18814:	00478793          	addi	a5,a5,4
   18818:	ffc7a803          	lw	a6,-4(a5)
   1881c:	00470713          	addi	a4,a4,4
   18820:	ff072e23          	sw	a6,-4(a4)
   18824:	fed7e8e3          	bltu	a5,a3,18814 <__copybits+0x2c>
   18828:	40c687b3          	sub	a5,a3,a2
   1882c:	feb78793          	addi	a5,a5,-21
   18830:	ffc7f793          	andi	a5,a5,-4
   18834:	00478793          	addi	a5,a5,4
   18838:	00f50533          	add	a0,a0,a5
   1883c:	00b57863          	bgeu	a0,a1,1884c <__copybits+0x64>
   18840:	00450513          	addi	a0,a0,4
   18844:	fe052e23          	sw	zero,-4(a0)
   18848:	feb56ce3          	bltu	a0,a1,18840 <__copybits+0x58>
   1884c:	00008067          	ret

00018850 <__any_on>:
   18850:	01052703          	lw	a4,16(a0)
   18854:	4055d613          	srai	a2,a1,0x5
   18858:	01450693          	addi	a3,a0,20
   1885c:	02c75a63          	bge	a4,a2,18890 <__any_on+0x40>
   18860:	00271793          	slli	a5,a4,0x2
   18864:	00f687b3          	add	a5,a3,a5
   18868:	04f6fc63          	bgeu	a3,a5,188c0 <__any_on+0x70>
   1886c:	ffc7a503          	lw	a0,-4(a5)
   18870:	ffc78793          	addi	a5,a5,-4
   18874:	00051a63          	bnez	a0,18888 <__any_on+0x38>
   18878:	04f6f263          	bgeu	a3,a5,188bc <__any_on+0x6c>
   1887c:	ffc78793          	addi	a5,a5,-4
   18880:	0007a703          	lw	a4,0(a5)
   18884:	fe070ae3          	beqz	a4,18878 <__any_on+0x28>
   18888:	00100513          	li	a0,1
   1888c:	00008067          	ret
   18890:	00261793          	slli	a5,a2,0x2
   18894:	00f687b3          	add	a5,a3,a5
   18898:	fce658e3          	bge	a2,a4,18868 <__any_on+0x18>
   1889c:	01f5f593          	andi	a1,a1,31
   188a0:	fc0584e3          	beqz	a1,18868 <__any_on+0x18>
   188a4:	0007a603          	lw	a2,0(a5)
   188a8:	00100513          	li	a0,1
   188ac:	00b65733          	srl	a4,a2,a1
   188b0:	00b715b3          	sll	a1,a4,a1
   188b4:	fab60ae3          	beq	a2,a1,18868 <__any_on+0x18>
   188b8:	00008067          	ret
   188bc:	00008067          	ret
   188c0:	00000513          	li	a0,0
   188c4:	00008067          	ret

000188c8 <_sbrk_r>:
   188c8:	ff010113          	addi	sp,sp,-16
   188cc:	00812423          	sw	s0,8(sp)
   188d0:	00050413          	mv	s0,a0
   188d4:	00058513          	mv	a0,a1
   188d8:	8601ae23          	sw	zero,-1924(gp) # 26dec <errno>
   188dc:	00112623          	sw	ra,12(sp)
   188e0:	9a5f70ef          	jal	ra,10284 <_sbrk>
   188e4:	fff00793          	li	a5,-1
   188e8:	00f50a63          	beq	a0,a5,188fc <_sbrk_r+0x34>
   188ec:	00c12083          	lw	ra,12(sp)
   188f0:	00812403          	lw	s0,8(sp)
   188f4:	01010113          	addi	sp,sp,16
   188f8:	00008067          	ret
   188fc:	87c18793          	addi	a5,gp,-1924 # 26dec <errno>
   18900:	0007a783          	lw	a5,0(a5)
   18904:	fe0784e3          	beqz	a5,188ec <_sbrk_r+0x24>
   18908:	00f42023          	sw	a5,0(s0)
   1890c:	00c12083          	lw	ra,12(sp)
   18910:	00812403          	lw	s0,8(sp)
   18914:	01010113          	addi	sp,sp,16
   18918:	00008067          	ret

0001891c <frexp>:
   1891c:	ff010113          	addi	sp,sp,-16
   18920:	00812423          	sw	s0,8(sp)
   18924:	80000437          	lui	s0,0x80000
   18928:	00912223          	sw	s1,4(sp)
   1892c:	00112623          	sw	ra,12(sp)
   18930:	fff44413          	not	s0,s0
   18934:	00060493          	mv	s1,a2
   18938:	00062023          	sw	zero,0(a2)
   1893c:	00b47733          	and	a4,s0,a1
   18940:	7ff00637          	lui	a2,0x7ff00
   18944:	00058793          	mv	a5,a1
   18948:	00050693          	mv	a3,a0
   1894c:	06c75263          	bge	a4,a2,189b0 <frexp+0x94>
   18950:	00a768b3          	or	a7,a4,a0
   18954:	04088e63          	beqz	a7,189b0 <frexp+0x94>
   18958:	00c5f633          	and	a2,a1,a2
   1895c:	00058813          	mv	a6,a1
   18960:	00000893          	li	a7,0
   18964:	02061463          	bnez	a2,1898c <frexp+0x70>
   18968:	0000e797          	auipc	a5,0xe
   1896c:	41878793          	addi	a5,a5,1048 # 26d80 <__malloc_av_+0x41c>
   18970:	0047a683          	lw	a3,4(a5)
   18974:	0007a603          	lw	a2,0(a5)
   18978:	038080ef          	jal	ra,209b0 <__muldf3>
   1897c:	00050693          	mv	a3,a0
   18980:	00058813          	mv	a6,a1
   18984:	00b47733          	and	a4,s0,a1
   18988:	fca00893          	li	a7,-54
   1898c:	41475713          	srai	a4,a4,0x14
   18990:	801007b7          	lui	a5,0x80100
   18994:	fff78793          	addi	a5,a5,-1 # 800fffff <__global_pointer$+0x800d8a8f>
   18998:	c0270713          	addi	a4,a4,-1022
   1899c:	00f87833          	and	a6,a6,a5
   189a0:	01170733          	add	a4,a4,a7
   189a4:	3fe007b7          	lui	a5,0x3fe00
   189a8:	00f867b3          	or	a5,a6,a5
   189ac:	00e4a023          	sw	a4,0(s1)
   189b0:	00c12083          	lw	ra,12(sp)
   189b4:	00812403          	lw	s0,8(sp)
   189b8:	00412483          	lw	s1,4(sp)
   189bc:	00068513          	mv	a0,a3
   189c0:	00078593          	mv	a1,a5
   189c4:	01010113          	addi	sp,sp,16
   189c8:	00008067          	ret

000189cc <_sprintf_r>:
   189cc:	f6010113          	addi	sp,sp,-160
   189d0:	08c10e13          	addi	t3,sp,140
   189d4:	08f12a23          	sw	a5,148(sp)
   189d8:	80000337          	lui	t1,0x80000
   189dc:	ffff07b7          	lui	a5,0xffff0
   189e0:	00058e93          	mv	t4,a1
   189e4:	fff34313          	not	t1,t1
   189e8:	08d12623          	sw	a3,140(sp)
   189ec:	20878793          	addi	a5,a5,520 # ffff0208 <__global_pointer$+0xfffc8c98>
   189f0:	00810593          	addi	a1,sp,8
   189f4:	000e0693          	mv	a3,t3
   189f8:	06112e23          	sw	ra,124(sp)
   189fc:	00f12a23          	sw	a5,20(sp)
   18a00:	08e12823          	sw	a4,144(sp)
   18a04:	09012c23          	sw	a6,152(sp)
   18a08:	09112e23          	sw	a7,156(sp)
   18a0c:	01d12423          	sw	t4,8(sp)
   18a10:	01d12c23          	sw	t4,24(sp)
   18a14:	00612e23          	sw	t1,28(sp)
   18a18:	00612823          	sw	t1,16(sp)
   18a1c:	01c12223          	sw	t3,4(sp)
   18a20:	574000ef          	jal	ra,18f94 <_svfprintf_r>
   18a24:	00812783          	lw	a5,8(sp)
   18a28:	00078023          	sb	zero,0(a5)
   18a2c:	07c12083          	lw	ra,124(sp)
   18a30:	0a010113          	addi	sp,sp,160
   18a34:	00008067          	ret

00018a38 <sprintf>:
   18a38:	00050e93          	mv	t4,a0
   18a3c:	81c18513          	addi	a0,gp,-2020 # 26d8c <_impure_ptr>
   18a40:	f6010113          	addi	sp,sp,-160
   18a44:	00052503          	lw	a0,0(a0)
   18a48:	08810e13          	addi	t3,sp,136
   18a4c:	08f12a23          	sw	a5,148(sp)
   18a50:	80000337          	lui	t1,0x80000
   18a54:	ffff07b7          	lui	a5,0xffff0
   18a58:	fff34313          	not	t1,t1
   18a5c:	08c12423          	sw	a2,136(sp)
   18a60:	08d12623          	sw	a3,140(sp)
   18a64:	20878793          	addi	a5,a5,520 # ffff0208 <__global_pointer$+0xfffc8c98>
   18a68:	00058613          	mv	a2,a1
   18a6c:	000e0693          	mv	a3,t3
   18a70:	00810593          	addi	a1,sp,8
   18a74:	06112e23          	sw	ra,124(sp)
   18a78:	00f12a23          	sw	a5,20(sp)
   18a7c:	08e12823          	sw	a4,144(sp)
   18a80:	09012c23          	sw	a6,152(sp)
   18a84:	09112e23          	sw	a7,156(sp)
   18a88:	01d12423          	sw	t4,8(sp)
   18a8c:	01d12c23          	sw	t4,24(sp)
   18a90:	00612e23          	sw	t1,28(sp)
   18a94:	00612823          	sw	t1,16(sp)
   18a98:	01c12223          	sw	t3,4(sp)
   18a9c:	4f8000ef          	jal	ra,18f94 <_svfprintf_r>
   18aa0:	00812783          	lw	a5,8(sp)
   18aa4:	00078023          	sb	zero,0(a5)
   18aa8:	07c12083          	lw	ra,124(sp)
   18aac:	0a010113          	addi	sp,sp,160
   18ab0:	00008067          	ret

00018ab4 <__sread>:
   18ab4:	ff010113          	addi	sp,sp,-16
   18ab8:	00812423          	sw	s0,8(sp)
   18abc:	00058413          	mv	s0,a1
   18ac0:	00e59583          	lh	a1,14(a1)
   18ac4:	00112623          	sw	ra,12(sp)
   18ac8:	0d4050ef          	jal	ra,1db9c <_read_r>
   18acc:	02054063          	bltz	a0,18aec <__sread+0x38>
   18ad0:	05042783          	lw	a5,80(s0) # 80000050 <__global_pointer$+0x7ffd8ae0>
   18ad4:	00c12083          	lw	ra,12(sp)
   18ad8:	00a787b3          	add	a5,a5,a0
   18adc:	04f42823          	sw	a5,80(s0)
   18ae0:	00812403          	lw	s0,8(sp)
   18ae4:	01010113          	addi	sp,sp,16
   18ae8:	00008067          	ret
   18aec:	00c45783          	lhu	a5,12(s0)
   18af0:	fffff737          	lui	a4,0xfffff
   18af4:	fff70713          	addi	a4,a4,-1 # ffffefff <__global_pointer$+0xfffd7a8f>
   18af8:	00e7f7b3          	and	a5,a5,a4
   18afc:	00f41623          	sh	a5,12(s0)
   18b00:	00c12083          	lw	ra,12(sp)
   18b04:	00812403          	lw	s0,8(sp)
   18b08:	01010113          	addi	sp,sp,16
   18b0c:	00008067          	ret

00018b10 <__seofread>:
   18b10:	00000513          	li	a0,0
   18b14:	00008067          	ret

00018b18 <__swrite>:
   18b18:	00c59783          	lh	a5,12(a1)
   18b1c:	fe010113          	addi	sp,sp,-32
   18b20:	00812c23          	sw	s0,24(sp)
   18b24:	00912a23          	sw	s1,20(sp)
   18b28:	01212823          	sw	s2,16(sp)
   18b2c:	01312623          	sw	s3,12(sp)
   18b30:	00112e23          	sw	ra,28(sp)
   18b34:	1007f713          	andi	a4,a5,256
   18b38:	00058413          	mv	s0,a1
   18b3c:	00050493          	mv	s1,a0
   18b40:	00060913          	mv	s2,a2
   18b44:	00068993          	mv	s3,a3
   18b48:	00e59583          	lh	a1,14(a1)
   18b4c:	02071e63          	bnez	a4,18b88 <__swrite+0x70>
   18b50:	fffff737          	lui	a4,0xfffff
   18b54:	fff70713          	addi	a4,a4,-1 # ffffefff <__global_pointer$+0xfffd7a8f>
   18b58:	00e7f7b3          	and	a5,a5,a4
   18b5c:	00f41623          	sh	a5,12(s0)
   18b60:	01812403          	lw	s0,24(sp)
   18b64:	01c12083          	lw	ra,28(sp)
   18b68:	00098693          	mv	a3,s3
   18b6c:	00090613          	mv	a2,s2
   18b70:	00c12983          	lw	s3,12(sp)
   18b74:	01012903          	lw	s2,16(sp)
   18b78:	00048513          	mv	a0,s1
   18b7c:	01412483          	lw	s1,20(sp)
   18b80:	02010113          	addi	sp,sp,32
   18b84:	3980406f          	j	1cf1c <_write_r>
   18b88:	00200693          	li	a3,2
   18b8c:	00000613          	li	a2,0
   18b90:	571040ef          	jal	ra,1d900 <_lseek_r>
   18b94:	00c41783          	lh	a5,12(s0)
   18b98:	00e41583          	lh	a1,14(s0)
   18b9c:	fb5ff06f          	j	18b50 <__swrite+0x38>

00018ba0 <__sseek>:
   18ba0:	ff010113          	addi	sp,sp,-16
   18ba4:	00812423          	sw	s0,8(sp)
   18ba8:	00058413          	mv	s0,a1
   18bac:	00e59583          	lh	a1,14(a1)
   18bb0:	00112623          	sw	ra,12(sp)
   18bb4:	54d040ef          	jal	ra,1d900 <_lseek_r>
   18bb8:	fff00793          	li	a5,-1
   18bbc:	02f50463          	beq	a0,a5,18be4 <__sseek+0x44>
   18bc0:	00c45783          	lhu	a5,12(s0)
   18bc4:	00001737          	lui	a4,0x1
   18bc8:	04a42823          	sw	a0,80(s0)
   18bcc:	00e7e7b3          	or	a5,a5,a4
   18bd0:	00f41623          	sh	a5,12(s0)
   18bd4:	00c12083          	lw	ra,12(sp)
   18bd8:	00812403          	lw	s0,8(sp)
   18bdc:	01010113          	addi	sp,sp,16
   18be0:	00008067          	ret
   18be4:	00c45783          	lhu	a5,12(s0)
   18be8:	fffff737          	lui	a4,0xfffff
   18bec:	fff70713          	addi	a4,a4,-1 # ffffefff <__global_pointer$+0xfffd7a8f>
   18bf0:	00e7f7b3          	and	a5,a5,a4
   18bf4:	00f41623          	sh	a5,12(s0)
   18bf8:	00c12083          	lw	ra,12(sp)
   18bfc:	00812403          	lw	s0,8(sp)
   18c00:	01010113          	addi	sp,sp,16
   18c04:	00008067          	ret

00018c08 <__sclose>:
   18c08:	00e59583          	lh	a1,14(a1)
   18c0c:	4380406f          	j	1d044 <_close_r>

00018c10 <strcmp>:
   18c10:	00b56733          	or	a4,a0,a1
   18c14:	fff00393          	li	t2,-1
   18c18:	00377713          	andi	a4,a4,3
   18c1c:	10071063          	bnez	a4,18d1c <strcmp+0x10c>
   18c20:	7f7f87b7          	lui	a5,0x7f7f8
   18c24:	f7f78793          	addi	a5,a5,-129 # 7f7f7f7f <__global_pointer$+0x7f7d0a0f>
   18c28:	00052603          	lw	a2,0(a0)
   18c2c:	0005a683          	lw	a3,0(a1)
   18c30:	00f672b3          	and	t0,a2,a5
   18c34:	00f66333          	or	t1,a2,a5
   18c38:	00f282b3          	add	t0,t0,a5
   18c3c:	0062e2b3          	or	t0,t0,t1
   18c40:	10729263          	bne	t0,t2,18d44 <strcmp+0x134>
   18c44:	08d61663          	bne	a2,a3,18cd0 <strcmp+0xc0>
   18c48:	00452603          	lw	a2,4(a0)
   18c4c:	0045a683          	lw	a3,4(a1)
   18c50:	00f672b3          	and	t0,a2,a5
   18c54:	00f66333          	or	t1,a2,a5
   18c58:	00f282b3          	add	t0,t0,a5
   18c5c:	0062e2b3          	or	t0,t0,t1
   18c60:	0c729e63          	bne	t0,t2,18d3c <strcmp+0x12c>
   18c64:	06d61663          	bne	a2,a3,18cd0 <strcmp+0xc0>
   18c68:	00852603          	lw	a2,8(a0)
   18c6c:	0085a683          	lw	a3,8(a1)
   18c70:	00f672b3          	and	t0,a2,a5
   18c74:	00f66333          	or	t1,a2,a5
   18c78:	00f282b3          	add	t0,t0,a5
   18c7c:	0062e2b3          	or	t0,t0,t1
   18c80:	0c729863          	bne	t0,t2,18d50 <strcmp+0x140>
   18c84:	04d61663          	bne	a2,a3,18cd0 <strcmp+0xc0>
   18c88:	00c52603          	lw	a2,12(a0)
   18c8c:	00c5a683          	lw	a3,12(a1)
   18c90:	00f672b3          	and	t0,a2,a5
   18c94:	00f66333          	or	t1,a2,a5
   18c98:	00f282b3          	add	t0,t0,a5
   18c9c:	0062e2b3          	or	t0,t0,t1
   18ca0:	0c729263          	bne	t0,t2,18d64 <strcmp+0x154>
   18ca4:	02d61663          	bne	a2,a3,18cd0 <strcmp+0xc0>
   18ca8:	01052603          	lw	a2,16(a0)
   18cac:	0105a683          	lw	a3,16(a1)
   18cb0:	00f672b3          	and	t0,a2,a5
   18cb4:	00f66333          	or	t1,a2,a5
   18cb8:	00f282b3          	add	t0,t0,a5
   18cbc:	0062e2b3          	or	t0,t0,t1
   18cc0:	0a729c63          	bne	t0,t2,18d78 <strcmp+0x168>
   18cc4:	01450513          	addi	a0,a0,20
   18cc8:	01458593          	addi	a1,a1,20
   18ccc:	f4d60ee3          	beq	a2,a3,18c28 <strcmp+0x18>
   18cd0:	01061713          	slli	a4,a2,0x10
   18cd4:	01069793          	slli	a5,a3,0x10
   18cd8:	00f71e63          	bne	a4,a5,18cf4 <strcmp+0xe4>
   18cdc:	01065713          	srli	a4,a2,0x10
   18ce0:	0106d793          	srli	a5,a3,0x10
   18ce4:	40f70533          	sub	a0,a4,a5
   18ce8:	0ff57593          	andi	a1,a0,255
   18cec:	02059063          	bnez	a1,18d0c <strcmp+0xfc>
   18cf0:	00008067          	ret
   18cf4:	01075713          	srli	a4,a4,0x10
   18cf8:	0107d793          	srli	a5,a5,0x10
   18cfc:	40f70533          	sub	a0,a4,a5
   18d00:	0ff57593          	andi	a1,a0,255
   18d04:	00059463          	bnez	a1,18d0c <strcmp+0xfc>
   18d08:	00008067          	ret
   18d0c:	0ff77713          	andi	a4,a4,255
   18d10:	0ff7f793          	andi	a5,a5,255
   18d14:	40f70533          	sub	a0,a4,a5
   18d18:	00008067          	ret
   18d1c:	00054603          	lbu	a2,0(a0)
   18d20:	0005c683          	lbu	a3,0(a1)
   18d24:	00150513          	addi	a0,a0,1
   18d28:	00158593          	addi	a1,a1,1
   18d2c:	00d61463          	bne	a2,a3,18d34 <strcmp+0x124>
   18d30:	fe0616e3          	bnez	a2,18d1c <strcmp+0x10c>
   18d34:	40d60533          	sub	a0,a2,a3
   18d38:	00008067          	ret
   18d3c:	00450513          	addi	a0,a0,4
   18d40:	00458593          	addi	a1,a1,4
   18d44:	fcd61ce3          	bne	a2,a3,18d1c <strcmp+0x10c>
   18d48:	00000513          	li	a0,0
   18d4c:	00008067          	ret
   18d50:	00850513          	addi	a0,a0,8
   18d54:	00858593          	addi	a1,a1,8
   18d58:	fcd612e3          	bne	a2,a3,18d1c <strcmp+0x10c>
   18d5c:	00000513          	li	a0,0
   18d60:	00008067          	ret
   18d64:	00c50513          	addi	a0,a0,12
   18d68:	00c58593          	addi	a1,a1,12
   18d6c:	fad618e3          	bne	a2,a3,18d1c <strcmp+0x10c>
   18d70:	00000513          	li	a0,0
   18d74:	00008067          	ret
   18d78:	01050513          	addi	a0,a0,16
   18d7c:	01058593          	addi	a1,a1,16
   18d80:	f8d61ee3          	bne	a2,a3,18d1c <strcmp+0x10c>
   18d84:	00000513          	li	a0,0
   18d88:	00008067          	ret

00018d8c <strcpy>:
   18d8c:	00b567b3          	or	a5,a0,a1
   18d90:	0037f793          	andi	a5,a5,3
   18d94:	08079263          	bnez	a5,18e18 <strcpy+0x8c>
   18d98:	0005a703          	lw	a4,0(a1)
   18d9c:	7f7f86b7          	lui	a3,0x7f7f8
   18da0:	f7f68693          	addi	a3,a3,-129 # 7f7f7f7f <__global_pointer$+0x7f7d0a0f>
   18da4:	00d777b3          	and	a5,a4,a3
   18da8:	00d787b3          	add	a5,a5,a3
   18dac:	00e7e7b3          	or	a5,a5,a4
   18db0:	00d7e7b3          	or	a5,a5,a3
   18db4:	fff00613          	li	a2,-1
   18db8:	06c79e63          	bne	a5,a2,18e34 <strcpy+0xa8>
   18dbc:	00050613          	mv	a2,a0
   18dc0:	fff00813          	li	a6,-1
   18dc4:	00460613          	addi	a2,a2,4 # 7ff00004 <__global_pointer$+0x7fed8a94>
   18dc8:	00458593          	addi	a1,a1,4
   18dcc:	fee62e23          	sw	a4,-4(a2)
   18dd0:	0005a703          	lw	a4,0(a1)
   18dd4:	00d777b3          	and	a5,a4,a3
   18dd8:	00d787b3          	add	a5,a5,a3
   18ddc:	00e7e7b3          	or	a5,a5,a4
   18de0:	00d7e7b3          	or	a5,a5,a3
   18de4:	ff0780e3          	beq	a5,a6,18dc4 <strcpy+0x38>
   18de8:	0005c783          	lbu	a5,0(a1)
   18dec:	0015c703          	lbu	a4,1(a1)
   18df0:	0025c683          	lbu	a3,2(a1)
   18df4:	00f60023          	sb	a5,0(a2)
   18df8:	00078a63          	beqz	a5,18e0c <strcpy+0x80>
   18dfc:	00e600a3          	sb	a4,1(a2)
   18e00:	00070663          	beqz	a4,18e0c <strcpy+0x80>
   18e04:	00d60123          	sb	a3,2(a2)
   18e08:	00069463          	bnez	a3,18e10 <strcpy+0x84>
   18e0c:	00008067          	ret
   18e10:	000601a3          	sb	zero,3(a2)
   18e14:	00008067          	ret
   18e18:	00050793          	mv	a5,a0
   18e1c:	0005c703          	lbu	a4,0(a1)
   18e20:	00178793          	addi	a5,a5,1
   18e24:	00158593          	addi	a1,a1,1
   18e28:	fee78fa3          	sb	a4,-1(a5)
   18e2c:	fe0718e3          	bnez	a4,18e1c <strcpy+0x90>
   18e30:	00008067          	ret
   18e34:	00050613          	mv	a2,a0
   18e38:	fb1ff06f          	j	18de8 <strcpy+0x5c>

00018e3c <strlen>:
   18e3c:	00357793          	andi	a5,a0,3
   18e40:	00050713          	mv	a4,a0
   18e44:	04079c63          	bnez	a5,18e9c <strlen+0x60>
   18e48:	7f7f86b7          	lui	a3,0x7f7f8
   18e4c:	f7f68693          	addi	a3,a3,-129 # 7f7f7f7f <__global_pointer$+0x7f7d0a0f>
   18e50:	fff00593          	li	a1,-1
   18e54:	00470713          	addi	a4,a4,4
   18e58:	ffc72603          	lw	a2,-4(a4)
   18e5c:	00d677b3          	and	a5,a2,a3
   18e60:	00d787b3          	add	a5,a5,a3
   18e64:	00c7e7b3          	or	a5,a5,a2
   18e68:	00d7e7b3          	or	a5,a5,a3
   18e6c:	feb784e3          	beq	a5,a1,18e54 <strlen+0x18>
   18e70:	ffc74683          	lbu	a3,-4(a4)
   18e74:	40a707b3          	sub	a5,a4,a0
   18e78:	ffd74603          	lbu	a2,-3(a4)
   18e7c:	ffe74503          	lbu	a0,-2(a4)
   18e80:	04068063          	beqz	a3,18ec0 <strlen+0x84>
   18e84:	02060a63          	beqz	a2,18eb8 <strlen+0x7c>
   18e88:	00a03533          	snez	a0,a0
   18e8c:	00f50533          	add	a0,a0,a5
   18e90:	ffe50513          	addi	a0,a0,-2
   18e94:	00008067          	ret
   18e98:	fa0688e3          	beqz	a3,18e48 <strlen+0xc>
   18e9c:	00074783          	lbu	a5,0(a4)
   18ea0:	00170713          	addi	a4,a4,1
   18ea4:	00377693          	andi	a3,a4,3
   18ea8:	fe0798e3          	bnez	a5,18e98 <strlen+0x5c>
   18eac:	40a70733          	sub	a4,a4,a0
   18eb0:	fff70513          	addi	a0,a4,-1
   18eb4:	00008067          	ret
   18eb8:	ffd78513          	addi	a0,a5,-3
   18ebc:	00008067          	ret
   18ec0:	ffc78513          	addi	a0,a5,-4
   18ec4:	00008067          	ret

00018ec8 <strncpy>:
   18ec8:	00a5e7b3          	or	a5,a1,a0
   18ecc:	0037f793          	andi	a5,a5,3
   18ed0:	06079a63          	bnez	a5,18f44 <strncpy+0x7c>
   18ed4:	00300793          	li	a5,3
   18ed8:	00050713          	mv	a4,a0
   18edc:	06c7e863          	bltu	a5,a2,18f4c <strncpy+0x84>
   18ee0:	06060063          	beqz	a2,18f40 <strncpy+0x78>
   18ee4:	0005c803          	lbu	a6,0(a1)
   18ee8:	fff60693          	addi	a3,a2,-1
   18eec:	00158593          	addi	a1,a1,1
   18ef0:	01070023          	sb	a6,0(a4)
   18ef4:	00170793          	addi	a5,a4,1
   18ef8:	02080863          	beqz	a6,18f28 <strncpy+0x60>
   18efc:	00c70633          	add	a2,a4,a2
   18f00:	00d706b3          	add	a3,a4,a3
   18f04:	0140006f          	j	18f18 <strncpy+0x50>
   18f08:	fff5c703          	lbu	a4,-1(a1)
   18f0c:	00178793          	addi	a5,a5,1
   18f10:	fee78fa3          	sb	a4,-1(a5)
   18f14:	00070c63          	beqz	a4,18f2c <strncpy+0x64>
   18f18:	00158593          	addi	a1,a1,1
   18f1c:	40f68833          	sub	a6,a3,a5
   18f20:	fec794e3          	bne	a5,a2,18f08 <strncpy+0x40>
   18f24:	00008067          	ret
   18f28:	00068813          	mv	a6,a3
   18f2c:	01078733          	add	a4,a5,a6
   18f30:	06080063          	beqz	a6,18f90 <strncpy+0xc8>
   18f34:	00178793          	addi	a5,a5,1
   18f38:	fe078fa3          	sb	zero,-1(a5)
   18f3c:	fee79ce3          	bne	a5,a4,18f34 <strncpy+0x6c>
   18f40:	00008067          	ret
   18f44:	00050713          	mv	a4,a0
   18f48:	f99ff06f          	j	18ee0 <strncpy+0x18>
   18f4c:	feff0337          	lui	t1,0xfeff0
   18f50:	808088b7          	lui	a7,0x80808
   18f54:	eff30313          	addi	t1,t1,-257 # fefefeff <__global_pointer$+0xfefc898f>
   18f58:	08088893          	addi	a7,a7,128 # 80808080 <__global_pointer$+0x807e0b10>
   18f5c:	00300e13          	li	t3,3
   18f60:	0005a683          	lw	a3,0(a1)
   18f64:	006687b3          	add	a5,a3,t1
   18f68:	fff6c813          	not	a6,a3
   18f6c:	0107f7b3          	and	a5,a5,a6
   18f70:	0117f7b3          	and	a5,a5,a7
   18f74:	f60798e3          	bnez	a5,18ee4 <strncpy+0x1c>
   18f78:	00470713          	addi	a4,a4,4
   18f7c:	ffc60613          	addi	a2,a2,-4
   18f80:	fed72e23          	sw	a3,-4(a4)
   18f84:	00458593          	addi	a1,a1,4
   18f88:	fcce6ce3          	bltu	t3,a2,18f60 <strncpy+0x98>
   18f8c:	f55ff06f          	j	18ee0 <strncpy+0x18>
   18f90:	00008067          	ret

00018f94 <_svfprintf_r>:
   18f94:	e1010113          	addi	sp,sp,-496
   18f98:	1e112623          	sw	ra,492(sp)
   18f9c:	1e812423          	sw	s0,488(sp)
   18fa0:	1d912223          	sw	s9,452(sp)
   18fa4:	00058413          	mv	s0,a1
   18fa8:	00b12423          	sw	a1,8(sp)
   18fac:	00060c93          	mv	s9,a2
   18fb0:	00d12823          	sw	a3,16(sp)
   18fb4:	1e912223          	sw	s1,484(sp)
   18fb8:	1f212023          	sw	s2,480(sp)
   18fbc:	1d312e23          	sw	s3,476(sp)
   18fc0:	1d412c23          	sw	s4,472(sp)
   18fc4:	1d512a23          	sw	s5,468(sp)
   18fc8:	1d612823          	sw	s6,464(sp)
   18fcc:	1d712623          	sw	s7,460(sp)
   18fd0:	1d812423          	sw	s8,456(sp)
   18fd4:	1da12023          	sw	s10,448(sp)
   18fd8:	1bb12e23          	sw	s11,444(sp)
   18fdc:	02a12223          	sw	a0,36(sp)
   18fe0:	c31fd0ef          	jal	ra,16c10 <_localeconv_r>
   18fe4:	00052783          	lw	a5,0(a0)
   18fe8:	00078513          	mv	a0,a5
   18fec:	02f12823          	sw	a5,48(sp)
   18ff0:	e4dff0ef          	jal	ra,18e3c <strlen>
   18ff4:	00c45783          	lhu	a5,12(s0)
   18ff8:	02a12423          	sw	a0,40(sp)
   18ffc:	0e012823          	sw	zero,240(sp)
   19000:	0e012a23          	sw	zero,244(sp)
   19004:	0e012c23          	sw	zero,248(sp)
   19008:	0e012e23          	sw	zero,252(sp)
   1900c:	0807f793          	andi	a5,a5,128
   19010:	00078863          	beqz	a5,19020 <_svfprintf_r+0x8c>
   19014:	01042783          	lw	a5,16(s0)
   19018:	00079463          	bnez	a5,19020 <_svfprintf_r+0x8c>
   1901c:	6a40106f          	j	1a6c0 <_svfprintf_r+0x172c>
   19020:	10c10793          	addi	a5,sp,268
   19024:	000c8d13          	mv	s10,s9
   19028:	0ef12223          	sw	a5,228(sp)
   1902c:	00078d93          	mv	s11,a5
   19030:	000d4783          	lbu	a5,0(s10)
   19034:	0e012623          	sw	zero,236(sp)
   19038:	0e012423          	sw	zero,232(sp)
   1903c:	00012c23          	sw	zero,24(sp)
   19040:	02012623          	sw	zero,44(sp)
   19044:	02012c23          	sw	zero,56(sp)
   19048:	02012e23          	sw	zero,60(sp)
   1904c:	04012023          	sw	zero,64(sp)
   19050:	04012223          	sw	zero,68(sp)
   19054:	00012223          	sw	zero,4(sp)
   19058:	01000c13          	li	s8,16
   1905c:	02412a83          	lw	s5,36(sp)
   19060:	38078863          	beqz	a5,193f0 <_svfprintf_r+0x45c>
   19064:	02500713          	li	a4,37
   19068:	00e79463          	bne	a5,a4,19070 <_svfprintf_r+0xdc>
   1906c:	4f80106f          	j	1a564 <_svfprintf_r+0x15d0>
   19070:	000d0413          	mv	s0,s10
   19074:	00c0006f          	j	19080 <_svfprintf_r+0xec>
   19078:	0ee78a63          	beq	a5,a4,1916c <_svfprintf_r+0x1d8>
   1907c:	00048413          	mv	s0,s1
   19080:	00144783          	lbu	a5,1(s0)
   19084:	00140493          	addi	s1,s0,1
   19088:	fe0798e3          	bnez	a5,19078 <_svfprintf_r+0xe4>
   1908c:	41a48933          	sub	s2,s1,s10
   19090:	36090063          	beqz	s2,193f0 <_svfprintf_r+0x45c>
   19094:	0ec12703          	lw	a4,236(sp)
   19098:	0e812783          	lw	a5,232(sp)
   1909c:	01ada023          	sw	s10,0(s11)
   190a0:	01270733          	add	a4,a4,s2
   190a4:	00178793          	addi	a5,a5,1
   190a8:	012da223          	sw	s2,4(s11)
   190ac:	0ee12623          	sw	a4,236(sp)
   190b0:	0ef12423          	sw	a5,232(sp)
   190b4:	00700713          	li	a4,7
   190b8:	008d8d93          	addi	s11,s11,8
   190bc:	0af74e63          	blt	a4,a5,19178 <_svfprintf_r+0x1e4>
   190c0:	00412703          	lw	a4,4(sp)
   190c4:	00144783          	lbu	a5,1(s0)
   190c8:	01270733          	add	a4,a4,s2
   190cc:	00e12223          	sw	a4,4(sp)
   190d0:	32078063          	beqz	a5,193f0 <_svfprintf_r+0x45c>
   190d4:	00148913          	addi	s2,s1,1
   190d8:	0014c403          	lbu	s0,1(s1)
   190dc:	0c0103a3          	sb	zero,199(sp)
   190e0:	fff00b13          	li	s6,-1
   190e4:	00000493          	li	s1,0
   190e8:	00000993          	li	s3,0
   190ec:	00900a13          	li	s4,9
   190f0:	02a00b93          	li	s7,42
   190f4:	00190913          	addi	s2,s2,1
   190f8:	05a00713          	li	a4,90
   190fc:	fe040793          	addi	a5,s0,-32
   19100:	1ef76463          	bltu	a4,a5,192e8 <_svfprintf_r+0x354>
   19104:	0000c697          	auipc	a3,0xc
   19108:	aac68693          	addi	a3,a3,-1364 # 24bb0 <__mprec_bigtens+0x28>
   1910c:	00279793          	slli	a5,a5,0x2
   19110:	00d787b3          	add	a5,a5,a3
   19114:	0007a783          	lw	a5,0(a5)
   19118:	00d787b3          	add	a5,a5,a3
   1911c:	00078067          	jr	a5
   19120:	000a8513          	mv	a0,s5
   19124:	aedfd0ef          	jal	ra,16c10 <_localeconv_r>
   19128:	00452783          	lw	a5,4(a0)
   1912c:	00078513          	mv	a0,a5
   19130:	04f12223          	sw	a5,68(sp)
   19134:	d09ff0ef          	jal	ra,18e3c <strlen>
   19138:	04a12023          	sw	a0,64(sp)
   1913c:	00050413          	mv	s0,a0
   19140:	000a8513          	mv	a0,s5
   19144:	acdfd0ef          	jal	ra,16c10 <_localeconv_r>
   19148:	00852783          	lw	a5,8(a0)
   1914c:	02f12e23          	sw	a5,60(sp)
   19150:	00040463          	beqz	s0,19158 <_svfprintf_r+0x1c4>
   19154:	4c40106f          	j	1a618 <_svfprintf_r+0x1684>
   19158:	00094403          	lbu	s0,0(s2)
   1915c:	f99ff06f          	j	190f4 <_svfprintf_r+0x160>
   19160:	0209e993          	ori	s3,s3,32
   19164:	00094403          	lbu	s0,0(s2)
   19168:	f8dff06f          	j	190f4 <_svfprintf_r+0x160>
   1916c:	41a48933          	sub	s2,s1,s10
   19170:	f60902e3          	beqz	s2,190d4 <_svfprintf_r+0x140>
   19174:	f21ff06f          	j	19094 <_svfprintf_r+0x100>
   19178:	00812583          	lw	a1,8(sp)
   1917c:	0e410613          	addi	a2,sp,228
   19180:	000a8513          	mv	a0,s5
   19184:	054050ef          	jal	ra,1e1d8 <__ssprint_r>
   19188:	02051a63          	bnez	a0,191bc <_svfprintf_r+0x228>
   1918c:	10c10d93          	addi	s11,sp,268
   19190:	f31ff06f          	j	190c0 <_svfprintf_r+0x12c>
   19194:	00812583          	lw	a1,8(sp)
   19198:	0e410613          	addi	a2,sp,228
   1919c:	000a8513          	mv	a0,s5
   191a0:	038050ef          	jal	ra,1e1d8 <__ssprint_r>
   191a4:	020500e3          	beqz	a0,199c4 <_svfprintf_r+0xa30>
   191a8:	00c12783          	lw	a5,12(sp)
   191ac:	00078863          	beqz	a5,191bc <_svfprintf_r+0x228>
   191b0:	00c12583          	lw	a1,12(sp)
   191b4:	02412503          	lw	a0,36(sp)
   191b8:	a55fa0ef          	jal	ra,13c0c <_free_r>
   191bc:	00812783          	lw	a5,8(sp)
   191c0:	00c7d783          	lhu	a5,12(a5)
   191c4:	0407f793          	andi	a5,a5,64
   191c8:	00078463          	beqz	a5,191d0 <_svfprintf_r+0x23c>
   191cc:	5400206f          	j	1b70c <_svfprintf_r+0x2778>
   191d0:	1ec12083          	lw	ra,492(sp)
   191d4:	1e812403          	lw	s0,488(sp)
   191d8:	00412503          	lw	a0,4(sp)
   191dc:	1e412483          	lw	s1,484(sp)
   191e0:	1e012903          	lw	s2,480(sp)
   191e4:	1dc12983          	lw	s3,476(sp)
   191e8:	1d812a03          	lw	s4,472(sp)
   191ec:	1d412a83          	lw	s5,468(sp)
   191f0:	1d012b03          	lw	s6,464(sp)
   191f4:	1cc12b83          	lw	s7,460(sp)
   191f8:	1c812c03          	lw	s8,456(sp)
   191fc:	1c412c83          	lw	s9,452(sp)
   19200:	1c012d03          	lw	s10,448(sp)
   19204:	1bc12d83          	lw	s11,444(sp)
   19208:	1f010113          	addi	sp,sp,496
   1920c:	00008067          	ret
   19210:	0000b797          	auipc	a5,0xb
   19214:	5b478793          	addi	a5,a5,1460 # 247c4 <zeroes.4505+0x20>
   19218:	02f12623          	sw	a5,44(sp)
   1921c:	0209f793          	andi	a5,s3,32
   19220:	0e078c63          	beqz	a5,19318 <_svfprintf_r+0x384>
   19224:	01012783          	lw	a5,16(sp)
   19228:	00778793          	addi	a5,a5,7
   1922c:	ff87f793          	andi	a5,a5,-8
   19230:	0007ac83          	lw	s9,0(a5)
   19234:	0047ab83          	lw	s7,4(a5)
   19238:	00878713          	addi	a4,a5,8
   1923c:	00e12823          	sw	a4,16(sp)
   19240:	0019f713          	andi	a4,s3,1
   19244:	00070863          	beqz	a4,19254 <_svfprintf_r+0x2c0>
   19248:	017ce733          	or	a4,s9,s7
   1924c:	00070463          	beqz	a4,19254 <_svfprintf_r+0x2c0>
   19250:	3ac0106f          	j	1a5fc <_svfprintf_r+0x1668>
   19254:	bff9fa13          	andi	s4,s3,-1025
   19258:	00200713          	li	a4,2
   1925c:	0c0103a3          	sb	zero,199(sp)
   19260:	fff00693          	li	a3,-1
   19264:	20db00e3          	beq	s6,a3,19c64 <_svfprintf_r+0xcd0>
   19268:	017ce6b3          	or	a3,s9,s7
   1926c:	f7fa7993          	andi	s3,s4,-129
   19270:	76069ae3          	bnez	a3,1a1e4 <_svfprintf_r+0x1250>
   19274:	3e0b16e3          	bnez	s6,19e60 <_svfprintf_r+0xecc>
   19278:	60071863          	bnez	a4,19888 <_svfprintf_r+0x8f4>
   1927c:	001a7b93          	andi	s7,s4,1
   19280:	1b010d13          	addi	s10,sp,432
   19284:	000b8463          	beqz	s7,1928c <_svfprintf_r+0x2f8>
   19288:	3340106f          	j	1a5bc <_svfprintf_r+0x1628>
   1928c:	000b8a13          	mv	s4,s7
   19290:	016bd463          	bge	s7,s6,19298 <_svfprintf_r+0x304>
   19294:	000b0a13          	mv	s4,s6
   19298:	0c714783          	lbu	a5,199(sp)
   1929c:	00012623          	sw	zero,12(sp)
   192a0:	02012023          	sw	zero,32(sp)
   192a4:	00012e23          	sw	zero,28(sp)
   192a8:	00012a23          	sw	zero,20(sp)
   192ac:	62078263          	beqz	a5,198d0 <_svfprintf_r+0x93c>
   192b0:	001a0a13          	addi	s4,s4,1
   192b4:	61c0006f          	j	198d0 <_svfprintf_r+0x93c>
   192b8:	00000493          	li	s1,0
   192bc:	fd040693          	addi	a3,s0,-48
   192c0:	00190913          	addi	s2,s2,1
   192c4:	00249793          	slli	a5,s1,0x2
   192c8:	fff94403          	lbu	s0,-1(s2)
   192cc:	009787b3          	add	a5,a5,s1
   192d0:	00179793          	slli	a5,a5,0x1
   192d4:	00f684b3          	add	s1,a3,a5
   192d8:	fd040693          	addi	a3,s0,-48
   192dc:	feda72e3          	bgeu	s4,a3,192c0 <_svfprintf_r+0x32c>
   192e0:	fe040793          	addi	a5,s0,-32
   192e4:	e2f770e3          	bgeu	a4,a5,19104 <_svfprintf_r+0x170>
   192e8:	10040463          	beqz	s0,193f0 <_svfprintf_r+0x45c>
   192ec:	14810623          	sb	s0,332(sp)
   192f0:	0c0103a3          	sb	zero,199(sp)
   192f4:	00100a13          	li	s4,1
   192f8:	00100b93          	li	s7,1
   192fc:	14c10d13          	addi	s10,sp,332
   19300:	5bc0006f          	j	198bc <_svfprintf_r+0x928>
   19304:	0000b797          	auipc	a5,0xb
   19308:	4d478793          	addi	a5,a5,1236 # 247d8 <zeroes.4505+0x34>
   1930c:	02f12623          	sw	a5,44(sp)
   19310:	0209f793          	andi	a5,s3,32
   19314:	f00798e3          	bnez	a5,19224 <_svfprintf_r+0x290>
   19318:	01012703          	lw	a4,16(sp)
   1931c:	0109f793          	andi	a5,s3,16
   19320:	00072c83          	lw	s9,0(a4)
   19324:	00470713          	addi	a4,a4,4
   19328:	00e12823          	sw	a4,16(sp)
   1932c:	00078463          	beqz	a5,19334 <_svfprintf_r+0x3a0>
   19330:	2a40106f          	j	1a5d4 <_svfprintf_r+0x1640>
   19334:	0409f793          	andi	a5,s3,64
   19338:	00079463          	bnez	a5,19340 <_svfprintf_r+0x3ac>
   1933c:	2900106f          	j	1a5cc <_svfprintf_r+0x1638>
   19340:	010c9c93          	slli	s9,s9,0x10
   19344:	010cdc93          	srli	s9,s9,0x10
   19348:	00000b93          	li	s7,0
   1934c:	ef5ff06f          	j	19240 <_svfprintf_r+0x2ac>
   19350:	00094403          	lbu	s0,0(s2)
   19354:	0049e993          	ori	s3,s3,4
   19358:	d9dff06f          	j	190f4 <_svfprintf_r+0x160>
   1935c:	0209f793          	andi	a5,s3,32
   19360:	260790e3          	bnez	a5,19dc0 <_svfprintf_r+0xe2c>
   19364:	01012683          	lw	a3,16(sp)
   19368:	0109f793          	andi	a5,s3,16
   1936c:	00468713          	addi	a4,a3,4
   19370:	0006ac83          	lw	s9,0(a3)
   19374:	4a079663          	bnez	a5,19820 <_svfprintf_r+0x88c>
   19378:	0409f793          	andi	a5,s3,64
   1937c:	00079463          	bnez	a5,19384 <_svfprintf_r+0x3f0>
   19380:	1950106f          	j	1ad14 <_svfprintf_r+0x1d80>
   19384:	010c9c93          	slli	s9,s9,0x10
   19388:	010cdc93          	srli	s9,s9,0x10
   1938c:	00000b93          	li	s7,0
   19390:	00e12823          	sw	a4,16(sp)
   19394:	2490006f          	j	19ddc <_svfprintf_r+0xe48>
   19398:	01012683          	lw	a3,16(sp)
   1939c:	0209f793          	andi	a5,s3,32
   193a0:	00468713          	addi	a4,a3,4
   193a4:	00078463          	beqz	a5,193ac <_svfprintf_r+0x418>
   193a8:	2340106f          	j	1a5dc <_svfprintf_r+0x1648>
   193ac:	0109f793          	andi	a5,s3,16
   193b0:	00078463          	beqz	a5,193b8 <_svfprintf_r+0x424>
   193b4:	0310106f          	j	1abe4 <_svfprintf_r+0x1c50>
   193b8:	0409f793          	andi	a5,s3,64
   193bc:	00078463          	beqz	a5,193c4 <_svfprintf_r+0x430>
   193c0:	25d0106f          	j	1ae1c <_svfprintf_r+0x1e88>
   193c4:	2009f993          	andi	s3,s3,512
   193c8:	00099463          	bnez	s3,193d0 <_svfprintf_r+0x43c>
   193cc:	0190106f          	j	1abe4 <_svfprintf_r+0x1c50>
   193d0:	01012783          	lw	a5,16(sp)
   193d4:	00e12823          	sw	a4,16(sp)
   193d8:	00412703          	lw	a4,4(sp)
   193dc:	0007a783          	lw	a5,0(a5)
   193e0:	00090d13          	mv	s10,s2
   193e4:	00e78023          	sb	a4,0(a5)
   193e8:	000d4783          	lbu	a5,0(s10)
   193ec:	c6079ce3          	bnez	a5,19064 <_svfprintf_r+0xd0>
   193f0:	0ec12783          	lw	a5,236(sp)
   193f4:	dc0784e3          	beqz	a5,191bc <_svfprintf_r+0x228>
   193f8:	00812403          	lw	s0,8(sp)
   193fc:	02412503          	lw	a0,36(sp)
   19400:	0e410613          	addi	a2,sp,228
   19404:	00040593          	mv	a1,s0
   19408:	5d1040ef          	jal	ra,1e1d8 <__ssprint_r>
   1940c:	00c45783          	lhu	a5,12(s0)
   19410:	db5ff06f          	j	191c4 <_svfprintf_r+0x230>
   19414:	00094403          	lbu	s0,0(s2)
   19418:	06c00793          	li	a5,108
   1941c:	00f41463          	bne	s0,a5,19424 <_svfprintf_r+0x490>
   19420:	2900106f          	j	1a6b0 <_svfprintf_r+0x171c>
   19424:	0109e993          	ori	s3,s3,16
   19428:	ccdff06f          	j	190f4 <_svfprintf_r+0x160>
   1942c:	00094403          	lbu	s0,0(s2)
   19430:	06800793          	li	a5,104
   19434:	00f41463          	bne	s0,a5,1943c <_svfprintf_r+0x4a8>
   19438:	2680106f          	j	1a6a0 <_svfprintf_r+0x170c>
   1943c:	0409e993          	ori	s3,s3,64
   19440:	cb5ff06f          	j	190f4 <_svfprintf_r+0x160>
   19444:	01012783          	lw	a5,16(sp)
   19448:	ffff8737          	lui	a4,0xffff8
   1944c:	83074713          	xori	a4,a4,-2000
   19450:	0007ac83          	lw	s9,0(a5)
   19454:	00478793          	addi	a5,a5,4
   19458:	00f12823          	sw	a5,16(sp)
   1945c:	0000b797          	auipc	a5,0xb
   19460:	36878793          	addi	a5,a5,872 # 247c4 <zeroes.4505+0x20>
   19464:	0ce11423          	sh	a4,200(sp)
   19468:	00000b93          	li	s7,0
   1946c:	0029ea13          	ori	s4,s3,2
   19470:	02f12623          	sw	a5,44(sp)
   19474:	00200713          	li	a4,2
   19478:	07800413          	li	s0,120
   1947c:	de1ff06f          	j	1925c <_svfprintf_r+0x2c8>
   19480:	0089f793          	andi	a5,s3,8
   19484:	00078463          	beqz	a5,1948c <_svfprintf_r+0x4f8>
   19488:	1b40106f          	j	1a63c <_svfprintf_r+0x16a8>
   1948c:	01012783          	lw	a5,16(sp)
   19490:	0b010513          	addi	a0,sp,176
   19494:	00778793          	addi	a5,a5,7
   19498:	ff87f793          	andi	a5,a5,-8
   1949c:	0007a583          	lw	a1,0(a5)
   194a0:	0047a603          	lw	a2,4(a5)
   194a4:	00878793          	addi	a5,a5,8
   194a8:	00f12823          	sw	a5,16(sp)
   194ac:	2ad0a0ef          	jal	ra,23f58 <__extenddftf2>
   194b0:	0b012783          	lw	a5,176(sp)
   194b4:	0ef12823          	sw	a5,240(sp)
   194b8:	0b412783          	lw	a5,180(sp)
   194bc:	0ef12a23          	sw	a5,244(sp)
   194c0:	0b812783          	lw	a5,184(sp)
   194c4:	0ef12c23          	sw	a5,248(sp)
   194c8:	0bc12783          	lw	a5,188(sp)
   194cc:	0ef12e23          	sw	a5,252(sp)
   194d0:	0f010513          	addi	a0,sp,240
   194d4:	ed0fd0ef          	jal	ra,16ba4 <_ldcheck>
   194d8:	0ca12623          	sw	a0,204(sp)
   194dc:	00200793          	li	a5,2
   194e0:	00f51463          	bne	a0,a5,194e8 <_svfprintf_r+0x554>
   194e4:	6800106f          	j	1ab64 <_svfprintf_r+0x1bd0>
   194e8:	00100793          	li	a5,1
   194ec:	00f51463          	bne	a0,a5,194f4 <_svfprintf_r+0x560>
   194f0:	0610106f          	j	1ad50 <_svfprintf_r+0x1dbc>
   194f4:	06100793          	li	a5,97
   194f8:	00f41463          	bne	s0,a5,19500 <_svfprintf_r+0x56c>
   194fc:	1200206f          	j	1b61c <_svfprintf_r+0x2688>
   19500:	04100793          	li	a5,65
   19504:	00f41463          	bne	s0,a5,1950c <_svfprintf_r+0x578>
   19508:	4b50106f          	j	1b1bc <_svfprintf_r+0x2228>
   1950c:	fdf47713          	andi	a4,s0,-33
   19510:	fff00793          	li	a5,-1
   19514:	04e12423          	sw	a4,72(sp)
   19518:	00fb1463          	bne	s6,a5,19520 <_svfprintf_r+0x58c>
   1951c:	1a10106f          	j	1aebc <_svfprintf_r+0x1f28>
   19520:	04700793          	li	a5,71
   19524:	00f71463          	bne	a4,a5,1952c <_svfprintf_r+0x598>
   19528:	1d40206f          	j	1b6fc <_svfprintf_r+0x2768>
   1952c:	0fc12e03          	lw	t3,252(sp)
   19530:	05312a23          	sw	s3,84(sp)
   19534:	1009e793          	ori	a5,s3,256
   19538:	0f012e83          	lw	t4,240(sp)
   1953c:	0f412f03          	lw	t5,244(sp)
   19540:	0f812f83          	lw	t6,248(sp)
   19544:	000e5463          	bgez	t3,1954c <_svfprintf_r+0x5b8>
   19548:	03c0206f          	j	1b584 <_svfprintf_r+0x25f0>
   1954c:	04012e23          	sw	zero,92(sp)
   19550:	00078993          	mv	s3,a5
   19554:	00012623          	sw	zero,12(sp)
   19558:	04812703          	lw	a4,72(sp)
   1955c:	04600793          	li	a5,70
   19560:	00f71463          	bne	a4,a5,19568 <_svfprintf_r+0x5d4>
   19564:	2a50106f          	j	1b008 <_svfprintf_r+0x2074>
   19568:	04500793          	li	a5,69
   1956c:	00f71463          	bne	a4,a5,19574 <_svfprintf_r+0x5e0>
   19570:	0bc0206f          	j	1b62c <_svfprintf_r+0x2698>
   19574:	0b010b93          	addi	s7,sp,176
   19578:	0d010793          	addi	a5,sp,208
   1957c:	0cc10713          	addi	a4,sp,204
   19580:	0dc10813          	addi	a6,sp,220
   19584:	000b0693          	mv	a3,s6
   19588:	00200613          	li	a2,2
   1958c:	000b8593          	mv	a1,s7
   19590:	000a8513          	mv	a0,s5
   19594:	0bd12823          	sw	t4,176(sp)
   19598:	03d12023          	sw	t4,32(sp)
   1959c:	0be12a23          	sw	t5,180(sp)
   195a0:	01e12e23          	sw	t5,28(sp)
   195a4:	0bf12c23          	sw	t6,184(sp)
   195a8:	01f12c23          	sw	t6,24(sp)
   195ac:	0bc12e23          	sw	t3,188(sp)
   195b0:	01c12a23          	sw	t3,20(sp)
   195b4:	afcfc0ef          	jal	ra,158b0 <_ldtoa_r>
   195b8:	04812703          	lw	a4,72(sp)
   195bc:	04700793          	li	a5,71
   195c0:	00050d13          	mv	s10,a0
   195c4:	01412e03          	lw	t3,20(sp)
   195c8:	01812f83          	lw	t6,24(sp)
   195cc:	01c12f03          	lw	t5,28(sp)
   195d0:	02012e83          	lw	t4,32(sp)
   195d4:	00f70463          	beq	a4,a5,195dc <_svfprintf_r+0x648>
   195d8:	4080206f          	j	1b9e0 <_svfprintf_r+0x2a4c>
   195dc:	05412783          	lw	a5,84(sp)
   195e0:	0017f793          	andi	a5,a5,1
   195e4:	00078463          	beqz	a5,195ec <_svfprintf_r+0x658>
   195e8:	1040206f          	j	1b6ec <_svfprintf_r+0x2758>
   195ec:	0dc12783          	lw	a5,220(sp)
   195f0:	41a787b3          	sub	a5,a5,s10
   195f4:	00f12c23          	sw	a5,24(sp)
   195f8:	0cc12703          	lw	a4,204(sp)
   195fc:	04700793          	li	a5,71
   19600:	00e12a23          	sw	a4,20(sp)
   19604:	04812703          	lw	a4,72(sp)
   19608:	00f71463          	bne	a4,a5,19610 <_svfprintf_r+0x67c>
   1960c:	0f10106f          	j	1aefc <_svfprintf_r+0x1f68>
   19610:	04812703          	lw	a4,72(sp)
   19614:	04600793          	li	a5,70
   19618:	00f71463          	bne	a4,a5,19620 <_svfprintf_r+0x68c>
   1961c:	37d0106f          	j	1b198 <_svfprintf_r+0x2204>
   19620:	01412783          	lw	a5,20(sp)
   19624:	04812603          	lw	a2,72(sp)
   19628:	04100693          	li	a3,65
   1962c:	fff78a13          	addi	s4,a5,-1
   19630:	0d412623          	sw	s4,204(sp)
   19634:	0ff47793          	andi	a5,s0,255
   19638:	00000713          	li	a4,0
   1963c:	00d61863          	bne	a2,a3,1964c <_svfprintf_r+0x6b8>
   19640:	00f78793          	addi	a5,a5,15
   19644:	0ff7f793          	andi	a5,a5,255
   19648:	00100713          	li	a4,1
   1964c:	0cf10a23          	sb	a5,212(sp)
   19650:	02b00793          	li	a5,43
   19654:	000a5a63          	bgez	s4,19668 <_svfprintf_r+0x6d4>
   19658:	01412783          	lw	a5,20(sp)
   1965c:	00100a13          	li	s4,1
   19660:	40fa0a33          	sub	s4,s4,a5
   19664:	02d00793          	li	a5,45
   19668:	0cf10aa3          	sb	a5,213(sp)
   1966c:	00900793          	li	a5,9
   19670:	0147c463          	blt	a5,s4,19678 <_svfprintf_r+0x6e4>
   19674:	2300206f          	j	1b8a4 <_svfprintf_r+0x2910>
   19678:	0e310b13          	addi	s6,sp,227
   1967c:	000b0b93          	mv	s7,s6
   19680:	06300993          	li	s3,99
   19684:	00c0006f          	j	19690 <_svfprintf_r+0x6fc>
   19688:	00068b93          	mv	s7,a3
   1968c:	00050a13          	mv	s4,a0
   19690:	00a00593          	li	a1,10
   19694:	000a0513          	mv	a0,s4
   19698:	6a50a0ef          	jal	ra,2453c <__modsi3>
   1969c:	03050513          	addi	a0,a0,48
   196a0:	feab8fa3          	sb	a0,-1(s7)
   196a4:	00a00593          	li	a1,10
   196a8:	000a0513          	mv	a0,s4
   196ac:	60d0a0ef          	jal	ra,244b8 <__divsi3>
   196b0:	fffb8693          	addi	a3,s7,-1
   196b4:	fd49cae3          	blt	s3,s4,19688 <_svfprintf_r+0x6f4>
   196b8:	03050793          	addi	a5,a0,48
   196bc:	0ff7f793          	andi	a5,a5,255
   196c0:	ffeb8713          	addi	a4,s7,-2
   196c4:	fef68fa3          	sb	a5,-1(a3)
   196c8:	01676463          	bltu	a4,s6,196d0 <_svfprintf_r+0x73c>
   196cc:	31c0206f          	j	1b9e8 <_svfprintf_r+0x2a54>
   196d0:	0d610693          	addi	a3,sp,214
   196d4:	0080006f          	j	196dc <_svfprintf_r+0x748>
   196d8:	00074783          	lbu	a5,0(a4) # ffff8000 <__global_pointer$+0xfffd0a90>
   196dc:	00168693          	addi	a3,a3,1
   196e0:	00170713          	addi	a4,a4,1
   196e4:	fef68fa3          	sb	a5,-1(a3)
   196e8:	ff6718e3          	bne	a4,s6,196d8 <_svfprintf_r+0x744>
   196ec:	0e510793          	addi	a5,sp,229
   196f0:	0d610713          	addi	a4,sp,214
   196f4:	417787b3          	sub	a5,a5,s7
   196f8:	00f707b3          	add	a5,a4,a5
   196fc:	0d410713          	addi	a4,sp,212
   19700:	40e787b3          	sub	a5,a5,a4
   19704:	02f12c23          	sw	a5,56(sp)
   19708:	01812703          	lw	a4,24(sp)
   1970c:	03812683          	lw	a3,56(sp)
   19710:	00100793          	li	a5,1
   19714:	00d70bb3          	add	s7,a4,a3
   19718:	00e7c463          	blt	a5,a4,19720 <_svfprintf_r+0x78c>
   1971c:	2480206f          	j	1b964 <_svfprintf_r+0x29d0>
   19720:	02812783          	lw	a5,40(sp)
   19724:	00fb8bb3          	add	s7,s7,a5
   19728:	05412783          	lw	a5,84(sp)
   1972c:	fffbca13          	not	s4,s7
   19730:	41fa5a13          	srai	s4,s4,0x1f
   19734:	bff7f993          	andi	s3,a5,-1025
   19738:	1009e993          	ori	s3,s3,256
   1973c:	014bfa33          	and	s4,s7,s4
   19740:	02012023          	sw	zero,32(sp)
   19744:	00012e23          	sw	zero,28(sp)
   19748:	00012a23          	sw	zero,20(sp)
   1974c:	05c12783          	lw	a5,92(sp)
   19750:	00079463          	bnez	a5,19758 <_svfprintf_r+0x7c4>
   19754:	01d0106f          	j	1af70 <_svfprintf_r+0x1fdc>
   19758:	02d00793          	li	a5,45
   1975c:	0cf103a3          	sb	a5,199(sp)
   19760:	00000b13          	li	s6,0
   19764:	001a0a13          	addi	s4,s4,1
   19768:	1680006f          	j	198d0 <_svfprintf_r+0x93c>
   1976c:	0209f793          	andi	a5,s3,32
   19770:	0109ea13          	ori	s4,s3,16
   19774:	66079c63          	bnez	a5,19dec <_svfprintf_r+0xe58>
   19778:	01012783          	lw	a5,16(sp)
   1977c:	00478713          	addi	a4,a5,4
   19780:	01012783          	lw	a5,16(sp)
   19784:	00000b93          	li	s7,0
   19788:	00e12823          	sw	a4,16(sp)
   1978c:	0007ac83          	lw	s9,0(a5)
   19790:	00100713          	li	a4,1
   19794:	ac9ff06f          	j	1925c <_svfprintf_r+0x2c8>
   19798:	01012783          	lw	a5,16(sp)
   1979c:	0c0103a3          	sb	zero,199(sp)
   197a0:	0007ad03          	lw	s10,0(a5)
   197a4:	00478c93          	addi	s9,a5,4
   197a8:	740d04e3          	beqz	s10,1a6f0 <_svfprintf_r+0x175c>
   197ac:	fff00793          	li	a5,-1
   197b0:	00fb1463          	bne	s6,a5,197b8 <_svfprintf_r+0x824>
   197b4:	44c0106f          	j	1ac00 <_svfprintf_r+0x1c6c>
   197b8:	000b0613          	mv	a2,s6
   197bc:	00000593          	li	a1,0
   197c0:	000d0513          	mv	a0,s10
   197c4:	f71fd0ef          	jal	ra,17734 <memchr>
   197c8:	00a12623          	sw	a0,12(sp)
   197cc:	00051463          	bnez	a0,197d4 <_svfprintf_r+0x840>
   197d0:	1390106f          	j	1b108 <_svfprintf_r+0x2174>
   197d4:	00c12783          	lw	a5,12(sp)
   197d8:	41a78bb3          	sub	s7,a5,s10
   197dc:	0c714783          	lbu	a5,199(sp)
   197e0:	fffbca13          	not	s4,s7
   197e4:	41fa5a13          	srai	s4,s4,0x1f
   197e8:	01912823          	sw	s9,16(sp)
   197ec:	00012623          	sw	zero,12(sp)
   197f0:	02012023          	sw	zero,32(sp)
   197f4:	00012e23          	sw	zero,28(sp)
   197f8:	00012a23          	sw	zero,20(sp)
   197fc:	014bfa33          	and	s4,s7,s4
   19800:	00000b13          	li	s6,0
   19804:	aa0796e3          	bnez	a5,192b0 <_svfprintf_r+0x31c>
   19808:	0c80006f          	j	198d0 <_svfprintf_r+0x93c>
   1980c:	0209f793          	andi	a5,s3,32
   19810:	0109e993          	ori	s3,s3,16
   19814:	5a079663          	bnez	a5,19dc0 <_svfprintf_r+0xe2c>
   19818:	01012783          	lw	a5,16(sp)
   1981c:	00478713          	addi	a4,a5,4
   19820:	01012783          	lw	a5,16(sp)
   19824:	00000b93          	li	s7,0
   19828:	00e12823          	sw	a4,16(sp)
   1982c:	0007ac83          	lw	s9,0(a5)
   19830:	5ac0006f          	j	19ddc <_svfprintf_r+0xe48>
   19834:	0089e993          	ori	s3,s3,8
   19838:	00094403          	lbu	s0,0(s2)
   1983c:	8b9ff06f          	j	190f4 <_svfprintf_r+0x160>
   19840:	0209f793          	andi	a5,s3,32
   19844:	0109ea13          	ori	s4,s3,16
   19848:	5c079663          	bnez	a5,19e14 <_svfprintf_r+0xe80>
   1984c:	01012783          	lw	a5,16(sp)
   19850:	00478713          	addi	a4,a5,4
   19854:	01012783          	lw	a5,16(sp)
   19858:	00e12823          	sw	a4,16(sp)
   1985c:	0007ac83          	lw	s9,0(a5)
   19860:	41fcdb93          	srai	s7,s9,0x1f
   19864:	000b8713          	mv	a4,s7
   19868:	3c074c63          	bltz	a4,19c40 <_svfprintf_r+0xcac>
   1986c:	fff00713          	li	a4,-1
   19870:	5ceb0663          	beq	s6,a4,19e3c <_svfprintf_r+0xea8>
   19874:	017ce733          	or	a4,s9,s7
   19878:	f7fa7993          	andi	s3,s4,-129
   1987c:	5a071e63          	bnez	a4,19e38 <_svfprintf_r+0xea4>
   19880:	000b0463          	beqz	s6,19888 <_svfprintf_r+0x8f4>
   19884:	6400106f          	j	1aec4 <_svfprintf_r+0x1f30>
   19888:	00000b13          	li	s6,0
   1988c:	00000b93          	li	s7,0
   19890:	1b010d13          	addi	s10,sp,432
   19894:	9f9ff06f          	j	1928c <_svfprintf_r+0x2f8>
   19898:	01012703          	lw	a4,16(sp)
   1989c:	0c0103a3          	sb	zero,199(sp)
   198a0:	00100a13          	li	s4,1
   198a4:	00072783          	lw	a5,0(a4)
   198a8:	00470713          	addi	a4,a4,4
   198ac:	00e12823          	sw	a4,16(sp)
   198b0:	14f10623          	sb	a5,332(sp)
   198b4:	00100b93          	li	s7,1
   198b8:	14c10d13          	addi	s10,sp,332
   198bc:	00012623          	sw	zero,12(sp)
   198c0:	00000b13          	li	s6,0
   198c4:	02012023          	sw	zero,32(sp)
   198c8:	00012e23          	sw	zero,28(sp)
   198cc:	00012a23          	sw	zero,20(sp)
   198d0:	0029ff13          	andi	t5,s3,2
   198d4:	000f0463          	beqz	t5,198dc <_svfprintf_r+0x948>
   198d8:	002a0a13          	addi	s4,s4,2
   198dc:	0849fe93          	andi	t4,s3,132
   198e0:	0ec12783          	lw	a5,236(sp)
   198e4:	000e9663          	bnez	t4,198f0 <_svfprintf_r+0x95c>
   198e8:	414486b3          	sub	a3,s1,s4
   198ec:	10d040e3          	bgtz	a3,1a1ec <_svfprintf_r+0x1258>
   198f0:	0c714703          	lbu	a4,199(sp)
   198f4:	02070a63          	beqz	a4,19928 <_svfprintf_r+0x994>
   198f8:	0e812703          	lw	a4,232(sp)
   198fc:	0c710693          	addi	a3,sp,199
   19900:	00dda023          	sw	a3,0(s11)
   19904:	00178793          	addi	a5,a5,1
   19908:	00100693          	li	a3,1
   1990c:	00170713          	addi	a4,a4,1
   19910:	00dda223          	sw	a3,4(s11)
   19914:	0ef12623          	sw	a5,236(sp)
   19918:	0ee12423          	sw	a4,232(sp)
   1991c:	00700693          	li	a3,7
   19920:	008d8d93          	addi	s11,s11,8
   19924:	0ce6c263          	blt	a3,a4,199e8 <_svfprintf_r+0xa54>
   19928:	020f0a63          	beqz	t5,1995c <_svfprintf_r+0x9c8>
   1992c:	0e812703          	lw	a4,232(sp)
   19930:	0c810693          	addi	a3,sp,200
   19934:	00dda023          	sw	a3,0(s11)
   19938:	00278793          	addi	a5,a5,2
   1993c:	00200693          	li	a3,2
   19940:	00170713          	addi	a4,a4,1
   19944:	00dda223          	sw	a3,4(s11)
   19948:	0ef12623          	sw	a5,236(sp)
   1994c:	0ee12423          	sw	a4,232(sp)
   19950:	00700693          	li	a3,7
   19954:	008d8d93          	addi	s11,s11,8
   19958:	1ce6c4e3          	blt	a3,a4,1a320 <_svfprintf_r+0x138c>
   1995c:	08000713          	li	a4,128
   19960:	6aee8263          	beq	t4,a4,1a004 <_svfprintf_r+0x1070>
   19964:	417b0b33          	sub	s6,s6,s7
   19968:	79604a63          	bgtz	s6,1a0fc <_svfprintf_r+0x1168>
   1996c:	1009f713          	andi	a4,s3,256
   19970:	54071663          	bnez	a4,19ebc <_svfprintf_r+0xf28>
   19974:	0e812703          	lw	a4,232(sp)
   19978:	017787b3          	add	a5,a5,s7
   1997c:	01ada023          	sw	s10,0(s11)
   19980:	00170713          	addi	a4,a4,1
   19984:	017da223          	sw	s7,4(s11)
   19988:	0ef12623          	sw	a5,236(sp)
   1998c:	0ee12423          	sw	a4,232(sp)
   19990:	00700693          	li	a3,7
   19994:	1ae6c063          	blt	a3,a4,19b34 <_svfprintf_r+0xba0>
   19998:	008d8d93          	addi	s11,s11,8
   1999c:	0049f993          	andi	s3,s3,4
   199a0:	00098663          	beqz	s3,199ac <_svfprintf_r+0xa18>
   199a4:	41448433          	sub	s0,s1,s4
   199a8:	1a804663          	bgtz	s0,19b54 <_svfprintf_r+0xbc0>
   199ac:	0144d463          	bge	s1,s4,199b4 <_svfprintf_r+0xa20>
   199b0:	000a0493          	mv	s1,s4
   199b4:	00412703          	lw	a4,4(sp)
   199b8:	00970733          	add	a4,a4,s1
   199bc:	00e12223          	sw	a4,4(sp)
   199c0:	fc079a63          	bnez	a5,19194 <_svfprintf_r+0x200>
   199c4:	00c12783          	lw	a5,12(sp)
   199c8:	0e012423          	sw	zero,232(sp)
   199cc:	00078863          	beqz	a5,199dc <_svfprintf_r+0xa48>
   199d0:	00c12583          	lw	a1,12(sp)
   199d4:	000a8513          	mv	a0,s5
   199d8:	a34fa0ef          	jal	ra,13c0c <_free_r>
   199dc:	10c10d93          	addi	s11,sp,268
   199e0:	00090d13          	mv	s10,s2
   199e4:	a05ff06f          	j	193e8 <_svfprintf_r+0x454>
   199e8:	00812583          	lw	a1,8(sp)
   199ec:	0e410613          	addi	a2,sp,228
   199f0:	000a8513          	mv	a0,s5
   199f4:	05d12423          	sw	t4,72(sp)
   199f8:	03e12a23          	sw	t5,52(sp)
   199fc:	7dc040ef          	jal	ra,1e1d8 <__ssprint_r>
   19a00:	fa051463          	bnez	a0,191a8 <_svfprintf_r+0x214>
   19a04:	0ec12783          	lw	a5,236(sp)
   19a08:	10c10d93          	addi	s11,sp,268
   19a0c:	04812e83          	lw	t4,72(sp)
   19a10:	03412f03          	lw	t5,52(sp)
   19a14:	f15ff06f          	j	19928 <_svfprintf_r+0x994>
   19a18:	0e812683          	lw	a3,232(sp)
   19a1c:	00178c93          	addi	s9,a5,1
   19a20:	01812783          	lw	a5,24(sp)
   19a24:	00100713          	li	a4,1
   19a28:	01ada023          	sw	s10,0(s11)
   19a2c:	00168413          	addi	s0,a3,1
   19a30:	008d8b93          	addi	s7,s11,8
   19a34:	28f758e3          	bge	a4,a5,1a4c4 <_svfprintf_r+0x1530>
   19a38:	00100713          	li	a4,1
   19a3c:	00eda223          	sw	a4,4(s11)
   19a40:	0f912623          	sw	s9,236(sp)
   19a44:	0e812423          	sw	s0,232(sp)
   19a48:	00700713          	li	a4,7
   19a4c:	328740e3          	blt	a4,s0,1a56c <_svfprintf_r+0x15d8>
   19a50:	02812783          	lw	a5,40(sp)
   19a54:	03012703          	lw	a4,48(sp)
   19a58:	00140413          	addi	s0,s0,1
   19a5c:	00fc8cb3          	add	s9,s9,a5
   19a60:	00eba023          	sw	a4,0(s7)
   19a64:	00fba223          	sw	a5,4(s7)
   19a68:	0f912623          	sw	s9,236(sp)
   19a6c:	0e812423          	sw	s0,232(sp)
   19a70:	00700713          	li	a4,7
   19a74:	008b8b93          	addi	s7,s7,8
   19a78:	30874ee3          	blt	a4,s0,1a594 <_svfprintf_r+0x1600>
   19a7c:	0f012703          	lw	a4,240(sp)
   19a80:	01812783          	lw	a5,24(sp)
   19a84:	00140613          	addi	a2,s0,1
   19a88:	0ae12823          	sw	a4,176(sp)
   19a8c:	0f412703          	lw	a4,244(sp)
   19a90:	0a010593          	addi	a1,sp,160
   19a94:	0b010513          	addi	a0,sp,176
   19a98:	0ae12a23          	sw	a4,180(sp)
   19a9c:	0f812703          	lw	a4,248(sp)
   19aa0:	00060b13          	mv	s6,a2
   19aa4:	00c12e23          	sw	a2,28(sp)
   19aa8:	0ae12c23          	sw	a4,184(sp)
   19aac:	0fc12703          	lw	a4,252(sp)
   19ab0:	0a012023          	sw	zero,160(sp)
   19ab4:	0a012223          	sw	zero,164(sp)
   19ab8:	0ae12e23          	sw	a4,188(sp)
   19abc:	fff78713          	addi	a4,a5,-1
   19ac0:	00e12a23          	sw	a4,20(sp)
   19ac4:	0a012423          	sw	zero,168(sp)
   19ac8:	0a012623          	sw	zero,172(sp)
   19acc:	554070ef          	jal	ra,21020 <__eqtf2>
   19ad0:	008b8d93          	addi	s11,s7,8
   19ad4:	01412703          	lw	a4,20(sp)
   19ad8:	01c12603          	lw	a2,28(sp)
   19adc:	200508e3          	beqz	a0,1a4ec <_svfprintf_r+0x1558>
   19ae0:	00ec8cb3          	add	s9,s9,a4
   19ae4:	001d0813          	addi	a6,s10,1
   19ae8:	00eba223          	sw	a4,4(s7)
   19aec:	010ba023          	sw	a6,0(s7)
   19af0:	0f912623          	sw	s9,236(sp)
   19af4:	0f612423          	sw	s6,232(sp)
   19af8:	00700713          	li	a4,7
   19afc:	5f674ce3          	blt	a4,s6,1a8f4 <_svfprintf_r+0x1960>
   19b00:	010b8713          	addi	a4,s7,16
   19b04:	00240b13          	addi	s6,s0,2
   19b08:	000d8b93          	mv	s7,s11
   19b0c:	00070d93          	mv	s11,a4
   19b10:	03812683          	lw	a3,56(sp)
   19b14:	0d410713          	addi	a4,sp,212
   19b18:	00eba023          	sw	a4,0(s7)
   19b1c:	019687b3          	add	a5,a3,s9
   19b20:	00dba223          	sw	a3,4(s7)
   19b24:	0ef12623          	sw	a5,236(sp)
   19b28:	0f612423          	sw	s6,232(sp)
   19b2c:	00700713          	li	a4,7
   19b30:	e76756e3          	bge	a4,s6,1999c <_svfprintf_r+0xa08>
   19b34:	00812583          	lw	a1,8(sp)
   19b38:	0e410613          	addi	a2,sp,228
   19b3c:	000a8513          	mv	a0,s5
   19b40:	698040ef          	jal	ra,1e1d8 <__ssprint_r>
   19b44:	e6051263          	bnez	a0,191a8 <_svfprintf_r+0x214>
   19b48:	0ec12783          	lw	a5,236(sp)
   19b4c:	10c10d93          	addi	s11,sp,268
   19b50:	e4dff06f          	j	1999c <_svfprintf_r+0xa08>
   19b54:	0e812703          	lw	a4,232(sp)
   19b58:	0000bc97          	auipc	s9,0xb
   19b5c:	1c4c8c93          	addi	s9,s9,452 # 24d1c <blanks.4489>
   19b60:	068c5063          	bge	s8,s0,19bc0 <_svfprintf_r+0xc2c>
   19b64:	00700993          	li	s3,7
   19b68:	00812b03          	lw	s6,8(sp)
   19b6c:	00c0006f          	j	19b78 <_svfprintf_r+0xbe4>
   19b70:	ff040413          	addi	s0,s0,-16
   19b74:	048c5663          	bge	s8,s0,19bc0 <_svfprintf_r+0xc2c>
   19b78:	01078793          	addi	a5,a5,16
   19b7c:	00170713          	addi	a4,a4,1
   19b80:	019da023          	sw	s9,0(s11)
   19b84:	018da223          	sw	s8,4(s11)
   19b88:	0ef12623          	sw	a5,236(sp)
   19b8c:	0ee12423          	sw	a4,232(sp)
   19b90:	008d8d93          	addi	s11,s11,8
   19b94:	fce9dee3          	bge	s3,a4,19b70 <_svfprintf_r+0xbdc>
   19b98:	0e410613          	addi	a2,sp,228
   19b9c:	000b0593          	mv	a1,s6
   19ba0:	000a8513          	mv	a0,s5
   19ba4:	634040ef          	jal	ra,1e1d8 <__ssprint_r>
   19ba8:	e0051063          	bnez	a0,191a8 <_svfprintf_r+0x214>
   19bac:	ff040413          	addi	s0,s0,-16
   19bb0:	0ec12783          	lw	a5,236(sp)
   19bb4:	0e812703          	lw	a4,232(sp)
   19bb8:	10c10d93          	addi	s11,sp,268
   19bbc:	fa8c4ee3          	blt	s8,s0,19b78 <_svfprintf_r+0xbe4>
   19bc0:	008787b3          	add	a5,a5,s0
   19bc4:	00170713          	addi	a4,a4,1
   19bc8:	019da023          	sw	s9,0(s11)
   19bcc:	008da223          	sw	s0,4(s11)
   19bd0:	0ef12623          	sw	a5,236(sp)
   19bd4:	0ee12423          	sw	a4,232(sp)
   19bd8:	00700693          	li	a3,7
   19bdc:	dce6d8e3          	bge	a3,a4,199ac <_svfprintf_r+0xa18>
   19be0:	00812583          	lw	a1,8(sp)
   19be4:	0e410613          	addi	a2,sp,228
   19be8:	000a8513          	mv	a0,s5
   19bec:	5ec040ef          	jal	ra,1e1d8 <__ssprint_r>
   19bf0:	da051c63          	bnez	a0,191a8 <_svfprintf_r+0x214>
   19bf4:	0ec12783          	lw	a5,236(sp)
   19bf8:	db5ff06f          	j	199ac <_svfprintf_r+0xa18>
   19bfc:	0209f793          	andi	a5,s3,32
   19c00:	20079863          	bnez	a5,19e10 <_svfprintf_r+0xe7c>
   19c04:	01012703          	lw	a4,16(sp)
   19c08:	0109f793          	andi	a5,s3,16
   19c0c:	00470713          	addi	a4,a4,4
   19c10:	00078463          	beqz	a5,19c18 <_svfprintf_r+0xc84>
   19c14:	5c50106f          	j	1b9d8 <_svfprintf_r+0x2a44>
   19c18:	0409f793          	andi	a5,s3,64
   19c1c:	00079463          	bnez	a5,19c24 <_svfprintf_r+0xc90>
   19c20:	10c0106f          	j	1ad2c <_svfprintf_r+0x1d98>
   19c24:	01012783          	lw	a5,16(sp)
   19c28:	00e12823          	sw	a4,16(sp)
   19c2c:	00098a13          	mv	s4,s3
   19c30:	00079c83          	lh	s9,0(a5)
   19c34:	41fcdb93          	srai	s7,s9,0x1f
   19c38:	000b8713          	mv	a4,s7
   19c3c:	c20758e3          	bgez	a4,1986c <_svfprintf_r+0x8d8>
   19c40:	41900cb3          	neg	s9,s9
   19c44:	01903733          	snez	a4,s9
   19c48:	417007b3          	neg	a5,s7
   19c4c:	40e78bb3          	sub	s7,a5,a4
   19c50:	02d00713          	li	a4,45
   19c54:	0ce103a3          	sb	a4,199(sp)
   19c58:	fff00693          	li	a3,-1
   19c5c:	00100713          	li	a4,1
   19c60:	e0db1463          	bne	s6,a3,19268 <_svfprintf_r+0x2d4>
   19c64:	00100693          	li	a3,1
   19c68:	1cd70a63          	beq	a4,a3,19e3c <_svfprintf_r+0xea8>
   19c6c:	00200693          	li	a3,2
   19c70:	20d70463          	beq	a4,a3,19e78 <_svfprintf_r+0xee4>
   19c74:	1b010693          	addi	a3,sp,432
   19c78:	0080006f          	j	19c80 <_svfprintf_r+0xcec>
   19c7c:	000d0693          	mv	a3,s10
   19c80:	01db9793          	slli	a5,s7,0x1d
   19c84:	007cf713          	andi	a4,s9,7
   19c88:	003cdc93          	srli	s9,s9,0x3
   19c8c:	03070713          	addi	a4,a4,48
   19c90:	0197ecb3          	or	s9,a5,s9
   19c94:	003bdb93          	srli	s7,s7,0x3
   19c98:	fee68fa3          	sb	a4,-1(a3)
   19c9c:	017ce7b3          	or	a5,s9,s7
   19ca0:	fff68d13          	addi	s10,a3,-1
   19ca4:	fc079ce3          	bnez	a5,19c7c <_svfprintf_r+0xce8>
   19ca8:	001a7793          	andi	a5,s4,1
   19cac:	20078063          	beqz	a5,19eac <_svfprintf_r+0xf18>
   19cb0:	03000793          	li	a5,48
   19cb4:	1ef70c63          	beq	a4,a5,19eac <_svfprintf_r+0xf18>
   19cb8:	ffe68693          	addi	a3,a3,-2
   19cbc:	fefd0fa3          	sb	a5,-1(s10)
   19cc0:	1b010793          	addi	a5,sp,432
   19cc4:	40d78bb3          	sub	s7,a5,a3
   19cc8:	000a0993          	mv	s3,s4
   19ccc:	00068d13          	mv	s10,a3
   19cd0:	dbcff06f          	j	1928c <_svfprintf_r+0x2f8>
   19cd4:	02b00793          	li	a5,43
   19cd8:	0cf103a3          	sb	a5,199(sp)
   19cdc:	00094403          	lbu	s0,0(s2)
   19ce0:	c14ff06f          	j	190f4 <_svfprintf_r+0x160>
   19ce4:	01012783          	lw	a5,16(sp)
   19ce8:	00094403          	lbu	s0,0(s2)
   19cec:	0007a483          	lw	s1,0(a5)
   19cf0:	00478793          	addi	a5,a5,4
   19cf4:	00f12823          	sw	a5,16(sp)
   19cf8:	be04de63          	bgez	s1,190f4 <_svfprintf_r+0x160>
   19cfc:	409004b3          	neg	s1,s1
   19d00:	0049e993          	ori	s3,s3,4
   19d04:	bf0ff06f          	j	190f4 <_svfprintf_r+0x160>
   19d08:	0809e993          	ori	s3,s3,128
   19d0c:	00094403          	lbu	s0,0(s2)
   19d10:	be4ff06f          	j	190f4 <_svfprintf_r+0x160>
   19d14:	00094403          	lbu	s0,0(s2)
   19d18:	00190793          	addi	a5,s2,1
   19d1c:	01741463          	bne	s0,s7,19d24 <_svfprintf_r+0xd90>
   19d20:	4950106f          	j	1b9b4 <_svfprintf_r+0x2a20>
   19d24:	fd040693          	addi	a3,s0,-48
   19d28:	00078913          	mv	s2,a5
   19d2c:	00000b13          	li	s6,0
   19d30:	bcda6663          	bltu	s4,a3,190fc <_svfprintf_r+0x168>
   19d34:	00190913          	addi	s2,s2,1
   19d38:	002b1793          	slli	a5,s6,0x2
   19d3c:	fff94403          	lbu	s0,-1(s2)
   19d40:	016787b3          	add	a5,a5,s6
   19d44:	00179793          	slli	a5,a5,0x1
   19d48:	00d78b33          	add	s6,a5,a3
   19d4c:	fd040693          	addi	a3,s0,-48
   19d50:	feda72e3          	bgeu	s4,a3,19d34 <_svfprintf_r+0xda0>
   19d54:	ba8ff06f          	j	190fc <_svfprintf_r+0x168>
   19d58:	0019e993          	ori	s3,s3,1
   19d5c:	00094403          	lbu	s0,0(s2)
   19d60:	b94ff06f          	j	190f4 <_svfprintf_r+0x160>
   19d64:	0c714783          	lbu	a5,199(sp)
   19d68:	00094403          	lbu	s0,0(s2)
   19d6c:	b8079463          	bnez	a5,190f4 <_svfprintf_r+0x160>
   19d70:	02000793          	li	a5,32
   19d74:	0cf103a3          	sb	a5,199(sp)
   19d78:	b7cff06f          	j	190f4 <_svfprintf_r+0x160>
   19d7c:	0209f793          	andi	a5,s3,32
   19d80:	06079463          	bnez	a5,19de8 <_svfprintf_r+0xe54>
   19d84:	01012683          	lw	a3,16(sp)
   19d88:	0109f793          	andi	a5,s3,16
   19d8c:	00468713          	addi	a4,a3,4
   19d90:	0006ac83          	lw	s9,0(a3)
   19d94:	00078463          	beqz	a5,19d9c <_svfprintf_r+0xe08>
   19d98:	4750106f          	j	1ba0c <_svfprintf_r+0x2a78>
   19d9c:	0409f793          	andi	a5,s3,64
   19da0:	74078ae3          	beqz	a5,1acf4 <_svfprintf_r+0x1d60>
   19da4:	010c9c93          	slli	s9,s9,0x10
   19da8:	00e12823          	sw	a4,16(sp)
   19dac:	010cdc93          	srli	s9,s9,0x10
   19db0:	00000b93          	li	s7,0
   19db4:	00098a13          	mv	s4,s3
   19db8:	00100713          	li	a4,1
   19dbc:	ca0ff06f          	j	1925c <_svfprintf_r+0x2c8>
   19dc0:	01012783          	lw	a5,16(sp)
   19dc4:	00778793          	addi	a5,a5,7
   19dc8:	ff87f793          	andi	a5,a5,-8
   19dcc:	0007ac83          	lw	s9,0(a5)
   19dd0:	0047ab83          	lw	s7,4(a5)
   19dd4:	00878713          	addi	a4,a5,8
   19dd8:	00e12823          	sw	a4,16(sp)
   19ddc:	bff9fa13          	andi	s4,s3,-1025
   19de0:	00000713          	li	a4,0
   19de4:	c78ff06f          	j	1925c <_svfprintf_r+0x2c8>
   19de8:	00098a13          	mv	s4,s3
   19dec:	01012783          	lw	a5,16(sp)
   19df0:	00778793          	addi	a5,a5,7
   19df4:	ff87f793          	andi	a5,a5,-8
   19df8:	00878713          	addi	a4,a5,8
   19dfc:	00e12823          	sw	a4,16(sp)
   19e00:	0007ac83          	lw	s9,0(a5)
   19e04:	0047ab83          	lw	s7,4(a5)
   19e08:	00100713          	li	a4,1
   19e0c:	c50ff06f          	j	1925c <_svfprintf_r+0x2c8>
   19e10:	00098a13          	mv	s4,s3
   19e14:	01012783          	lw	a5,16(sp)
   19e18:	00778793          	addi	a5,a5,7
   19e1c:	ff87f793          	andi	a5,a5,-8
   19e20:	0047a703          	lw	a4,4(a5)
   19e24:	00878693          	addi	a3,a5,8
   19e28:	00d12823          	sw	a3,16(sp)
   19e2c:	0007ac83          	lw	s9,0(a5)
   19e30:	00070b93          	mv	s7,a4
   19e34:	a35ff06f          	j	19868 <_svfprintf_r+0x8d4>
   19e38:	00098a13          	mv	s4,s3
   19e3c:	400b90e3          	bnez	s7,1aa3c <_svfprintf_r+0x1aa8>
   19e40:	00900713          	li	a4,9
   19e44:	3f976ce3          	bltu	a4,s9,1aa3c <_svfprintf_r+0x1aa8>
   19e48:	030c8c93          	addi	s9,s9,48
   19e4c:	1b9107a3          	sb	s9,431(sp)
   19e50:	000a0993          	mv	s3,s4
   19e54:	00100b93          	li	s7,1
   19e58:	1af10d13          	addi	s10,sp,431
   19e5c:	c30ff06f          	j	1928c <_svfprintf_r+0x2f8>
   19e60:	00100693          	li	a3,1
   19e64:	00d71463          	bne	a4,a3,19e6c <_svfprintf_r+0xed8>
   19e68:	05c0106f          	j	1aec4 <_svfprintf_r+0x1f30>
   19e6c:	00200693          	li	a3,2
   19e70:	00098a13          	mv	s4,s3
   19e74:	e0d710e3          	bne	a4,a3,19c74 <_svfprintf_r+0xce0>
   19e78:	02c12683          	lw	a3,44(sp)
   19e7c:	1b010d13          	addi	s10,sp,432
   19e80:	00fcf793          	andi	a5,s9,15
   19e84:	00f687b3          	add	a5,a3,a5
   19e88:	0007c783          	lbu	a5,0(a5)
   19e8c:	01cb9713          	slli	a4,s7,0x1c
   19e90:	004cdc93          	srli	s9,s9,0x4
   19e94:	fffd0d13          	addi	s10,s10,-1
   19e98:	01976cb3          	or	s9,a4,s9
   19e9c:	004bdb93          	srli	s7,s7,0x4
   19ea0:	00fd0023          	sb	a5,0(s10)
   19ea4:	017ce7b3          	or	a5,s9,s7
   19ea8:	fc079ce3          	bnez	a5,19e80 <_svfprintf_r+0xeec>
   19eac:	1b010793          	addi	a5,sp,432
   19eb0:	41a78bb3          	sub	s7,a5,s10
   19eb4:	000a0993          	mv	s3,s4
   19eb8:	bd4ff06f          	j	1928c <_svfprintf_r+0x2f8>
   19ebc:	06500713          	li	a4,101
   19ec0:	b4875ce3          	bge	a4,s0,19a18 <_svfprintf_r+0xa84>
   19ec4:	0f012703          	lw	a4,240(sp)
   19ec8:	0a010593          	addi	a1,sp,160
   19ecc:	0b010513          	addi	a0,sp,176
   19ed0:	0ae12823          	sw	a4,176(sp)
   19ed4:	0f412703          	lw	a4,244(sp)
   19ed8:	02f12a23          	sw	a5,52(sp)
   19edc:	0a012023          	sw	zero,160(sp)
   19ee0:	0ae12a23          	sw	a4,180(sp)
   19ee4:	0f812703          	lw	a4,248(sp)
   19ee8:	0a012223          	sw	zero,164(sp)
   19eec:	0a012423          	sw	zero,168(sp)
   19ef0:	0ae12c23          	sw	a4,184(sp)
   19ef4:	0fc12703          	lw	a4,252(sp)
   19ef8:	0a012623          	sw	zero,172(sp)
   19efc:	0ae12e23          	sw	a4,188(sp)
   19f00:	120070ef          	jal	ra,21020 <__eqtf2>
   19f04:	03412783          	lw	a5,52(sp)
   19f08:	44051263          	bnez	a0,1a34c <_svfprintf_r+0x13b8>
   19f0c:	0e812703          	lw	a4,232(sp)
   19f10:	0000b697          	auipc	a3,0xb
   19f14:	8e468693          	addi	a3,a3,-1820 # 247f4 <zeroes.4505+0x50>
   19f18:	00178793          	addi	a5,a5,1
   19f1c:	00dda023          	sw	a3,0(s11)
   19f20:	00170713          	addi	a4,a4,1
   19f24:	00100693          	li	a3,1
   19f28:	00dda223          	sw	a3,4(s11)
   19f2c:	0ef12623          	sw	a5,236(sp)
   19f30:	0ee12423          	sw	a4,232(sp)
   19f34:	00700793          	li	a5,7
   19f38:	008d8d93          	addi	s11,s11,8
   19f3c:	2ee7c0e3          	blt	a5,a4,1aa1c <_svfprintf_r+0x1a88>
   19f40:	0cc12783          	lw	a5,204(sp)
   19f44:	01812703          	lw	a4,24(sp)
   19f48:	00e7ca63          	blt	a5,a4,19f5c <_svfprintf_r+0xfc8>
   19f4c:	0019f793          	andi	a5,s3,1
   19f50:	00079663          	bnez	a5,19f5c <_svfprintf_r+0xfc8>
   19f54:	0ec12783          	lw	a5,236(sp)
   19f58:	a45ff06f          	j	1999c <_svfprintf_r+0xa08>
   19f5c:	03012783          	lw	a5,48(sp)
   19f60:	02812683          	lw	a3,40(sp)
   19f64:	0e812703          	lw	a4,232(sp)
   19f68:	00fda023          	sw	a5,0(s11)
   19f6c:	0ec12783          	lw	a5,236(sp)
   19f70:	00170713          	addi	a4,a4,1
   19f74:	00dda223          	sw	a3,4(s11)
   19f78:	00f687b3          	add	a5,a3,a5
   19f7c:	0ef12623          	sw	a5,236(sp)
   19f80:	0ee12423          	sw	a4,232(sp)
   19f84:	00700693          	li	a3,7
   19f88:	008d8d93          	addi	s11,s11,8
   19f8c:	6ee6c863          	blt	a3,a4,1a67c <_svfprintf_r+0x16e8>
   19f90:	01812703          	lw	a4,24(sp)
   19f94:	fff70413          	addi	s0,a4,-1
   19f98:	a08052e3          	blez	s0,1999c <_svfprintf_r+0xa08>
   19f9c:	0e812703          	lw	a4,232(sp)
   19fa0:	368c56e3          	bge	s8,s0,1ab0c <_svfprintf_r+0x1b78>
   19fa4:	00700b93          	li	s7,7
   19fa8:	00812b03          	lw	s6,8(sp)
   19fac:	00c0006f          	j	19fb8 <_svfprintf_r+0x1024>
   19fb0:	ff040413          	addi	s0,s0,-16
   19fb4:	348c5ce3          	bge	s8,s0,1ab0c <_svfprintf_r+0x1b78>
   19fb8:	01078793          	addi	a5,a5,16
   19fbc:	00170713          	addi	a4,a4,1
   19fc0:	0000b697          	auipc	a3,0xb
   19fc4:	d6c68693          	addi	a3,a3,-660 # 24d2c <zeroes.4490>
   19fc8:	00dda023          	sw	a3,0(s11)
   19fcc:	018da223          	sw	s8,4(s11)
   19fd0:	0ef12623          	sw	a5,236(sp)
   19fd4:	0ee12423          	sw	a4,232(sp)
   19fd8:	008d8d93          	addi	s11,s11,8
   19fdc:	fcebdae3          	bge	s7,a4,19fb0 <_svfprintf_r+0x101c>
   19fe0:	0e410613          	addi	a2,sp,228
   19fe4:	000b0593          	mv	a1,s6
   19fe8:	000a8513          	mv	a0,s5
   19fec:	1ec040ef          	jal	ra,1e1d8 <__ssprint_r>
   19ff0:	9a051c63          	bnez	a0,191a8 <_svfprintf_r+0x214>
   19ff4:	0ec12783          	lw	a5,236(sp)
   19ff8:	0e812703          	lw	a4,232(sp)
   19ffc:	10c10d93          	addi	s11,sp,268
   1a000:	fb1ff06f          	j	19fb0 <_svfprintf_r+0x101c>
   1a004:	41448cb3          	sub	s9,s1,s4
   1a008:	95905ee3          	blez	s9,19964 <_svfprintf_r+0x9d0>
   1a00c:	0e812703          	lw	a4,232(sp)
   1a010:	099c5e63          	bge	s8,s9,1a0ac <_svfprintf_r+0x1118>
   1a014:	000c8693          	mv	a3,s9
   1a018:	02812a23          	sw	s0,52(sp)
   1a01c:	000b8c93          	mv	s9,s7
   1a020:	00700e13          	li	t3,7
   1a024:	000a0b93          	mv	s7,s4
   1a028:	00812403          	lw	s0,8(sp)
   1a02c:	00048a13          	mv	s4,s1
   1a030:	00068493          	mv	s1,a3
   1a034:	00c0006f          	j	1a040 <_svfprintf_r+0x10ac>
   1a038:	ff048493          	addi	s1,s1,-16
   1a03c:	049c5c63          	bge	s8,s1,1a094 <_svfprintf_r+0x1100>
   1a040:	01078793          	addi	a5,a5,16
   1a044:	00170713          	addi	a4,a4,1
   1a048:	0000b697          	auipc	a3,0xb
   1a04c:	ce468693          	addi	a3,a3,-796 # 24d2c <zeroes.4490>
   1a050:	00dda023          	sw	a3,0(s11)
   1a054:	018da223          	sw	s8,4(s11)
   1a058:	0ef12623          	sw	a5,236(sp)
   1a05c:	0ee12423          	sw	a4,232(sp)
   1a060:	008d8d93          	addi	s11,s11,8
   1a064:	fcee5ae3          	bge	t3,a4,1a038 <_svfprintf_r+0x10a4>
   1a068:	0e410613          	addi	a2,sp,228
   1a06c:	00040593          	mv	a1,s0
   1a070:	000a8513          	mv	a0,s5
   1a074:	164040ef          	jal	ra,1e1d8 <__ssprint_r>
   1a078:	92051863          	bnez	a0,191a8 <_svfprintf_r+0x214>
   1a07c:	ff048493          	addi	s1,s1,-16
   1a080:	0ec12783          	lw	a5,236(sp)
   1a084:	0e812703          	lw	a4,232(sp)
   1a088:	10c10d93          	addi	s11,sp,268
   1a08c:	00700e13          	li	t3,7
   1a090:	fa9c48e3          	blt	s8,s1,1a040 <_svfprintf_r+0x10ac>
   1a094:	03412403          	lw	s0,52(sp)
   1a098:	00048693          	mv	a3,s1
   1a09c:	000a0493          	mv	s1,s4
   1a0a0:	000b8a13          	mv	s4,s7
   1a0a4:	000c8b93          	mv	s7,s9
   1a0a8:	00068c93          	mv	s9,a3
   1a0ac:	0000b697          	auipc	a3,0xb
   1a0b0:	c8068693          	addi	a3,a3,-896 # 24d2c <zeroes.4490>
   1a0b4:	019787b3          	add	a5,a5,s9
   1a0b8:	00170713          	addi	a4,a4,1
   1a0bc:	00dda023          	sw	a3,0(s11)
   1a0c0:	019da223          	sw	s9,4(s11)
   1a0c4:	0ef12623          	sw	a5,236(sp)
   1a0c8:	0ee12423          	sw	a4,232(sp)
   1a0cc:	00700693          	li	a3,7
   1a0d0:	008d8d93          	addi	s11,s11,8
   1a0d4:	88e6d8e3          	bge	a3,a4,19964 <_svfprintf_r+0x9d0>
   1a0d8:	00812583          	lw	a1,8(sp)
   1a0dc:	0e410613          	addi	a2,sp,228
   1a0e0:	000a8513          	mv	a0,s5
   1a0e4:	0f4040ef          	jal	ra,1e1d8 <__ssprint_r>
   1a0e8:	8c051063          	bnez	a0,191a8 <_svfprintf_r+0x214>
   1a0ec:	417b0b33          	sub	s6,s6,s7
   1a0f0:	0ec12783          	lw	a5,236(sp)
   1a0f4:	10c10d93          	addi	s11,sp,268
   1a0f8:	87605ae3          	blez	s6,1996c <_svfprintf_r+0x9d8>
   1a0fc:	0e812703          	lw	a4,232(sp)
   1a100:	096c5a63          	bge	s8,s6,1a194 <_svfprintf_r+0x1200>
   1a104:	000a0693          	mv	a3,s4
   1a108:	02812a23          	sw	s0,52(sp)
   1a10c:	00048a13          	mv	s4,s1
   1a110:	00700c93          	li	s9,7
   1a114:	000b0493          	mv	s1,s6
   1a118:	00812403          	lw	s0,8(sp)
   1a11c:	00068b13          	mv	s6,a3
   1a120:	00c0006f          	j	1a12c <_svfprintf_r+0x1198>
   1a124:	ff048493          	addi	s1,s1,-16
   1a128:	049c5c63          	bge	s8,s1,1a180 <_svfprintf_r+0x11ec>
   1a12c:	01078793          	addi	a5,a5,16
   1a130:	00170713          	addi	a4,a4,1
   1a134:	0000b697          	auipc	a3,0xb
   1a138:	bf868693          	addi	a3,a3,-1032 # 24d2c <zeroes.4490>
   1a13c:	00dda023          	sw	a3,0(s11)
   1a140:	018da223          	sw	s8,4(s11)
   1a144:	0ef12623          	sw	a5,236(sp)
   1a148:	0ee12423          	sw	a4,232(sp)
   1a14c:	008d8d93          	addi	s11,s11,8
   1a150:	fcecdae3          	bge	s9,a4,1a124 <_svfprintf_r+0x1190>
   1a154:	0e410613          	addi	a2,sp,228
   1a158:	00040593          	mv	a1,s0
   1a15c:	000a8513          	mv	a0,s5
   1a160:	078040ef          	jal	ra,1e1d8 <__ssprint_r>
   1a164:	00050463          	beqz	a0,1a16c <_svfprintf_r+0x11d8>
   1a168:	840ff06f          	j	191a8 <_svfprintf_r+0x214>
   1a16c:	ff048493          	addi	s1,s1,-16
   1a170:	0ec12783          	lw	a5,236(sp)
   1a174:	0e812703          	lw	a4,232(sp)
   1a178:	10c10d93          	addi	s11,sp,268
   1a17c:	fa9c48e3          	blt	s8,s1,1a12c <_svfprintf_r+0x1198>
   1a180:	03412403          	lw	s0,52(sp)
   1a184:	000b0693          	mv	a3,s6
   1a188:	00048b13          	mv	s6,s1
   1a18c:	000a0493          	mv	s1,s4
   1a190:	00068a13          	mv	s4,a3
   1a194:	0000b697          	auipc	a3,0xb
   1a198:	b9868693          	addi	a3,a3,-1128 # 24d2c <zeroes.4490>
   1a19c:	016787b3          	add	a5,a5,s6
   1a1a0:	00170713          	addi	a4,a4,1
   1a1a4:	00dda023          	sw	a3,0(s11)
   1a1a8:	016da223          	sw	s6,4(s11)
   1a1ac:	0ef12623          	sw	a5,236(sp)
   1a1b0:	0ee12423          	sw	a4,232(sp)
   1a1b4:	00700693          	li	a3,7
   1a1b8:	008d8d93          	addi	s11,s11,8
   1a1bc:	fae6d863          	bge	a3,a4,1996c <_svfprintf_r+0x9d8>
   1a1c0:	00812583          	lw	a1,8(sp)
   1a1c4:	0e410613          	addi	a2,sp,228
   1a1c8:	000a8513          	mv	a0,s5
   1a1cc:	00c040ef          	jal	ra,1e1d8 <__ssprint_r>
   1a1d0:	00050463          	beqz	a0,1a1d8 <_svfprintf_r+0x1244>
   1a1d4:	fd5fe06f          	j	191a8 <_svfprintf_r+0x214>
   1a1d8:	0ec12783          	lw	a5,236(sp)
   1a1dc:	10c10d93          	addi	s11,sp,268
   1a1e0:	f8cff06f          	j	1996c <_svfprintf_r+0x9d8>
   1a1e4:	00098a13          	mv	s4,s3
   1a1e8:	a7dff06f          	j	19c64 <_svfprintf_r+0xcd0>
   1a1ec:	0e812703          	lw	a4,232(sp)
   1a1f0:	0000bc97          	auipc	s9,0xb
   1a1f4:	b2cc8c93          	addi	s9,s9,-1236 # 24d1c <blanks.4489>
   1a1f8:	0cdc5863          	bge	s8,a3,1a2c8 <_svfprintf_r+0x1334>
   1a1fc:	05212623          	sw	s2,76(sp)
   1a200:	000d8613          	mv	a2,s11
   1a204:	000c8913          	mv	s2,s9
   1a208:	000d0d93          	mv	s11,s10
   1a20c:	000a0c93          	mv	s9,s4
   1a210:	000b8d13          	mv	s10,s7
   1a214:	00098a13          	mv	s4,s3
   1a218:	000b0b93          	mv	s7,s6
   1a21c:	00040993          	mv	s3,s0
   1a220:	00048b13          	mv	s6,s1
   1a224:	00700f93          	li	t6,7
   1a228:	03e12a23          	sw	t5,52(sp)
   1a22c:	05d12423          	sw	t4,72(sp)
   1a230:	00812483          	lw	s1,8(sp)
   1a234:	00068413          	mv	s0,a3
   1a238:	00c0006f          	j	1a244 <_svfprintf_r+0x12b0>
   1a23c:	ff040413          	addi	s0,s0,-16
   1a240:	048c5a63          	bge	s8,s0,1a294 <_svfprintf_r+0x1300>
   1a244:	01078793          	addi	a5,a5,16
   1a248:	00170713          	addi	a4,a4,1
   1a24c:	01262023          	sw	s2,0(a2)
   1a250:	01862223          	sw	s8,4(a2)
   1a254:	0ef12623          	sw	a5,236(sp)
   1a258:	0ee12423          	sw	a4,232(sp)
   1a25c:	00860613          	addi	a2,a2,8
   1a260:	fcefdee3          	bge	t6,a4,1a23c <_svfprintf_r+0x12a8>
   1a264:	0e410613          	addi	a2,sp,228
   1a268:	00048593          	mv	a1,s1
   1a26c:	000a8513          	mv	a0,s5
   1a270:	769030ef          	jal	ra,1e1d8 <__ssprint_r>
   1a274:	00050463          	beqz	a0,1a27c <_svfprintf_r+0x12e8>
   1a278:	f31fe06f          	j	191a8 <_svfprintf_r+0x214>
   1a27c:	ff040413          	addi	s0,s0,-16
   1a280:	0ec12783          	lw	a5,236(sp)
   1a284:	0e812703          	lw	a4,232(sp)
   1a288:	10c10613          	addi	a2,sp,268
   1a28c:	00700f93          	li	t6,7
   1a290:	fa8c4ae3          	blt	s8,s0,1a244 <_svfprintf_r+0x12b0>
   1a294:	00040693          	mv	a3,s0
   1a298:	03412f03          	lw	t5,52(sp)
   1a29c:	00098413          	mv	s0,s3
   1a2a0:	04812e83          	lw	t4,72(sp)
   1a2a4:	000a0993          	mv	s3,s4
   1a2a8:	000c8a13          	mv	s4,s9
   1a2ac:	00090c93          	mv	s9,s2
   1a2b0:	04c12903          	lw	s2,76(sp)
   1a2b4:	000b0493          	mv	s1,s6
   1a2b8:	000b8b13          	mv	s6,s7
   1a2bc:	000d0b93          	mv	s7,s10
   1a2c0:	000d8d13          	mv	s10,s11
   1a2c4:	00060d93          	mv	s11,a2
   1a2c8:	00d787b3          	add	a5,a5,a3
   1a2cc:	00170713          	addi	a4,a4,1
   1a2d0:	00dda223          	sw	a3,4(s11)
   1a2d4:	019da023          	sw	s9,0(s11)
   1a2d8:	0ef12623          	sw	a5,236(sp)
   1a2dc:	0ee12423          	sw	a4,232(sp)
   1a2e0:	00700693          	li	a3,7
   1a2e4:	008d8d93          	addi	s11,s11,8
   1a2e8:	e0e6d463          	bge	a3,a4,198f0 <_svfprintf_r+0x95c>
   1a2ec:	00812583          	lw	a1,8(sp)
   1a2f0:	0e410613          	addi	a2,sp,228
   1a2f4:	000a8513          	mv	a0,s5
   1a2f8:	05d12423          	sw	t4,72(sp)
   1a2fc:	03e12a23          	sw	t5,52(sp)
   1a300:	6d9030ef          	jal	ra,1e1d8 <__ssprint_r>
   1a304:	00050463          	beqz	a0,1a30c <_svfprintf_r+0x1378>
   1a308:	ea1fe06f          	j	191a8 <_svfprintf_r+0x214>
   1a30c:	0ec12783          	lw	a5,236(sp)
   1a310:	10c10d93          	addi	s11,sp,268
   1a314:	04812e83          	lw	t4,72(sp)
   1a318:	03412f03          	lw	t5,52(sp)
   1a31c:	dd4ff06f          	j	198f0 <_svfprintf_r+0x95c>
   1a320:	00812583          	lw	a1,8(sp)
   1a324:	0e410613          	addi	a2,sp,228
   1a328:	000a8513          	mv	a0,s5
   1a32c:	03d12a23          	sw	t4,52(sp)
   1a330:	6a9030ef          	jal	ra,1e1d8 <__ssprint_r>
   1a334:	00050463          	beqz	a0,1a33c <_svfprintf_r+0x13a8>
   1a338:	e71fe06f          	j	191a8 <_svfprintf_r+0x214>
   1a33c:	0ec12783          	lw	a5,236(sp)
   1a340:	10c10d93          	addi	s11,sp,268
   1a344:	03412e83          	lw	t4,52(sp)
   1a348:	e14ff06f          	j	1995c <_svfprintf_r+0x9c8>
   1a34c:	0cc12683          	lw	a3,204(sp)
   1a350:	5ed05c63          	blez	a3,1a948 <_svfprintf_r+0x19b4>
   1a354:	01812703          	lw	a4,24(sp)
   1a358:	01412683          	lw	a3,20(sp)
   1a35c:	00070413          	mv	s0,a4
   1a360:	30e6c863          	blt	a3,a4,1a670 <_svfprintf_r+0x16dc>
   1a364:	02805663          	blez	s0,1a390 <_svfprintf_r+0x13fc>
   1a368:	0e812703          	lw	a4,232(sp)
   1a36c:	008787b3          	add	a5,a5,s0
   1a370:	01ada023          	sw	s10,0(s11)
   1a374:	00170713          	addi	a4,a4,1
   1a378:	008da223          	sw	s0,4(s11)
   1a37c:	0ef12623          	sw	a5,236(sp)
   1a380:	0ee12423          	sw	a4,232(sp)
   1a384:	00700693          	li	a3,7
   1a388:	008d8d93          	addi	s11,s11,8
   1a38c:	24e6c4e3          	blt	a3,a4,1add4 <_svfprintf_r+0x1e40>
   1a390:	fff44713          	not	a4,s0
   1a394:	41f75713          	srai	a4,a4,0x1f
   1a398:	00e47433          	and	s0,s0,a4
   1a39c:	01412703          	lw	a4,20(sp)
   1a3a0:	40870433          	sub	s0,a4,s0
   1a3a4:	36804663          	bgtz	s0,1a710 <_svfprintf_r+0x177c>
   1a3a8:	01412683          	lw	a3,20(sp)
   1a3ac:	4009f713          	andi	a4,s3,1024
   1a3b0:	00dd0b33          	add	s6,s10,a3
   1a3b4:	3c071463          	bnez	a4,1a77c <_svfprintf_r+0x17e8>
   1a3b8:	0cc12403          	lw	s0,204(sp)
   1a3bc:	01812703          	lw	a4,24(sp)
   1a3c0:	00e44663          	blt	s0,a4,1a3cc <_svfprintf_r+0x1438>
   1a3c4:	0019f713          	andi	a4,s3,1
   1a3c8:	22070ce3          	beqz	a4,1ae00 <_svfprintf_r+0x1e6c>
   1a3cc:	03012703          	lw	a4,48(sp)
   1a3d0:	02812683          	lw	a3,40(sp)
   1a3d4:	008d8d93          	addi	s11,s11,8
   1a3d8:	feedac23          	sw	a4,-8(s11)
   1a3dc:	0e812703          	lw	a4,232(sp)
   1a3e0:	00d787b3          	add	a5,a5,a3
   1a3e4:	feddae23          	sw	a3,-4(s11)
   1a3e8:	00170713          	addi	a4,a4,1
   1a3ec:	0ef12623          	sw	a5,236(sp)
   1a3f0:	0ee12423          	sw	a4,232(sp)
   1a3f4:	00700693          	li	a3,7
   1a3f8:	4ee6c4e3          	blt	a3,a4,1b0e0 <_svfprintf_r+0x214c>
   1a3fc:	01812683          	lw	a3,24(sp)
   1a400:	00dd0733          	add	a4,s10,a3
   1a404:	40868433          	sub	s0,a3,s0
   1a408:	41670733          	sub	a4,a4,s6
   1a40c:	00040b93          	mv	s7,s0
   1a410:	00875463          	bge	a4,s0,1a418 <_svfprintf_r+0x1484>
   1a414:	00070b93          	mv	s7,a4
   1a418:	03705663          	blez	s7,1a444 <_svfprintf_r+0x14b0>
   1a41c:	0e812703          	lw	a4,232(sp)
   1a420:	017787b3          	add	a5,a5,s7
   1a424:	016da023          	sw	s6,0(s11)
   1a428:	00170713          	addi	a4,a4,1
   1a42c:	017da223          	sw	s7,4(s11)
   1a430:	0ef12623          	sw	a5,236(sp)
   1a434:	0ee12423          	sw	a4,232(sp)
   1a438:	00700693          	li	a3,7
   1a43c:	008d8d93          	addi	s11,s11,8
   1a440:	4ee6cae3          	blt	a3,a4,1b134 <_svfprintf_r+0x21a0>
   1a444:	fffbc713          	not	a4,s7
   1a448:	41f75713          	srai	a4,a4,0x1f
   1a44c:	00ebfbb3          	and	s7,s7,a4
   1a450:	41740433          	sub	s0,s0,s7
   1a454:	d4805463          	blez	s0,1999c <_svfprintf_r+0xa08>
   1a458:	0e812703          	lw	a4,232(sp)
   1a45c:	6a8c5863          	bge	s8,s0,1ab0c <_svfprintf_r+0x1b78>
   1a460:	00700b93          	li	s7,7
   1a464:	00812b03          	lw	s6,8(sp)
   1a468:	00c0006f          	j	1a474 <_svfprintf_r+0x14e0>
   1a46c:	ff040413          	addi	s0,s0,-16
   1a470:	688c5e63          	bge	s8,s0,1ab0c <_svfprintf_r+0x1b78>
   1a474:	01078793          	addi	a5,a5,16
   1a478:	00170713          	addi	a4,a4,1
   1a47c:	0000b697          	auipc	a3,0xb
   1a480:	8b068693          	addi	a3,a3,-1872 # 24d2c <zeroes.4490>
   1a484:	00dda023          	sw	a3,0(s11)
   1a488:	018da223          	sw	s8,4(s11)
   1a48c:	0ef12623          	sw	a5,236(sp)
   1a490:	0ee12423          	sw	a4,232(sp)
   1a494:	008d8d93          	addi	s11,s11,8
   1a498:	fcebdae3          	bge	s7,a4,1a46c <_svfprintf_r+0x14d8>
   1a49c:	0e410613          	addi	a2,sp,228
   1a4a0:	000b0593          	mv	a1,s6
   1a4a4:	000a8513          	mv	a0,s5
   1a4a8:	531030ef          	jal	ra,1e1d8 <__ssprint_r>
   1a4ac:	00050463          	beqz	a0,1a4b4 <_svfprintf_r+0x1520>
   1a4b0:	cf9fe06f          	j	191a8 <_svfprintf_r+0x214>
   1a4b4:	0ec12783          	lw	a5,236(sp)
   1a4b8:	0e812703          	lw	a4,232(sp)
   1a4bc:	10c10d93          	addi	s11,sp,268
   1a4c0:	fadff06f          	j	1a46c <_svfprintf_r+0x14d8>
   1a4c4:	0019f613          	andi	a2,s3,1
   1a4c8:	d6061863          	bnez	a2,19a38 <_svfprintf_r+0xaa4>
   1a4cc:	00eda223          	sw	a4,4(s11)
   1a4d0:	0f912623          	sw	s9,236(sp)
   1a4d4:	0e812423          	sw	s0,232(sp)
   1a4d8:	00700713          	li	a4,7
   1a4dc:	40874c63          	blt	a4,s0,1a8f4 <_svfprintf_r+0x1960>
   1a4e0:	00268b13          	addi	s6,a3,2
   1a4e4:	010d8d93          	addi	s11,s11,16
   1a4e8:	e28ff06f          	j	19b10 <_svfprintf_r+0xb7c>
   1a4ec:	e2e05263          	blez	a4,19b10 <_svfprintf_r+0xb7c>
   1a4f0:	00ec4463          	blt	s8,a4,1a4f8 <_svfprintf_r+0x1564>
   1a4f4:	4840106f          	j	1b978 <_svfprintf_r+0x29e4>
   1a4f8:	00700b13          	li	s6,7
   1a4fc:	00070d93          	mv	s11,a4
   1a500:	00812d03          	lw	s10,8(sp)
   1a504:	00060413          	mv	s0,a2
   1a508:	0100006f          	j	1a518 <_svfprintf_r+0x1584>
   1a50c:	ff0d8d93          	addi	s11,s11,-16
   1a510:	7bbc5263          	bge	s8,s11,1acb4 <_svfprintf_r+0x1d20>
   1a514:	00140413          	addi	s0,s0,1
   1a518:	010c8c93          	addi	s9,s9,16
   1a51c:	0000b797          	auipc	a5,0xb
   1a520:	81078793          	addi	a5,a5,-2032 # 24d2c <zeroes.4490>
   1a524:	00fba023          	sw	a5,0(s7)
   1a528:	018ba223          	sw	s8,4(s7)
   1a52c:	0f912623          	sw	s9,236(sp)
   1a530:	0e812423          	sw	s0,232(sp)
   1a534:	008b8b93          	addi	s7,s7,8
   1a538:	fc8b5ae3          	bge	s6,s0,1a50c <_svfprintf_r+0x1578>
   1a53c:	0e410613          	addi	a2,sp,228
   1a540:	000d0593          	mv	a1,s10
   1a544:	000a8513          	mv	a0,s5
   1a548:	491030ef          	jal	ra,1e1d8 <__ssprint_r>
   1a54c:	00050463          	beqz	a0,1a554 <_svfprintf_r+0x15c0>
   1a550:	c59fe06f          	j	191a8 <_svfprintf_r+0x214>
   1a554:	0ec12c83          	lw	s9,236(sp)
   1a558:	0e812403          	lw	s0,232(sp)
   1a55c:	10c10b93          	addi	s7,sp,268
   1a560:	fadff06f          	j	1a50c <_svfprintf_r+0x1578>
   1a564:	000d0493          	mv	s1,s10
   1a568:	b6dfe06f          	j	190d4 <_svfprintf_r+0x140>
   1a56c:	00812583          	lw	a1,8(sp)
   1a570:	0e410613          	addi	a2,sp,228
   1a574:	000a8513          	mv	a0,s5
   1a578:	461030ef          	jal	ra,1e1d8 <__ssprint_r>
   1a57c:	00050463          	beqz	a0,1a584 <_svfprintf_r+0x15f0>
   1a580:	c29fe06f          	j	191a8 <_svfprintf_r+0x214>
   1a584:	0ec12c83          	lw	s9,236(sp)
   1a588:	0e812403          	lw	s0,232(sp)
   1a58c:	10c10b93          	addi	s7,sp,268
   1a590:	cc0ff06f          	j	19a50 <_svfprintf_r+0xabc>
   1a594:	00812583          	lw	a1,8(sp)
   1a598:	0e410613          	addi	a2,sp,228
   1a59c:	000a8513          	mv	a0,s5
   1a5a0:	439030ef          	jal	ra,1e1d8 <__ssprint_r>
   1a5a4:	00050463          	beqz	a0,1a5ac <_svfprintf_r+0x1618>
   1a5a8:	c01fe06f          	j	191a8 <_svfprintf_r+0x214>
   1a5ac:	0ec12c83          	lw	s9,236(sp)
   1a5b0:	0e812403          	lw	s0,232(sp)
   1a5b4:	10c10b93          	addi	s7,sp,268
   1a5b8:	cc4ff06f          	j	19a7c <_svfprintf_r+0xae8>
   1a5bc:	03000793          	li	a5,48
   1a5c0:	1af107a3          	sb	a5,431(sp)
   1a5c4:	1af10d13          	addi	s10,sp,431
   1a5c8:	cc5fe06f          	j	1928c <_svfprintf_r+0x2f8>
   1a5cc:	2009f793          	andi	a5,s3,512
   1a5d0:	0a0792e3          	bnez	a5,1ae74 <_svfprintf_r+0x1ee0>
   1a5d4:	00000b93          	li	s7,0
   1a5d8:	c69fe06f          	j	19240 <_svfprintf_r+0x2ac>
   1a5dc:	00412603          	lw	a2,4(sp)
   1a5e0:	0006a783          	lw	a5,0(a3)
   1a5e4:	00e12823          	sw	a4,16(sp)
   1a5e8:	41f65693          	srai	a3,a2,0x1f
   1a5ec:	00c7a023          	sw	a2,0(a5)
   1a5f0:	00d7a223          	sw	a3,4(a5)
   1a5f4:	00090d13          	mv	s10,s2
   1a5f8:	df1fe06f          	j	193e8 <_svfprintf_r+0x454>
   1a5fc:	03000713          	li	a4,48
   1a600:	0029e993          	ori	s3,s3,2
   1a604:	0ce10423          	sb	a4,200(sp)
   1a608:	0c8104a3          	sb	s0,201(sp)
   1a60c:	bff9fa13          	andi	s4,s3,-1025
   1a610:	00200713          	li	a4,2
   1a614:	c49fe06f          	j	1925c <_svfprintf_r+0x2c8>
   1a618:	03c12783          	lw	a5,60(sp)
   1a61c:	00094403          	lbu	s0,0(s2)
   1a620:	00079463          	bnez	a5,1a628 <_svfprintf_r+0x1694>
   1a624:	ad1fe06f          	j	190f4 <_svfprintf_r+0x160>
   1a628:	0007c783          	lbu	a5,0(a5)
   1a62c:	00079463          	bnez	a5,1a634 <_svfprintf_r+0x16a0>
   1a630:	ac5fe06f          	j	190f4 <_svfprintf_r+0x160>
   1a634:	4009e993          	ori	s3,s3,1024
   1a638:	abdfe06f          	j	190f4 <_svfprintf_r+0x160>
   1a63c:	01012703          	lw	a4,16(sp)
   1a640:	00072783          	lw	a5,0(a4)
   1a644:	00470713          	addi	a4,a4,4
   1a648:	00e12823          	sw	a4,16(sp)
   1a64c:	0007a603          	lw	a2,0(a5)
   1a650:	0047a683          	lw	a3,4(a5)
   1a654:	0087a703          	lw	a4,8(a5)
   1a658:	00c7a783          	lw	a5,12(a5)
   1a65c:	0ec12823          	sw	a2,240(sp)
   1a660:	0ed12a23          	sw	a3,244(sp)
   1a664:	0ee12c23          	sw	a4,248(sp)
   1a668:	0ef12e23          	sw	a5,252(sp)
   1a66c:	e65fe06f          	j	194d0 <_svfprintf_r+0x53c>
   1a670:	00068413          	mv	s0,a3
   1a674:	ce804ae3          	bgtz	s0,1a368 <_svfprintf_r+0x13d4>
   1a678:	d19ff06f          	j	1a390 <_svfprintf_r+0x13fc>
   1a67c:	00812583          	lw	a1,8(sp)
   1a680:	0e410613          	addi	a2,sp,228
   1a684:	000a8513          	mv	a0,s5
   1a688:	351030ef          	jal	ra,1e1d8 <__ssprint_r>
   1a68c:	00050463          	beqz	a0,1a694 <_svfprintf_r+0x1700>
   1a690:	b19fe06f          	j	191a8 <_svfprintf_r+0x214>
   1a694:	0ec12783          	lw	a5,236(sp)
   1a698:	10c10d93          	addi	s11,sp,268
   1a69c:	8f5ff06f          	j	19f90 <_svfprintf_r+0xffc>
   1a6a0:	00194403          	lbu	s0,1(s2)
   1a6a4:	2009e993          	ori	s3,s3,512
   1a6a8:	00190913          	addi	s2,s2,1
   1a6ac:	a49fe06f          	j	190f4 <_svfprintf_r+0x160>
   1a6b0:	00194403          	lbu	s0,1(s2)
   1a6b4:	0209e993          	ori	s3,s3,32
   1a6b8:	00190913          	addi	s2,s2,1
   1a6bc:	a39fe06f          	j	190f4 <_svfprintf_r+0x160>
   1a6c0:	02412503          	lw	a0,36(sp)
   1a6c4:	04000593          	li	a1,64
   1a6c8:	fecfc0ef          	jal	ra,16eb4 <_malloc_r>
   1a6cc:	00812783          	lw	a5,8(sp)
   1a6d0:	00a7a023          	sw	a0,0(a5)
   1a6d4:	00a7a823          	sw	a0,16(a5)
   1a6d8:	00051463          	bnez	a0,1a6e0 <_svfprintf_r+0x174c>
   1a6dc:	3180106f          	j	1b9f4 <_svfprintf_r+0x2a60>
   1a6e0:	00812703          	lw	a4,8(sp)
   1a6e4:	04000793          	li	a5,64
   1a6e8:	00f72a23          	sw	a5,20(a4)
   1a6ec:	935fe06f          	j	19020 <_svfprintf_r+0x8c>
   1a6f0:	00600793          	li	a5,6
   1a6f4:	000b0b93          	mv	s7,s6
   1a6f8:	7167e063          	bltu	a5,s6,1adf8 <_svfprintf_r+0x1e64>
   1a6fc:	000b8a13          	mv	s4,s7
   1a700:	01912823          	sw	s9,16(sp)
   1a704:	0000ad17          	auipc	s10,0xa
   1a708:	0e8d0d13          	addi	s10,s10,232 # 247ec <zeroes.4505+0x48>
   1a70c:	9b0ff06f          	j	198bc <_svfprintf_r+0x928>
   1a710:	0e812703          	lw	a4,232(sp)
   1a714:	668c5263          	bge	s8,s0,1ad78 <_svfprintf_r+0x1de4>
   1a718:	00700b93          	li	s7,7
   1a71c:	00812b03          	lw	s6,8(sp)
   1a720:	00c0006f          	j	1a72c <_svfprintf_r+0x1798>
   1a724:	ff040413          	addi	s0,s0,-16
   1a728:	648c5863          	bge	s8,s0,1ad78 <_svfprintf_r+0x1de4>
   1a72c:	01078793          	addi	a5,a5,16
   1a730:	00170713          	addi	a4,a4,1
   1a734:	0000a697          	auipc	a3,0xa
   1a738:	5f868693          	addi	a3,a3,1528 # 24d2c <zeroes.4490>
   1a73c:	00dda023          	sw	a3,0(s11)
   1a740:	018da223          	sw	s8,4(s11)
   1a744:	0ef12623          	sw	a5,236(sp)
   1a748:	0ee12423          	sw	a4,232(sp)
   1a74c:	008d8d93          	addi	s11,s11,8
   1a750:	fcebdae3          	bge	s7,a4,1a724 <_svfprintf_r+0x1790>
   1a754:	0e410613          	addi	a2,sp,228
   1a758:	000b0593          	mv	a1,s6
   1a75c:	000a8513          	mv	a0,s5
   1a760:	279030ef          	jal	ra,1e1d8 <__ssprint_r>
   1a764:	00050463          	beqz	a0,1a76c <_svfprintf_r+0x17d8>
   1a768:	a41fe06f          	j	191a8 <_svfprintf_r+0x214>
   1a76c:	0ec12783          	lw	a5,236(sp)
   1a770:	0e812703          	lw	a4,232(sp)
   1a774:	10c10d93          	addi	s11,sp,268
   1a778:	fadff06f          	j	1a724 <_svfprintf_r+0x1790>
   1a77c:	01812703          	lw	a4,24(sp)
   1a780:	01c12b83          	lw	s7,28(sp)
   1a784:	01212a23          	sw	s2,20(sp)
   1a788:	00ed0433          	add	s0,s10,a4
   1a78c:	03312a23          	sw	s3,52(sp)
   1a790:	04912423          	sw	s1,72(sp)
   1a794:	02012903          	lw	s2,32(sp)
   1a798:	01412e23          	sw	s4,28(sp)
   1a79c:	03a12023          	sw	s10,32(sp)
   1a7a0:	00700c93          	li	s9,7
   1a7a4:	00040d13          	mv	s10,s0
   1a7a8:	04012983          	lw	s3,64(sp)
   1a7ac:	03c12483          	lw	s1,60(sp)
   1a7b0:	000d8693          	mv	a3,s11
   1a7b4:	00812a03          	lw	s4,8(sp)
   1a7b8:	04412403          	lw	s0,68(sp)
   1a7bc:	080b8863          	beqz	s7,1a84c <_svfprintf_r+0x18b8>
   1a7c0:	08091863          	bnez	s2,1a850 <_svfprintf_r+0x18bc>
   1a7c4:	fff48493          	addi	s1,s1,-1
   1a7c8:	fffb8b93          	addi	s7,s7,-1
   1a7cc:	0e812703          	lw	a4,232(sp)
   1a7d0:	013787b3          	add	a5,a5,s3
   1a7d4:	0086a023          	sw	s0,0(a3)
   1a7d8:	00170713          	addi	a4,a4,1
   1a7dc:	0136a223          	sw	s3,4(a3)
   1a7e0:	0ef12623          	sw	a5,236(sp)
   1a7e4:	0ee12423          	sw	a4,232(sp)
   1a7e8:	00868693          	addi	a3,a3,8
   1a7ec:	12eccc63          	blt	s9,a4,1a924 <_svfprintf_r+0x1990>
   1a7f0:	0004c603          	lbu	a2,0(s1)
   1a7f4:	416d05b3          	sub	a1,s10,s6
   1a7f8:	00060d93          	mv	s11,a2
   1a7fc:	00c5d463          	bge	a1,a2,1a804 <_svfprintf_r+0x1870>
   1a800:	00058d93          	mv	s11,a1
   1a804:	03b05663          	blez	s11,1a830 <_svfprintf_r+0x189c>
   1a808:	0e812603          	lw	a2,232(sp)
   1a80c:	01b787b3          	add	a5,a5,s11
   1a810:	0166a023          	sw	s6,0(a3)
   1a814:	00160613          	addi	a2,a2,1
   1a818:	01b6a223          	sw	s11,4(a3)
   1a81c:	0ef12623          	sw	a5,236(sp)
   1a820:	0ec12423          	sw	a2,232(sp)
   1a824:	30cccc63          	blt	s9,a2,1ab3c <_svfprintf_r+0x1ba8>
   1a828:	0004c603          	lbu	a2,0(s1)
   1a82c:	00868693          	addi	a3,a3,8
   1a830:	fffdc593          	not	a1,s11
   1a834:	41f5d593          	srai	a1,a1,0x1f
   1a838:	00bdf733          	and	a4,s11,a1
   1a83c:	40e60db3          	sub	s11,a2,a4
   1a840:	01b04c63          	bgtz	s11,1a858 <_svfprintf_r+0x18c4>
   1a844:	00cb0b33          	add	s6,s6,a2
   1a848:	f60b9ce3          	bnez	s7,1a7c0 <_svfprintf_r+0x182c>
   1a84c:	68090063          	beqz	s2,1aecc <_svfprintf_r+0x1f38>
   1a850:	fff90913          	addi	s2,s2,-1
   1a854:	f79ff06f          	j	1a7cc <_svfprintf_r+0x1838>
   1a858:	0e812603          	lw	a2,232(sp)
   1a85c:	01bc4863          	blt	s8,s11,1a86c <_svfprintf_r+0x18d8>
   1a860:	0600006f          	j	1a8c0 <_svfprintf_r+0x192c>
   1a864:	ff0d8d93          	addi	s11,s11,-16
   1a868:	05bc5c63          	bge	s8,s11,1a8c0 <_svfprintf_r+0x192c>
   1a86c:	01078793          	addi	a5,a5,16
   1a870:	00160613          	addi	a2,a2,1
   1a874:	0000a717          	auipc	a4,0xa
   1a878:	4b870713          	addi	a4,a4,1208 # 24d2c <zeroes.4490>
   1a87c:	00e6a023          	sw	a4,0(a3)
   1a880:	0186a223          	sw	s8,4(a3)
   1a884:	0ef12623          	sw	a5,236(sp)
   1a888:	0ec12423          	sw	a2,232(sp)
   1a88c:	00868693          	addi	a3,a3,8
   1a890:	fcccdae3          	bge	s9,a2,1a864 <_svfprintf_r+0x18d0>
   1a894:	0e410613          	addi	a2,sp,228
   1a898:	000a0593          	mv	a1,s4
   1a89c:	000a8513          	mv	a0,s5
   1a8a0:	139030ef          	jal	ra,1e1d8 <__ssprint_r>
   1a8a4:	00050463          	beqz	a0,1a8ac <_svfprintf_r+0x1918>
   1a8a8:	901fe06f          	j	191a8 <_svfprintf_r+0x214>
   1a8ac:	ff0d8d93          	addi	s11,s11,-16
   1a8b0:	0ec12783          	lw	a5,236(sp)
   1a8b4:	0e812603          	lw	a2,232(sp)
   1a8b8:	10c10693          	addi	a3,sp,268
   1a8bc:	fbbc48e3          	blt	s8,s11,1a86c <_svfprintf_r+0x18d8>
   1a8c0:	01b787b3          	add	a5,a5,s11
   1a8c4:	00160613          	addi	a2,a2,1
   1a8c8:	0000a717          	auipc	a4,0xa
   1a8cc:	46470713          	addi	a4,a4,1124 # 24d2c <zeroes.4490>
   1a8d0:	00e6a023          	sw	a4,0(a3)
   1a8d4:	01b6a223          	sw	s11,4(a3)
   1a8d8:	0ef12623          	sw	a5,236(sp)
   1a8dc:	0ec12423          	sw	a2,232(sp)
   1a8e0:	6accc263          	blt	s9,a2,1af84 <_svfprintf_r+0x1ff0>
   1a8e4:	0004c603          	lbu	a2,0(s1)
   1a8e8:	00868693          	addi	a3,a3,8
   1a8ec:	00cb0b33          	add	s6,s6,a2
   1a8f0:	f59ff06f          	j	1a848 <_svfprintf_r+0x18b4>
   1a8f4:	00812583          	lw	a1,8(sp)
   1a8f8:	0e410613          	addi	a2,sp,228
   1a8fc:	000a8513          	mv	a0,s5
   1a900:	0d9030ef          	jal	ra,1e1d8 <__ssprint_r>
   1a904:	00050463          	beqz	a0,1a90c <_svfprintf_r+0x1978>
   1a908:	8a1fe06f          	j	191a8 <_svfprintf_r+0x214>
   1a90c:	0e812683          	lw	a3,232(sp)
   1a910:	0ec12c83          	lw	s9,236(sp)
   1a914:	11410d93          	addi	s11,sp,276
   1a918:	00168b13          	addi	s6,a3,1
   1a91c:	10c10b93          	addi	s7,sp,268
   1a920:	9f0ff06f          	j	19b10 <_svfprintf_r+0xb7c>
   1a924:	0e410613          	addi	a2,sp,228
   1a928:	000a0593          	mv	a1,s4
   1a92c:	000a8513          	mv	a0,s5
   1a930:	0a9030ef          	jal	ra,1e1d8 <__ssprint_r>
   1a934:	00050463          	beqz	a0,1a93c <_svfprintf_r+0x19a8>
   1a938:	871fe06f          	j	191a8 <_svfprintf_r+0x214>
   1a93c:	0ec12783          	lw	a5,236(sp)
   1a940:	10c10693          	addi	a3,sp,268
   1a944:	eadff06f          	j	1a7f0 <_svfprintf_r+0x185c>
   1a948:	0e812703          	lw	a4,232(sp)
   1a94c:	0000a617          	auipc	a2,0xa
   1a950:	ea860613          	addi	a2,a2,-344 # 247f4 <zeroes.4505+0x50>
   1a954:	00cda023          	sw	a2,0(s11)
   1a958:	00178793          	addi	a5,a5,1
   1a95c:	00100613          	li	a2,1
   1a960:	00170713          	addi	a4,a4,1
   1a964:	00cda223          	sw	a2,4(s11)
   1a968:	0ef12623          	sw	a5,236(sp)
   1a96c:	0ee12423          	sw	a4,232(sp)
   1a970:	00700613          	li	a2,7
   1a974:	008d8d93          	addi	s11,s11,8
   1a978:	06e64e63          	blt	a2,a4,1a9f4 <_svfprintf_r+0x1a60>
   1a97c:	28069a63          	bnez	a3,1ac10 <_svfprintf_r+0x1c7c>
   1a980:	01812683          	lw	a3,24(sp)
   1a984:	0019f713          	andi	a4,s3,1
   1a988:	00d76733          	or	a4,a4,a3
   1a98c:	00071463          	bnez	a4,1a994 <_svfprintf_r+0x1a00>
   1a990:	80cff06f          	j	1999c <_svfprintf_r+0xa08>
   1a994:	03012703          	lw	a4,48(sp)
   1a998:	02812683          	lw	a3,40(sp)
   1a99c:	008d8893          	addi	a7,s11,8
   1a9a0:	00eda023          	sw	a4,0(s11)
   1a9a4:	0e812703          	lw	a4,232(sp)
   1a9a8:	00f687b3          	add	a5,a3,a5
   1a9ac:	00dda223          	sw	a3,4(s11)
   1a9b0:	00170713          	addi	a4,a4,1
   1a9b4:	0ef12623          	sw	a5,236(sp)
   1a9b8:	0ee12423          	sw	a4,232(sp)
   1a9bc:	00700693          	li	a3,7
   1a9c0:	4ce6c663          	blt	a3,a4,1ae8c <_svfprintf_r+0x1ef8>
   1a9c4:	01812683          	lw	a3,24(sp)
   1a9c8:	00170713          	addi	a4,a4,1
   1a9cc:	01a8a023          	sw	s10,0(a7)
   1a9d0:	00f687b3          	add	a5,a3,a5
   1a9d4:	00d8a223          	sw	a3,4(a7)
   1a9d8:	0ef12623          	sw	a5,236(sp)
   1a9dc:	0ee12423          	sw	a4,232(sp)
   1a9e0:	00700693          	li	a3,7
   1a9e4:	00888d93          	addi	s11,a7,8
   1a9e8:	00e6c463          	blt	a3,a4,1a9f0 <_svfprintf_r+0x1a5c>
   1a9ec:	fb1fe06f          	j	1999c <_svfprintf_r+0xa08>
   1a9f0:	944ff06f          	j	19b34 <_svfprintf_r+0xba0>
   1a9f4:	00812583          	lw	a1,8(sp)
   1a9f8:	0e410613          	addi	a2,sp,228
   1a9fc:	000a8513          	mv	a0,s5
   1aa00:	7d8030ef          	jal	ra,1e1d8 <__ssprint_r>
   1aa04:	00050463          	beqz	a0,1aa0c <_svfprintf_r+0x1a78>
   1aa08:	fa0fe06f          	j	191a8 <_svfprintf_r+0x214>
   1aa0c:	0cc12683          	lw	a3,204(sp)
   1aa10:	0ec12783          	lw	a5,236(sp)
   1aa14:	10c10d93          	addi	s11,sp,268
   1aa18:	f65ff06f          	j	1a97c <_svfprintf_r+0x19e8>
   1aa1c:	00812583          	lw	a1,8(sp)
   1aa20:	0e410613          	addi	a2,sp,228
   1aa24:	000a8513          	mv	a0,s5
   1aa28:	7b0030ef          	jal	ra,1e1d8 <__ssprint_r>
   1aa2c:	00050463          	beqz	a0,1aa34 <_svfprintf_r+0x1aa0>
   1aa30:	f78fe06f          	j	191a8 <_svfprintf_r+0x214>
   1aa34:	10c10d93          	addi	s11,sp,268
   1aa38:	d08ff06f          	j	19f40 <_svfprintf_r+0xfac>
   1aa3c:	1b010d13          	addi	s10,sp,432
   1aa40:	00000793          	li	a5,0
   1aa44:	400a7993          	andi	s3,s4,1024
   1aa48:	01212623          	sw	s2,12(sp)
   1aa4c:	00812a23          	sw	s0,20(sp)
   1aa50:	000d0913          	mv	s2,s10
   1aa54:	00078413          	mv	s0,a5
   1aa58:	000a8d13          	mv	s10,s5
   1aa5c:	000a0a93          	mv	s5,s4
   1aa60:	000b8a13          	mv	s4,s7
   1aa64:	000b0b93          	mv	s7,s6
   1aa68:	00048b13          	mv	s6,s1
   1aa6c:	03c12483          	lw	s1,60(sp)
   1aa70:	0240006f          	j	1aa94 <_svfprintf_r+0x1b00>
   1aa74:	00a00613          	li	a2,10
   1aa78:	00000693          	li	a3,0
   1aa7c:	000c8513          	mv	a0,s9
   1aa80:	000a0593          	mv	a1,s4
   1aa84:	499040ef          	jal	ra,1f71c <__udivdi3>
   1aa88:	520a0463          	beqz	s4,1afb0 <_svfprintf_r+0x201c>
   1aa8c:	00050c93          	mv	s9,a0
   1aa90:	00058a13          	mv	s4,a1
   1aa94:	00a00613          	li	a2,10
   1aa98:	00000693          	li	a3,0
   1aa9c:	000c8513          	mv	a0,s9
   1aaa0:	000a0593          	mv	a1,s4
   1aaa4:	24c050ef          	jal	ra,1fcf0 <__umoddi3>
   1aaa8:	03050513          	addi	a0,a0,48
   1aaac:	fea90fa3          	sb	a0,-1(s2)
   1aab0:	00140413          	addi	s0,s0,1
   1aab4:	fff90913          	addi	s2,s2,-1
   1aab8:	fa098ee3          	beqz	s3,1aa74 <_svfprintf_r+0x1ae0>
   1aabc:	0004c683          	lbu	a3,0(s1)
   1aac0:	fad41ae3          	bne	s0,a3,1aa74 <_svfprintf_r+0x1ae0>
   1aac4:	0ff00793          	li	a5,255
   1aac8:	faf406e3          	beq	s0,a5,1aa74 <_svfprintf_r+0x1ae0>
   1aacc:	4e0a1863          	bnez	s4,1afbc <_svfprintf_r+0x2028>
   1aad0:	00900793          	li	a5,9
   1aad4:	4f97e463          	bltu	a5,s9,1afbc <_svfprintf_r+0x2028>
   1aad8:	000a8a13          	mv	s4,s5
   1aadc:	1b010793          	addi	a5,sp,432
   1aae0:	000d0a93          	mv	s5,s10
   1aae4:	00090d13          	mv	s10,s2
   1aae8:	00812c23          	sw	s0,24(sp)
   1aaec:	02912e23          	sw	s1,60(sp)
   1aaf0:	01412403          	lw	s0,20(sp)
   1aaf4:	000b0493          	mv	s1,s6
   1aaf8:	00c12903          	lw	s2,12(sp)
   1aafc:	000b8b13          	mv	s6,s7
   1ab00:	000a0993          	mv	s3,s4
   1ab04:	41a78bb3          	sub	s7,a5,s10
   1ab08:	f84fe06f          	j	1928c <_svfprintf_r+0x2f8>
   1ab0c:	0000a697          	auipc	a3,0xa
   1ab10:	22068693          	addi	a3,a3,544 # 24d2c <zeroes.4490>
   1ab14:	00dda023          	sw	a3,0(s11)
   1ab18:	008da223          	sw	s0,4(s11)
   1ab1c:	008787b3          	add	a5,a5,s0
   1ab20:	00170713          	addi	a4,a4,1
   1ab24:	0ef12623          	sw	a5,236(sp)
   1ab28:	0ee12423          	sw	a4,232(sp)
   1ab2c:	00700693          	li	a3,7
   1ab30:	00e6c463          	blt	a3,a4,1ab38 <_svfprintf_r+0x1ba4>
   1ab34:	e65fe06f          	j	19998 <_svfprintf_r+0xa04>
   1ab38:	ffdfe06f          	j	19b34 <_svfprintf_r+0xba0>
   1ab3c:	0e410613          	addi	a2,sp,228
   1ab40:	000a0593          	mv	a1,s4
   1ab44:	000a8513          	mv	a0,s5
   1ab48:	690030ef          	jal	ra,1e1d8 <__ssprint_r>
   1ab4c:	00050463          	beqz	a0,1ab54 <_svfprintf_r+0x1bc0>
   1ab50:	e58fe06f          	j	191a8 <_svfprintf_r+0x214>
   1ab54:	0004c603          	lbu	a2,0(s1)
   1ab58:	0ec12783          	lw	a5,236(sp)
   1ab5c:	10c10693          	addi	a3,sp,268
   1ab60:	cd1ff06f          	j	1a830 <_svfprintf_r+0x189c>
   1ab64:	0f012783          	lw	a5,240(sp)
   1ab68:	0a010593          	addi	a1,sp,160
   1ab6c:	0b010513          	addi	a0,sp,176
   1ab70:	0af12823          	sw	a5,176(sp)
   1ab74:	0f412783          	lw	a5,244(sp)
   1ab78:	0a012023          	sw	zero,160(sp)
   1ab7c:	0a012223          	sw	zero,164(sp)
   1ab80:	0af12a23          	sw	a5,180(sp)
   1ab84:	0f812783          	lw	a5,248(sp)
   1ab88:	0a012423          	sw	zero,168(sp)
   1ab8c:	0a012623          	sw	zero,172(sp)
   1ab90:	0af12c23          	sw	a5,184(sp)
   1ab94:	0fc12783          	lw	a5,252(sp)
   1ab98:	0af12e23          	sw	a5,188(sp)
   1ab9c:	694060ef          	jal	ra,21230 <__letf2>
   1aba0:	44054e63          	bltz	a0,1affc <_svfprintf_r+0x2068>
   1aba4:	0c714783          	lbu	a5,199(sp)
   1aba8:	04700713          	li	a4,71
   1abac:	0000ad17          	auipc	s10,0xa
   1abb0:	c08d0d13          	addi	s10,s10,-1016 # 247b4 <zeroes.4505+0x10>
   1abb4:	20874a63          	blt	a4,s0,1adc8 <_svfprintf_r+0x1e34>
   1abb8:	00012623          	sw	zero,12(sp)
   1abbc:	02012023          	sw	zero,32(sp)
   1abc0:	00012e23          	sw	zero,28(sp)
   1abc4:	00012a23          	sw	zero,20(sp)
   1abc8:	f7f9f993          	andi	s3,s3,-129
   1abcc:	00300a13          	li	s4,3
   1abd0:	00300b93          	li	s7,3
   1abd4:	00000b13          	li	s6,0
   1abd8:	00078463          	beqz	a5,1abe0 <_svfprintf_r+0x1c4c>
   1abdc:	ed4fe06f          	j	192b0 <_svfprintf_r+0x31c>
   1abe0:	cf1fe06f          	j	198d0 <_svfprintf_r+0x93c>
   1abe4:	01012783          	lw	a5,16(sp)
   1abe8:	00090d13          	mv	s10,s2
   1abec:	0007a783          	lw	a5,0(a5)
   1abf0:	00e12823          	sw	a4,16(sp)
   1abf4:	00412703          	lw	a4,4(sp)
   1abf8:	00e7a023          	sw	a4,0(a5)
   1abfc:	fecfe06f          	j	193e8 <_svfprintf_r+0x454>
   1ac00:	000d0513          	mv	a0,s10
   1ac04:	a38fe0ef          	jal	ra,18e3c <strlen>
   1ac08:	00050b93          	mv	s7,a0
   1ac0c:	bd1fe06f          	j	197dc <_svfprintf_r+0x848>
   1ac10:	03012703          	lw	a4,48(sp)
   1ac14:	02812603          	lw	a2,40(sp)
   1ac18:	008d8893          	addi	a7,s11,8
   1ac1c:	00eda023          	sw	a4,0(s11)
   1ac20:	0e812703          	lw	a4,232(sp)
   1ac24:	00f607b3          	add	a5,a2,a5
   1ac28:	00cda223          	sw	a2,4(s11)
   1ac2c:	00170713          	addi	a4,a4,1
   1ac30:	0ef12623          	sw	a5,236(sp)
   1ac34:	0ee12423          	sw	a4,232(sp)
   1ac38:	00700613          	li	a2,7
   1ac3c:	24e64863          	blt	a2,a4,1ae8c <_svfprintf_r+0x1ef8>
   1ac40:	d806d2e3          	bgez	a3,1a9c4 <_svfprintf_r+0x1a30>
   1ac44:	ff000613          	li	a2,-16
   1ac48:	40d00433          	neg	s0,a3
   1ac4c:	24c6d6e3          	bge	a3,a2,1b698 <_svfprintf_r+0x2704>
   1ac50:	00700b93          	li	s7,7
   1ac54:	00812b03          	lw	s6,8(sp)
   1ac58:	00c0006f          	j	1ac64 <_svfprintf_r+0x1cd0>
   1ac5c:	ff040413          	addi	s0,s0,-16
   1ac60:	228c5ce3          	bge	s8,s0,1b698 <_svfprintf_r+0x2704>
   1ac64:	01078793          	addi	a5,a5,16
   1ac68:	00170713          	addi	a4,a4,1
   1ac6c:	0000a697          	auipc	a3,0xa
   1ac70:	0c068693          	addi	a3,a3,192 # 24d2c <zeroes.4490>
   1ac74:	00d8a023          	sw	a3,0(a7)
   1ac78:	0188a223          	sw	s8,4(a7)
   1ac7c:	0ef12623          	sw	a5,236(sp)
   1ac80:	0ee12423          	sw	a4,232(sp)
   1ac84:	00888893          	addi	a7,a7,8
   1ac88:	fcebdae3          	bge	s7,a4,1ac5c <_svfprintf_r+0x1cc8>
   1ac8c:	0e410613          	addi	a2,sp,228
   1ac90:	000b0593          	mv	a1,s6
   1ac94:	000a8513          	mv	a0,s5
   1ac98:	540030ef          	jal	ra,1e1d8 <__ssprint_r>
   1ac9c:	00050463          	beqz	a0,1aca4 <_svfprintf_r+0x1d10>
   1aca0:	d08fe06f          	j	191a8 <_svfprintf_r+0x214>
   1aca4:	0ec12783          	lw	a5,236(sp)
   1aca8:	0e812703          	lw	a4,232(sp)
   1acac:	10c10893          	addi	a7,sp,268
   1acb0:	fadff06f          	j	1ac5c <_svfprintf_r+0x1cc8>
   1acb4:	000d8713          	mv	a4,s11
   1acb8:	00140b13          	addi	s6,s0,1
   1acbc:	008b8613          	addi	a2,s7,8
   1acc0:	00ec8cb3          	add	s9,s9,a4
   1acc4:	0000a797          	auipc	a5,0xa
   1acc8:	06878793          	addi	a5,a5,104 # 24d2c <zeroes.4490>
   1accc:	00eba223          	sw	a4,4(s7)
   1acd0:	00fba023          	sw	a5,0(s7)
   1acd4:	0f912623          	sw	s9,236(sp)
   1acd8:	0f612423          	sw	s6,232(sp)
   1acdc:	00700713          	li	a4,7
   1ace0:	c1674ae3          	blt	a4,s6,1a8f4 <_svfprintf_r+0x1960>
   1ace4:	001b0b13          	addi	s6,s6,1
   1ace8:	00860d93          	addi	s11,a2,8
   1acec:	00060b93          	mv	s7,a2
   1acf0:	e21fe06f          	j	19b10 <_svfprintf_r+0xb7c>
   1acf4:	2009f793          	andi	a5,s3,512
   1acf8:	16078463          	beqz	a5,1ae60 <_svfprintf_r+0x1ecc>
   1acfc:	00e12823          	sw	a4,16(sp)
   1ad00:	0ffcfc93          	andi	s9,s9,255
   1ad04:	00000b93          	li	s7,0
   1ad08:	00098a13          	mv	s4,s3
   1ad0c:	00100713          	li	a4,1
   1ad10:	d4cfe06f          	j	1925c <_svfprintf_r+0x2c8>
   1ad14:	2009f793          	andi	a5,s3,512
   1ad18:	12078e63          	beqz	a5,1ae54 <_svfprintf_r+0x1ec0>
   1ad1c:	0ffcfc93          	andi	s9,s9,255
   1ad20:	00000b93          	li	s7,0
   1ad24:	00e12823          	sw	a4,16(sp)
   1ad28:	8b4ff06f          	j	19ddc <_svfprintf_r+0xe48>
   1ad2c:	2009f793          	andi	a5,s3,512
   1ad30:	10078463          	beqz	a5,1ae38 <_svfprintf_r+0x1ea4>
   1ad34:	01012783          	lw	a5,16(sp)
   1ad38:	00098a13          	mv	s4,s3
   1ad3c:	00e12823          	sw	a4,16(sp)
   1ad40:	00078c83          	lb	s9,0(a5)
   1ad44:	41fcdb93          	srai	s7,s9,0x1f
   1ad48:	000b8713          	mv	a4,s7
   1ad4c:	b1dfe06f          	j	19868 <_svfprintf_r+0x8d4>
   1ad50:	0fc12783          	lw	a5,252(sp)
   1ad54:	1207c663          	bltz	a5,1ae80 <_svfprintf_r+0x1eec>
   1ad58:	0c714783          	lbu	a5,199(sp)
   1ad5c:	04700713          	li	a4,71
   1ad60:	0000ad17          	auipc	s10,0xa
   1ad64:	a5cd0d13          	addi	s10,s10,-1444 # 247bc <zeroes.4505+0x18>
   1ad68:	e48758e3          	bge	a4,s0,1abb8 <_svfprintf_r+0x1c24>
   1ad6c:	0000ad17          	auipc	s10,0xa
   1ad70:	a54d0d13          	addi	s10,s10,-1452 # 247c0 <zeroes.4505+0x1c>
   1ad74:	e45ff06f          	j	1abb8 <_svfprintf_r+0x1c24>
   1ad78:	0000a697          	auipc	a3,0xa
   1ad7c:	fb468693          	addi	a3,a3,-76 # 24d2c <zeroes.4490>
   1ad80:	008787b3          	add	a5,a5,s0
   1ad84:	00170713          	addi	a4,a4,1
   1ad88:	00dda023          	sw	a3,0(s11)
   1ad8c:	008da223          	sw	s0,4(s11)
   1ad90:	0ef12623          	sw	a5,236(sp)
   1ad94:	0ee12423          	sw	a4,232(sp)
   1ad98:	00700693          	li	a3,7
   1ad9c:	008d8d93          	addi	s11,s11,8
   1ada0:	e0e6d463          	bge	a3,a4,1a3a8 <_svfprintf_r+0x1414>
   1ada4:	00812583          	lw	a1,8(sp)
   1ada8:	0e410613          	addi	a2,sp,228
   1adac:	000a8513          	mv	a0,s5
   1adb0:	428030ef          	jal	ra,1e1d8 <__ssprint_r>
   1adb4:	00050463          	beqz	a0,1adbc <_svfprintf_r+0x1e28>
   1adb8:	bf0fe06f          	j	191a8 <_svfprintf_r+0x214>
   1adbc:	0ec12783          	lw	a5,236(sp)
   1adc0:	10c10d93          	addi	s11,sp,268
   1adc4:	de4ff06f          	j	1a3a8 <_svfprintf_r+0x1414>
   1adc8:	0000ad17          	auipc	s10,0xa
   1adcc:	9f0d0d13          	addi	s10,s10,-1552 # 247b8 <zeroes.4505+0x14>
   1add0:	de9ff06f          	j	1abb8 <_svfprintf_r+0x1c24>
   1add4:	00812583          	lw	a1,8(sp)
   1add8:	0e410613          	addi	a2,sp,228
   1addc:	000a8513          	mv	a0,s5
   1ade0:	3f8030ef          	jal	ra,1e1d8 <__ssprint_r>
   1ade4:	00050463          	beqz	a0,1adec <_svfprintf_r+0x1e58>
   1ade8:	bc0fe06f          	j	191a8 <_svfprintf_r+0x214>
   1adec:	0ec12783          	lw	a5,236(sp)
   1adf0:	10c10d93          	addi	s11,sp,268
   1adf4:	d9cff06f          	j	1a390 <_svfprintf_r+0x13fc>
   1adf8:	00600b93          	li	s7,6
   1adfc:	901ff06f          	j	1a6fc <_svfprintf_r+0x1768>
   1ae00:	01812703          	lw	a4,24(sp)
   1ae04:	00ed0833          	add	a6,s10,a4
   1ae08:	40870433          	sub	s0,a4,s0
   1ae0c:	41680bb3          	sub	s7,a6,s6
   1ae10:	e3745a63          	bge	s0,s7,1a444 <_svfprintf_r+0x14b0>
   1ae14:	00040b93          	mv	s7,s0
   1ae18:	e2cff06f          	j	1a444 <_svfprintf_r+0x14b0>
   1ae1c:	01012783          	lw	a5,16(sp)
   1ae20:	00e12823          	sw	a4,16(sp)
   1ae24:	00412703          	lw	a4,4(sp)
   1ae28:	0007a783          	lw	a5,0(a5)
   1ae2c:	00090d13          	mv	s10,s2
   1ae30:	00e79023          	sh	a4,0(a5)
   1ae34:	db4fe06f          	j	193e8 <_svfprintf_r+0x454>
   1ae38:	01012783          	lw	a5,16(sp)
   1ae3c:	00098a13          	mv	s4,s3
   1ae40:	00e12823          	sw	a4,16(sp)
   1ae44:	0007ac83          	lw	s9,0(a5)
   1ae48:	41fcdb93          	srai	s7,s9,0x1f
   1ae4c:	000b8713          	mv	a4,s7
   1ae50:	a19fe06f          	j	19868 <_svfprintf_r+0x8d4>
   1ae54:	00000b93          	li	s7,0
   1ae58:	00e12823          	sw	a4,16(sp)
   1ae5c:	f81fe06f          	j	19ddc <_svfprintf_r+0xe48>
   1ae60:	00e12823          	sw	a4,16(sp)
   1ae64:	00000b93          	li	s7,0
   1ae68:	00098a13          	mv	s4,s3
   1ae6c:	00100713          	li	a4,1
   1ae70:	becfe06f          	j	1925c <_svfprintf_r+0x2c8>
   1ae74:	0ffcfc93          	andi	s9,s9,255
   1ae78:	00000b93          	li	s7,0
   1ae7c:	bc4fe06f          	j	19240 <_svfprintf_r+0x2ac>
   1ae80:	02d00793          	li	a5,45
   1ae84:	0cf103a3          	sb	a5,199(sp)
   1ae88:	ed5ff06f          	j	1ad5c <_svfprintf_r+0x1dc8>
   1ae8c:	00812583          	lw	a1,8(sp)
   1ae90:	0e410613          	addi	a2,sp,228
   1ae94:	000a8513          	mv	a0,s5
   1ae98:	340030ef          	jal	ra,1e1d8 <__ssprint_r>
   1ae9c:	00050463          	beqz	a0,1aea4 <_svfprintf_r+0x1f10>
   1aea0:	b08fe06f          	j	191a8 <_svfprintf_r+0x214>
   1aea4:	0cc12683          	lw	a3,204(sp)
   1aea8:	0ec12783          	lw	a5,236(sp)
   1aeac:	0e812703          	lw	a4,232(sp)
   1aeb0:	10c10893          	addi	a7,sp,268
   1aeb4:	b006d8e3          	bgez	a3,1a9c4 <_svfprintf_r+0x1a30>
   1aeb8:	d8dff06f          	j	1ac44 <_svfprintf_r+0x1cb0>
   1aebc:	00600b13          	li	s6,6
   1aec0:	e6cfe06f          	j	1952c <_svfprintf_r+0x598>
   1aec4:	00098a13          	mv	s4,s3
   1aec8:	f81fe06f          	j	19e48 <_svfprintf_r+0xeb4>
   1aecc:	02012d03          	lw	s10,32(sp)
   1aed0:	01812703          	lw	a4,24(sp)
   1aed4:	02912e23          	sw	s1,60(sp)
   1aed8:	01412903          	lw	s2,20(sp)
   1aedc:	00ed0733          	add	a4,s10,a4
   1aee0:	03412983          	lw	s3,52(sp)
   1aee4:	04812483          	lw	s1,72(sp)
   1aee8:	01c12a03          	lw	s4,28(sp)
   1aeec:	00068d93          	mv	s11,a3
   1aef0:	cd677463          	bgeu	a4,s6,1a3b8 <_svfprintf_r+0x1424>
   1aef4:	00070b13          	mv	s6,a4
   1aef8:	cc0ff06f          	j	1a3b8 <_svfprintf_r+0x1424>
   1aefc:	01412703          	lw	a4,20(sp)
   1af00:	ffd00793          	li	a5,-3
   1af04:	00f74463          	blt	a4,a5,1af0c <_svfprintf_r+0x1f78>
   1af08:	00eb5a63          	bge	s6,a4,1af1c <_svfprintf_r+0x1f88>
   1af0c:	ffe40413          	addi	s0,s0,-2
   1af10:	fdf47793          	andi	a5,s0,-33
   1af14:	04f12423          	sw	a5,72(sp)
   1af18:	f08fe06f          	j	19620 <_svfprintf_r+0x68c>
   1af1c:	01812783          	lw	a5,24(sp)
   1af20:	01412703          	lw	a4,20(sp)
   1af24:	24f74063          	blt	a4,a5,1b164 <_svfprintf_r+0x21d0>
   1af28:	05412783          	lw	a5,84(sp)
   1af2c:	00070b93          	mv	s7,a4
   1af30:	0017f793          	andi	a5,a5,1
   1af34:	00078663          	beqz	a5,1af40 <_svfprintf_r+0x1fac>
   1af38:	02812783          	lw	a5,40(sp)
   1af3c:	00f70bb3          	add	s7,a4,a5
   1af40:	05412783          	lw	a5,84(sp)
   1af44:	4007f793          	andi	a5,a5,1024
   1af48:	00078663          	beqz	a5,1af54 <_svfprintf_r+0x1fc0>
   1af4c:	01412783          	lw	a5,20(sp)
   1af50:	7cf04463          	bgtz	a5,1b718 <_svfprintf_r+0x2784>
   1af54:	fffbca13          	not	s4,s7
   1af58:	41fa5a13          	srai	s4,s4,0x1f
   1af5c:	014bfa33          	and	s4,s7,s4
   1af60:	06700413          	li	s0,103
   1af64:	02012023          	sw	zero,32(sp)
   1af68:	00012e23          	sw	zero,28(sp)
   1af6c:	fe0fe06f          	j	1974c <_svfprintf_r+0x7b8>
   1af70:	0c714783          	lbu	a5,199(sp)
   1af74:	00000b13          	li	s6,0
   1af78:	00078463          	beqz	a5,1af80 <_svfprintf_r+0x1fec>
   1af7c:	b34fe06f          	j	192b0 <_svfprintf_r+0x31c>
   1af80:	951fe06f          	j	198d0 <_svfprintf_r+0x93c>
   1af84:	0e410613          	addi	a2,sp,228
   1af88:	000a0593          	mv	a1,s4
   1af8c:	000a8513          	mv	a0,s5
   1af90:	248030ef          	jal	ra,1e1d8 <__ssprint_r>
   1af94:	00050463          	beqz	a0,1af9c <_svfprintf_r+0x2008>
   1af98:	a10fe06f          	j	191a8 <_svfprintf_r+0x214>
   1af9c:	0004c603          	lbu	a2,0(s1)
   1afa0:	0ec12783          	lw	a5,236(sp)
   1afa4:	10c10693          	addi	a3,sp,268
   1afa8:	00cb0b33          	add	s6,s6,a2
   1afac:	89dff06f          	j	1a848 <_svfprintf_r+0x18b4>
   1afb0:	00900793          	li	a5,9
   1afb4:	ad97ece3          	bltu	a5,s9,1aa8c <_svfprintf_r+0x1af8>
   1afb8:	b21ff06f          	j	1aad8 <_svfprintf_r+0x1b44>
   1afbc:	04012783          	lw	a5,64(sp)
   1afc0:	04412583          	lw	a1,68(sp)
   1afc4:	00000413          	li	s0,0
   1afc8:	40f90933          	sub	s2,s2,a5
   1afcc:	00078613          	mv	a2,a5
   1afd0:	00090513          	mv	a0,s2
   1afd4:	ef5fd0ef          	jal	ra,18ec8 <strncpy>
   1afd8:	0014c803          	lbu	a6,1(s1)
   1afdc:	00a00613          	li	a2,10
   1afe0:	00000693          	li	a3,0
   1afe4:	01003833          	snez	a6,a6
   1afe8:	000c8513          	mv	a0,s9
   1afec:	000a0593          	mv	a1,s4
   1aff0:	010484b3          	add	s1,s1,a6
   1aff4:	728040ef          	jal	ra,1f71c <__udivdi3>
   1aff8:	a95ff06f          	j	1aa8c <_svfprintf_r+0x1af8>
   1affc:	02d00793          	li	a5,45
   1b000:	0cf103a3          	sb	a5,199(sp)
   1b004:	ba5ff06f          	j	1aba8 <_svfprintf_r+0x1c14>
   1b008:	0b010b93          	addi	s7,sp,176
   1b00c:	0d010793          	addi	a5,sp,208
   1b010:	0cc10713          	addi	a4,sp,204
   1b014:	0dc10813          	addi	a6,sp,220
   1b018:	000b0693          	mv	a3,s6
   1b01c:	00300613          	li	a2,3
   1b020:	000b8593          	mv	a1,s7
   1b024:	000a8513          	mv	a0,s5
   1b028:	0bd12823          	sw	t4,176(sp)
   1b02c:	03d12023          	sw	t4,32(sp)
   1b030:	0be12a23          	sw	t5,180(sp)
   1b034:	01e12e23          	sw	t5,28(sp)
   1b038:	0bf12c23          	sw	t6,184(sp)
   1b03c:	01f12c23          	sw	t6,24(sp)
   1b040:	0bc12e23          	sw	t3,188(sp)
   1b044:	01c12a23          	sw	t3,20(sp)
   1b048:	869fa0ef          	jal	ra,158b0 <_ldtoa_r>
   1b04c:	00054703          	lbu	a4,0(a0)
   1b050:	03000793          	li	a5,48
   1b054:	00050d13          	mv	s10,a0
   1b058:	01412e03          	lw	t3,20(sp)
   1b05c:	01812f83          	lw	t6,24(sp)
   1b060:	01c12f03          	lw	t5,28(sp)
   1b064:	02012e83          	lw	t4,32(sp)
   1b068:	08f70ce3          	beq	a4,a5,1b900 <_svfprintf_r+0x296c>
   1b06c:	0a010793          	addi	a5,sp,160
   1b070:	04f12c23          	sw	a5,88(sp)
   1b074:	0cc12783          	lw	a5,204(sp)
   1b078:	016787b3          	add	a5,a5,s6
   1b07c:	00fd0a33          	add	s4,s10,a5
   1b080:	05812583          	lw	a1,88(sp)
   1b084:	000b8513          	mv	a0,s7
   1b088:	0bd12823          	sw	t4,176(sp)
   1b08c:	0be12a23          	sw	t5,180(sp)
   1b090:	0bf12c23          	sw	t6,184(sp)
   1b094:	0bc12e23          	sw	t3,188(sp)
   1b098:	0a012023          	sw	zero,160(sp)
   1b09c:	0a012223          	sw	zero,164(sp)
   1b0a0:	0a012423          	sw	zero,168(sp)
   1b0a4:	0a012623          	sw	zero,172(sp)
   1b0a8:	779050ef          	jal	ra,21020 <__eqtf2>
   1b0ac:	000a0793          	mv	a5,s4
   1b0b0:	00051463          	bnez	a0,1b0b8 <_svfprintf_r+0x2124>
   1b0b4:	d3cfe06f          	j	195f0 <_svfprintf_r+0x65c>
   1b0b8:	0dc12783          	lw	a5,220(sp)
   1b0bc:	03000693          	li	a3,48
   1b0c0:	0147e463          	bltu	a5,s4,1b0c8 <_svfprintf_r+0x2134>
   1b0c4:	d2cfe06f          	j	195f0 <_svfprintf_r+0x65c>
   1b0c8:	00178713          	addi	a4,a5,1
   1b0cc:	0ce12e23          	sw	a4,220(sp)
   1b0d0:	00d78023          	sb	a3,0(a5)
   1b0d4:	0dc12783          	lw	a5,220(sp)
   1b0d8:	ff47e8e3          	bltu	a5,s4,1b0c8 <_svfprintf_r+0x2134>
   1b0dc:	d14fe06f          	j	195f0 <_svfprintf_r+0x65c>
   1b0e0:	00812583          	lw	a1,8(sp)
   1b0e4:	0e410613          	addi	a2,sp,228
   1b0e8:	000a8513          	mv	a0,s5
   1b0ec:	0ec030ef          	jal	ra,1e1d8 <__ssprint_r>
   1b0f0:	00050463          	beqz	a0,1b0f8 <_svfprintf_r+0x2164>
   1b0f4:	8b4fe06f          	j	191a8 <_svfprintf_r+0x214>
   1b0f8:	0cc12403          	lw	s0,204(sp)
   1b0fc:	0ec12783          	lw	a5,236(sp)
   1b100:	10c10d93          	addi	s11,sp,268
   1b104:	af8ff06f          	j	1a3fc <_svfprintf_r+0x1468>
   1b108:	0c714783          	lbu	a5,199(sp)
   1b10c:	01912823          	sw	s9,16(sp)
   1b110:	02012023          	sw	zero,32(sp)
   1b114:	00012e23          	sw	zero,28(sp)
   1b118:	00012a23          	sw	zero,20(sp)
   1b11c:	000b0a13          	mv	s4,s6
   1b120:	000b0b93          	mv	s7,s6
   1b124:	00000b13          	li	s6,0
   1b128:	00078463          	beqz	a5,1b130 <_svfprintf_r+0x219c>
   1b12c:	984fe06f          	j	192b0 <_svfprintf_r+0x31c>
   1b130:	fa0fe06f          	j	198d0 <_svfprintf_r+0x93c>
   1b134:	00812583          	lw	a1,8(sp)
   1b138:	0e410613          	addi	a2,sp,228
   1b13c:	000a8513          	mv	a0,s5
   1b140:	098030ef          	jal	ra,1e1d8 <__ssprint_r>
   1b144:	00050463          	beqz	a0,1b14c <_svfprintf_r+0x21b8>
   1b148:	860fe06f          	j	191a8 <_svfprintf_r+0x214>
   1b14c:	0cc12403          	lw	s0,204(sp)
   1b150:	01812703          	lw	a4,24(sp)
   1b154:	0ec12783          	lw	a5,236(sp)
   1b158:	10c10d93          	addi	s11,sp,268
   1b15c:	40870433          	sub	s0,a4,s0
   1b160:	ae4ff06f          	j	1a444 <_svfprintf_r+0x14b0>
   1b164:	01812783          	lw	a5,24(sp)
   1b168:	02812703          	lw	a4,40(sp)
   1b16c:	06700413          	li	s0,103
   1b170:	00e78bb3          	add	s7,a5,a4
   1b174:	01412783          	lw	a5,20(sp)
   1b178:	76f05863          	blez	a5,1b8e8 <_svfprintf_r+0x2954>
   1b17c:	05412783          	lw	a5,84(sp)
   1b180:	4007f793          	andi	a5,a5,1024
   1b184:	58079c63          	bnez	a5,1b71c <_svfprintf_r+0x2788>
   1b188:	fffbca13          	not	s4,s7
   1b18c:	41fa5a13          	srai	s4,s4,0x1f
   1b190:	014bfa33          	and	s4,s7,s4
   1b194:	dd1ff06f          	j	1af64 <_svfprintf_r+0x1fd0>
   1b198:	05412783          	lw	a5,84(sp)
   1b19c:	01412703          	lw	a4,20(sp)
   1b1a0:	0017f793          	andi	a5,a5,1
   1b1a4:	0167e7b3          	or	a5,a5,s6
   1b1a8:	7ce05c63          	blez	a4,1b980 <_svfprintf_r+0x29ec>
   1b1ac:	72079463          	bnez	a5,1b8d4 <_svfprintf_r+0x2940>
   1b1b0:	01412b83          	lw	s7,20(sp)
   1b1b4:	06600413          	li	s0,102
   1b1b8:	fc5ff06f          	j	1b17c <_svfprintf_r+0x21e8>
   1b1bc:	03000793          	li	a5,48
   1b1c0:	0cf10423          	sb	a5,200(sp)
   1b1c4:	05800793          	li	a5,88
   1b1c8:	0029e713          	ori	a4,s3,2
   1b1cc:	0cf104a3          	sb	a5,201(sp)
   1b1d0:	04e12a23          	sw	a4,84(sp)
   1b1d4:	06300793          	li	a5,99
   1b1d8:	00012623          	sw	zero,12(sp)
   1b1dc:	14c10d13          	addi	s10,sp,332
   1b1e0:	3d67c063          	blt	a5,s6,1b5a0 <_svfprintf_r+0x260c>
   1b1e4:	0fc12e03          	lw	t3,252(sp)
   1b1e8:	fdf47793          	andi	a5,s0,-33
   1b1ec:	04f12423          	sw	a5,72(sp)
   1b1f0:	04012e23          	sw	zero,92(sp)
   1b1f4:	1029e993          	ori	s3,s3,258
   1b1f8:	0f012e83          	lw	t4,240(sp)
   1b1fc:	0f412f03          	lw	t5,244(sp)
   1b200:	0f812f83          	lw	t6,248(sp)
   1b204:	380e4463          	bltz	t3,1b58c <_svfprintf_r+0x25f8>
   1b208:	06100793          	li	a5,97
   1b20c:	58f40a63          	beq	s0,a5,1b7a0 <_svfprintf_r+0x280c>
   1b210:	04100793          	li	a5,65
   1b214:	00f40463          	beq	s0,a5,1b21c <_svfprintf_r+0x2288>
   1b218:	b40fe06f          	j	19558 <_svfprintf_r+0x5c4>
   1b21c:	0b010b93          	addi	s7,sp,176
   1b220:	000b8513          	mv	a0,s7
   1b224:	0bd12823          	sw	t4,176(sp)
   1b228:	0be12a23          	sw	t5,180(sp)
   1b22c:	0bf12c23          	sw	t6,184(sp)
   1b230:	0bc12e23          	sw	t3,188(sp)
   1b234:	72d080ef          	jal	ra,24160 <__trunctfdf2>
   1b238:	0cc10613          	addi	a2,sp,204
   1b23c:	ee0fd0ef          	jal	ra,1891c <frexp>
   1b240:	00058613          	mv	a2,a1
   1b244:	00050593          	mv	a1,a0
   1b248:	000b8513          	mv	a0,s7
   1b24c:	50d080ef          	jal	ra,23f58 <__extenddftf2>
   1b250:	09010793          	addi	a5,sp,144
   1b254:	00078593          	mv	a1,a5
   1b258:	00f12c23          	sw	a5,24(sp)
   1b25c:	0b012783          	lw	a5,176(sp)
   1b260:	0a010a13          	addi	s4,sp,160
   1b264:	08010613          	addi	a2,sp,128
   1b268:	08f12823          	sw	a5,144(sp)
   1b26c:	0b412783          	lw	a5,180(sp)
   1b270:	000a0513          	mv	a0,s4
   1b274:	04c12623          	sw	a2,76(sp)
   1b278:	08f12a23          	sw	a5,148(sp)
   1b27c:	0b812783          	lw	a5,184(sp)
   1b280:	05412c23          	sw	s4,88(sp)
   1b284:	08012023          	sw	zero,128(sp)
   1b288:	08f12c23          	sw	a5,152(sp)
   1b28c:	0bc12783          	lw	a5,188(sp)
   1b290:	08012223          	sw	zero,132(sp)
   1b294:	08012423          	sw	zero,136(sp)
   1b298:	08f12e23          	sw	a5,156(sp)
   1b29c:	3ffc07b7          	lui	a5,0x3ffc0
   1b2a0:	08f12623          	sw	a5,140(sp)
   1b2a4:	0d0060ef          	jal	ra,21374 <__multf3>
   1b2a8:	0a012683          	lw	a3,160(sp)
   1b2ac:	0a412e03          	lw	t3,164(sp)
   1b2b0:	0a812e83          	lw	t4,168(sp)
   1b2b4:	0ac12f03          	lw	t5,172(sp)
   1b2b8:	000a0593          	mv	a1,s4
   1b2bc:	000b8513          	mv	a0,s7
   1b2c0:	0ad12823          	sw	a3,176(sp)
   1b2c4:	02d12a23          	sw	a3,52(sp)
   1b2c8:	0bc12a23          	sw	t3,180(sp)
   1b2cc:	03c12023          	sw	t3,32(sp)
   1b2d0:	0bd12c23          	sw	t4,184(sp)
   1b2d4:	01d12e23          	sw	t4,28(sp)
   1b2d8:	0be12e23          	sw	t5,188(sp)
   1b2dc:	01e12a23          	sw	t5,20(sp)
   1b2e0:	0a012023          	sw	zero,160(sp)
   1b2e4:	0a012223          	sw	zero,164(sp)
   1b2e8:	0a012423          	sw	zero,168(sp)
   1b2ec:	0a012623          	sw	zero,172(sp)
   1b2f0:	531050ef          	jal	ra,21020 <__eqtf2>
   1b2f4:	01412f03          	lw	t5,20(sp)
   1b2f8:	01c12e83          	lw	t4,28(sp)
   1b2fc:	02012e03          	lw	t3,32(sp)
   1b300:	03412683          	lw	a3,52(sp)
   1b304:	00051663          	bnez	a0,1b310 <_svfprintf_r+0x237c>
   1b308:	00100793          	li	a5,1
   1b30c:	0cf12623          	sw	a5,204(sp)
   1b310:	00009797          	auipc	a5,0x9
   1b314:	4c878793          	addi	a5,a5,1224 # 247d8 <zeroes.4505+0x34>
   1b318:	02f12a23          	sw	a5,52(sp)
   1b31c:	fffb0a13          	addi	s4,s6,-1
   1b320:	01a12a23          	sw	s10,20(sp)
   1b324:	07212023          	sw	s2,96(sp)
   1b328:	06912623          	sw	s1,108(sp)
   1b32c:	07b12a23          	sw	s11,116(sp)
   1b330:	000a0c93          	mv	s9,s4
   1b334:	07512c23          	sw	s5,120(sp)
   1b338:	07a12e23          	sw	s10,124(sp)
   1b33c:	06812223          	sw	s0,100(sp)
   1b340:	07312423          	sw	s3,104(sp)
   1b344:	07612823          	sw	s6,112(sp)
   1b348:	00068d13          	mv	s10,a3
   1b34c:	000e0d93          	mv	s11,t3
   1b350:	000e8a13          	mv	s4,t4
   1b354:	000f0a93          	mv	s5,t5
   1b358:	01812903          	lw	s2,24(sp)
   1b35c:	05812483          	lw	s1,88(sp)
   1b360:	0540006f          	j	1b3b4 <_svfprintf_r+0x2420>
   1b364:	00048593          	mv	a1,s1
   1b368:	000b8513          	mv	a0,s7
   1b36c:	02c12023          	sw	a2,32(sp)
   1b370:	01f12e23          	sw	t6,28(sp)
   1b374:	00512c23          	sw	t0,24(sp)
   1b378:	0a512a23          	sw	t0,180(sp)
   1b37c:	0bf12c23          	sw	t6,184(sp)
   1b380:	0ac12e23          	sw	a2,188(sp)
   1b384:	0b312823          	sw	s3,176(sp)
   1b388:	0a012023          	sw	zero,160(sp)
   1b38c:	0a012223          	sw	zero,164(sp)
   1b390:	0a012423          	sw	zero,168(sp)
   1b394:	0a012623          	sw	zero,172(sp)
   1b398:	489050ef          	jal	ra,21020 <__eqtf2>
   1b39c:	fffc8c93          	addi	s9,s9,-1
   1b3a0:	01812283          	lw	t0,24(sp)
   1b3a4:	01c12f83          	lw	t6,28(sp)
   1b3a8:	02012603          	lw	a2,32(sp)
   1b3ac:	0e050463          	beqz	a0,1b494 <_svfprintf_r+0x2500>
   1b3b0:	01612a23          	sw	s6,20(sp)
   1b3b4:	400307b7          	lui	a5,0x40030
   1b3b8:	00090613          	mv	a2,s2
   1b3bc:	00048593          	mv	a1,s1
   1b3c0:	000b8513          	mv	a0,s7
   1b3c4:	08f12e23          	sw	a5,156(sp)
   1b3c8:	0ba12023          	sw	s10,160(sp)
   1b3cc:	0bb12223          	sw	s11,164(sp)
   1b3d0:	0b412423          	sw	s4,168(sp)
   1b3d4:	0b512623          	sw	s5,172(sp)
   1b3d8:	08012823          	sw	zero,144(sp)
   1b3dc:	08012a23          	sw	zero,148(sp)
   1b3e0:	08012c23          	sw	zero,152(sp)
   1b3e4:	791050ef          	jal	ra,21374 <__multf3>
   1b3e8:	000b8513          	mv	a0,s7
   1b3ec:	095080ef          	jal	ra,23c80 <__fixtfsi>
   1b3f0:	00050593          	mv	a1,a0
   1b3f4:	00050413          	mv	s0,a0
   1b3f8:	000b8513          	mv	a0,s7
   1b3fc:	0b012b03          	lw	s6,176(sp)
   1b400:	0b412a03          	lw	s4,180(sp)
   1b404:	0b812983          	lw	s3,184(sp)
   1b408:	0bc12a83          	lw	s5,188(sp)
   1b40c:	1c5080ef          	jal	ra,23dd0 <__floatsitf>
   1b410:	0b012703          	lw	a4,176(sp)
   1b414:	04c12603          	lw	a2,76(sp)
   1b418:	00090593          	mv	a1,s2
   1b41c:	08e12023          	sw	a4,128(sp)
   1b420:	0b412703          	lw	a4,180(sp)
   1b424:	00048513          	mv	a0,s1
   1b428:	09612823          	sw	s6,144(sp)
   1b42c:	08e12223          	sw	a4,132(sp)
   1b430:	0b812703          	lw	a4,184(sp)
   1b434:	09412a23          	sw	s4,148(sp)
   1b438:	09312c23          	sw	s3,152(sp)
   1b43c:	08e12423          	sw	a4,136(sp)
   1b440:	0bc12703          	lw	a4,188(sp)
   1b444:	09512e23          	sw	s5,156(sp)
   1b448:	08e12623          	sw	a4,140(sp)
   1b44c:	294070ef          	jal	ra,226e0 <__subtf3>
   1b450:	03412783          	lw	a5,52(sp)
   1b454:	0a012983          	lw	s3,160(sp)
   1b458:	0a412283          	lw	t0,164(sp)
   1b45c:	00878733          	add	a4,a5,s0
   1b460:	01412783          	lw	a5,20(sp)
   1b464:	00074683          	lbu	a3,0(a4)
   1b468:	0a812f83          	lw	t6,168(sp)
   1b46c:	0ac12603          	lw	a2,172(sp)
   1b470:	00178b13          	addi	s6,a5,1 # 40030001 <__global_pointer$+0x40008a91>
   1b474:	fedb0fa3          	sb	a3,-1(s6)
   1b478:	05912823          	sw	s9,80(sp)
   1b47c:	fff00793          	li	a5,-1
   1b480:	00098d13          	mv	s10,s3
   1b484:	00028d93          	mv	s11,t0
   1b488:	000f8a13          	mv	s4,t6
   1b48c:	00060a93          	mv	s5,a2
   1b490:	ecfc9ae3          	bne	s9,a5,1b364 <_svfprintf_r+0x23d0>
   1b494:	05812a03          	lw	s4,88(sp)
   1b498:	00098393          	mv	t2,s3
   1b49c:	3ffe0737          	lui	a4,0x3ffe0
   1b4a0:	000a0593          	mv	a1,s4
   1b4a4:	000b8513          	mv	a0,s7
   1b4a8:	06012903          	lw	s2,96(sp)
   1b4ac:	00812c23          	sw	s0,24(sp)
   1b4b0:	000b0c93          	mv	s9,s6
   1b4b4:	06c12483          	lw	s1,108(sp)
   1b4b8:	07412d83          	lw	s11,116(sp)
   1b4bc:	06412403          	lw	s0,100(sp)
   1b4c0:	07012b03          	lw	s6,112(sp)
   1b4c4:	07812a83          	lw	s5,120(sp)
   1b4c8:	07c12d03          	lw	s10,124(sp)
   1b4cc:	06812983          	lw	s3,104(sp)
   1b4d0:	0a712823          	sw	t2,176(sp)
   1b4d4:	06712023          	sw	t2,96(sp)
   1b4d8:	0a512a23          	sw	t0,180(sp)
   1b4dc:	04512623          	sw	t0,76(sp)
   1b4e0:	0bf12c23          	sw	t6,184(sp)
   1b4e4:	03f12023          	sw	t6,32(sp)
   1b4e8:	0ac12e23          	sw	a2,188(sp)
   1b4ec:	00c12e23          	sw	a2,28(sp)
   1b4f0:	0a012023          	sw	zero,160(sp)
   1b4f4:	0a012223          	sw	zero,164(sp)
   1b4f8:	0a012423          	sw	zero,168(sp)
   1b4fc:	0ae12623          	sw	a4,172(sp)
   1b500:	3ed050ef          	jal	ra,210ec <__getf2>
   1b504:	0aa04c63          	bgtz	a0,1b5bc <_svfprintf_r+0x2628>
   1b508:	06012383          	lw	t2,96(sp)
   1b50c:	04c12283          	lw	t0,76(sp)
   1b510:	02012f83          	lw	t6,32(sp)
   1b514:	01c12603          	lw	a2,28(sp)
   1b518:	3ffe0737          	lui	a4,0x3ffe0
   1b51c:	000a0593          	mv	a1,s4
   1b520:	000b8513          	mv	a0,s7
   1b524:	0a712823          	sw	t2,176(sp)
   1b528:	0a512a23          	sw	t0,180(sp)
   1b52c:	0bf12c23          	sw	t6,184(sp)
   1b530:	0ac12e23          	sw	a2,188(sp)
   1b534:	0a012023          	sw	zero,160(sp)
   1b538:	0a012223          	sw	zero,164(sp)
   1b53c:	0a012423          	sw	zero,168(sp)
   1b540:	0ae12623          	sw	a4,172(sp)
   1b544:	2dd050ef          	jal	ra,21020 <__eqtf2>
   1b548:	00051863          	bnez	a0,1b558 <_svfprintf_r+0x25c4>
   1b54c:	01812783          	lw	a5,24(sp)
   1b550:	0017fa13          	andi	s4,a5,1
   1b554:	060a1463          	bnez	s4,1b5bc <_svfprintf_r+0x2628>
   1b558:	05012783          	lw	a5,80(sp)
   1b55c:	03000693          	li	a3,48
   1b560:	00178713          	addi	a4,a5,1
   1b564:	00ec8733          	add	a4,s9,a4
   1b568:	0007c863          	bltz	a5,1b578 <_svfprintf_r+0x25e4>
   1b56c:	001c8c93          	addi	s9,s9,1
   1b570:	fedc8fa3          	sb	a3,-1(s9)
   1b574:	ff971ce3          	bne	a4,s9,1b56c <_svfprintf_r+0x25d8>
   1b578:	41ac87b3          	sub	a5,s9,s10
   1b57c:	00f12c23          	sw	a5,24(sp)
   1b580:	878fe06f          	j	195f8 <_svfprintf_r+0x664>
   1b584:	00012623          	sw	zero,12(sp)
   1b588:	00078993          	mv	s3,a5
   1b58c:	800007b7          	lui	a5,0x80000
   1b590:	01c7ce33          	xor	t3,a5,t3
   1b594:	02d00793          	li	a5,45
   1b598:	04f12e23          	sw	a5,92(sp)
   1b59c:	c6dff06f          	j	1b208 <_svfprintf_r+0x2274>
   1b5a0:	001b0593          	addi	a1,s6,1
   1b5a4:	000a8513          	mv	a0,s5
   1b5a8:	90dfb0ef          	jal	ra,16eb4 <_malloc_r>
   1b5ac:	00050d13          	mv	s10,a0
   1b5b0:	46050263          	beqz	a0,1ba14 <_svfprintf_r+0x2a80>
   1b5b4:	00a12623          	sw	a0,12(sp)
   1b5b8:	c2dff06f          	j	1b1e4 <_svfprintf_r+0x2250>
   1b5bc:	01412783          	lw	a5,20(sp)
   1b5c0:	000c8713          	mv	a4,s9
   1b5c4:	0cf12e23          	sw	a5,220(sp)
   1b5c8:	03412783          	lw	a5,52(sp)
   1b5cc:	fffcc683          	lbu	a3,-1(s9)
   1b5d0:	00f7c603          	lbu	a2,15(a5) # 8000000f <__global_pointer$+0x7ffd8a9f>
   1b5d4:	02d61063          	bne	a2,a3,1b5f4 <_svfprintf_r+0x2660>
   1b5d8:	03000593          	li	a1,48
   1b5dc:	feb70fa3          	sb	a1,-1(a4) # 3ffdffff <__global_pointer$+0x3ffb8a8f>
   1b5e0:	0dc12703          	lw	a4,220(sp)
   1b5e4:	fff70793          	addi	a5,a4,-1
   1b5e8:	0cf12e23          	sw	a5,220(sp)
   1b5ec:	fff74683          	lbu	a3,-1(a4)
   1b5f0:	fed606e3          	beq	a2,a3,1b5dc <_svfprintf_r+0x2648>
   1b5f4:	00168613          	addi	a2,a3,1
   1b5f8:	03900593          	li	a1,57
   1b5fc:	0ff67613          	andi	a2,a2,255
   1b600:	00b68663          	beq	a3,a1,1b60c <_svfprintf_r+0x2678>
   1b604:	fec70fa3          	sb	a2,-1(a4)
   1b608:	f71ff06f          	j	1b578 <_svfprintf_r+0x25e4>
   1b60c:	03412783          	lw	a5,52(sp)
   1b610:	00a7c603          	lbu	a2,10(a5)
   1b614:	fec70fa3          	sb	a2,-1(a4)
   1b618:	f61ff06f          	j	1b578 <_svfprintf_r+0x25e4>
   1b61c:	03000793          	li	a5,48
   1b620:	0cf10423          	sb	a5,200(sp)
   1b624:	07800793          	li	a5,120
   1b628:	ba1ff06f          	j	1b1c8 <_svfprintf_r+0x2234>
   1b62c:	001b0a13          	addi	s4,s6,1
   1b630:	0b010b93          	addi	s7,sp,176
   1b634:	0dc10813          	addi	a6,sp,220
   1b638:	0d010793          	addi	a5,sp,208
   1b63c:	0cc10713          	addi	a4,sp,204
   1b640:	000a0693          	mv	a3,s4
   1b644:	00200613          	li	a2,2
   1b648:	000b8593          	mv	a1,s7
   1b64c:	000a8513          	mv	a0,s5
   1b650:	0bd12823          	sw	t4,176(sp)
   1b654:	03d12023          	sw	t4,32(sp)
   1b658:	0be12a23          	sw	t5,180(sp)
   1b65c:	01e12e23          	sw	t5,28(sp)
   1b660:	0bf12c23          	sw	t6,184(sp)
   1b664:	01f12c23          	sw	t6,24(sp)
   1b668:	0bc12e23          	sw	t3,188(sp)
   1b66c:	01c12a23          	sw	t3,20(sp)
   1b670:	a40fa0ef          	jal	ra,158b0 <_ldtoa_r>
   1b674:	01412e03          	lw	t3,20(sp)
   1b678:	01812f83          	lw	t6,24(sp)
   1b67c:	01c12f03          	lw	t5,28(sp)
   1b680:	02012e83          	lw	t4,32(sp)
   1b684:	00050d13          	mv	s10,a0
   1b688:	0a010793          	addi	a5,sp,160
   1b68c:	014d0a33          	add	s4,s10,s4
   1b690:	04f12c23          	sw	a5,88(sp)
   1b694:	9edff06f          	j	1b080 <_svfprintf_r+0x20ec>
   1b698:	00009697          	auipc	a3,0x9
   1b69c:	69468693          	addi	a3,a3,1684 # 24d2c <zeroes.4490>
   1b6a0:	008787b3          	add	a5,a5,s0
   1b6a4:	00170713          	addi	a4,a4,1
   1b6a8:	00d8a023          	sw	a3,0(a7)
   1b6ac:	0088a223          	sw	s0,4(a7)
   1b6b0:	0ef12623          	sw	a5,236(sp)
   1b6b4:	0ee12423          	sw	a4,232(sp)
   1b6b8:	00700693          	li	a3,7
   1b6bc:	00888893          	addi	a7,a7,8
   1b6c0:	b0e6d263          	bge	a3,a4,1a9c4 <_svfprintf_r+0x1a30>
   1b6c4:	00812583          	lw	a1,8(sp)
   1b6c8:	0e410613          	addi	a2,sp,228
   1b6cc:	000a8513          	mv	a0,s5
   1b6d0:	309020ef          	jal	ra,1e1d8 <__ssprint_r>
   1b6d4:	00050463          	beqz	a0,1b6dc <_svfprintf_r+0x2748>
   1b6d8:	ad1fd06f          	j	191a8 <_svfprintf_r+0x214>
   1b6dc:	0ec12783          	lw	a5,236(sp)
   1b6e0:	0e812703          	lw	a4,232(sp)
   1b6e4:	10c10893          	addi	a7,sp,268
   1b6e8:	adcff06f          	j	1a9c4 <_svfprintf_r+0x1a30>
   1b6ec:	0a010793          	addi	a5,sp,160
   1b6f0:	016d0a33          	add	s4,s10,s6
   1b6f4:	04f12c23          	sw	a5,88(sp)
   1b6f8:	989ff06f          	j	1b080 <_svfprintf_r+0x20ec>
   1b6fc:	000b0463          	beqz	s6,1b704 <_svfprintf_r+0x2770>
   1b700:	e2dfd06f          	j	1952c <_svfprintf_r+0x598>
   1b704:	00100b13          	li	s6,1
   1b708:	e25fd06f          	j	1952c <_svfprintf_r+0x598>
   1b70c:	fff00793          	li	a5,-1
   1b710:	00f12223          	sw	a5,4(sp)
   1b714:	abdfd06f          	j	191d0 <_svfprintf_r+0x23c>
   1b718:	06700413          	li	s0,103
   1b71c:	03c12583          	lw	a1,60(sp)
   1b720:	01412703          	lw	a4,20(sp)
   1b724:	02012023          	sw	zero,32(sp)
   1b728:	0005c783          	lbu	a5,0(a1)
   1b72c:	00012e23          	sw	zero,28(sp)
   1b730:	0ff00693          	li	a3,255
   1b734:	02d78e63          	beq	a5,a3,1b770 <_svfprintf_r+0x27dc>
   1b738:	02e7dc63          	bge	a5,a4,1b770 <_svfprintf_r+0x27dc>
   1b73c:	0015c603          	lbu	a2,1(a1)
   1b740:	40f70733          	sub	a4,a4,a5
   1b744:	00060e63          	beqz	a2,1b760 <_svfprintf_r+0x27cc>
   1b748:	01c12783          	lw	a5,28(sp)
   1b74c:	00158593          	addi	a1,a1,1
   1b750:	00178793          	addi	a5,a5,1
   1b754:	00f12e23          	sw	a5,28(sp)
   1b758:	00060793          	mv	a5,a2
   1b75c:	fd9ff06f          	j	1b734 <_svfprintf_r+0x27a0>
   1b760:	02012603          	lw	a2,32(sp)
   1b764:	00160613          	addi	a2,a2,1
   1b768:	02c12023          	sw	a2,32(sp)
   1b76c:	fc9ff06f          	j	1b734 <_svfprintf_r+0x27a0>
   1b770:	00e12a23          	sw	a4,20(sp)
   1b774:	01c12783          	lw	a5,28(sp)
   1b778:	02012703          	lw	a4,32(sp)
   1b77c:	02b12e23          	sw	a1,60(sp)
   1b780:	04012583          	lw	a1,64(sp)
   1b784:	00e78533          	add	a0,a5,a4
   1b788:	50d080ef          	jal	ra,24494 <__mulsi3>
   1b78c:	01750bb3          	add	s7,a0,s7
   1b790:	fffbca13          	not	s4,s7
   1b794:	41fa5a13          	srai	s4,s4,0x1f
   1b798:	014bfa33          	and	s4,s7,s4
   1b79c:	fb1fd06f          	j	1974c <_svfprintf_r+0x7b8>
   1b7a0:	0b010b93          	addi	s7,sp,176
   1b7a4:	000b8513          	mv	a0,s7
   1b7a8:	0bd12823          	sw	t4,176(sp)
   1b7ac:	0be12a23          	sw	t5,180(sp)
   1b7b0:	0bf12c23          	sw	t6,184(sp)
   1b7b4:	0bc12e23          	sw	t3,188(sp)
   1b7b8:	1a9080ef          	jal	ra,24160 <__trunctfdf2>
   1b7bc:	0cc10613          	addi	a2,sp,204
   1b7c0:	95cfd0ef          	jal	ra,1891c <frexp>
   1b7c4:	00058613          	mv	a2,a1
   1b7c8:	00050593          	mv	a1,a0
   1b7cc:	000b8513          	mv	a0,s7
   1b7d0:	788080ef          	jal	ra,23f58 <__extenddftf2>
   1b7d4:	09010793          	addi	a5,sp,144
   1b7d8:	00078593          	mv	a1,a5
   1b7dc:	00f12c23          	sw	a5,24(sp)
   1b7e0:	0b012783          	lw	a5,176(sp)
   1b7e4:	0a010a13          	addi	s4,sp,160
   1b7e8:	08010613          	addi	a2,sp,128
   1b7ec:	08f12823          	sw	a5,144(sp)
   1b7f0:	0b412783          	lw	a5,180(sp)
   1b7f4:	000a0513          	mv	a0,s4
   1b7f8:	04c12623          	sw	a2,76(sp)
   1b7fc:	08f12a23          	sw	a5,148(sp)
   1b800:	0b812783          	lw	a5,184(sp)
   1b804:	05412c23          	sw	s4,88(sp)
   1b808:	08012023          	sw	zero,128(sp)
   1b80c:	08f12c23          	sw	a5,152(sp)
   1b810:	0bc12783          	lw	a5,188(sp)
   1b814:	08012223          	sw	zero,132(sp)
   1b818:	08012423          	sw	zero,136(sp)
   1b81c:	08f12e23          	sw	a5,156(sp)
   1b820:	3ffc07b7          	lui	a5,0x3ffc0
   1b824:	08f12623          	sw	a5,140(sp)
   1b828:	34d050ef          	jal	ra,21374 <__multf3>
   1b82c:	0a012683          	lw	a3,160(sp)
   1b830:	0a412e03          	lw	t3,164(sp)
   1b834:	0a812e83          	lw	t4,168(sp)
   1b838:	0ac12f03          	lw	t5,172(sp)
   1b83c:	000a0593          	mv	a1,s4
   1b840:	000b8513          	mv	a0,s7
   1b844:	0ad12823          	sw	a3,176(sp)
   1b848:	02d12a23          	sw	a3,52(sp)
   1b84c:	0bc12a23          	sw	t3,180(sp)
   1b850:	03c12023          	sw	t3,32(sp)
   1b854:	0bd12c23          	sw	t4,184(sp)
   1b858:	01d12e23          	sw	t4,28(sp)
   1b85c:	0be12e23          	sw	t5,188(sp)
   1b860:	01e12a23          	sw	t5,20(sp)
   1b864:	0a012023          	sw	zero,160(sp)
   1b868:	0a012223          	sw	zero,164(sp)
   1b86c:	0a012423          	sw	zero,168(sp)
   1b870:	0a012623          	sw	zero,172(sp)
   1b874:	7ac050ef          	jal	ra,21020 <__eqtf2>
   1b878:	01412f03          	lw	t5,20(sp)
   1b87c:	01c12e83          	lw	t4,28(sp)
   1b880:	02012e03          	lw	t3,32(sp)
   1b884:	03412683          	lw	a3,52(sp)
   1b888:	00051663          	bnez	a0,1b894 <_svfprintf_r+0x2900>
   1b88c:	00100793          	li	a5,1
   1b890:	0cf12623          	sw	a5,204(sp)
   1b894:	00009797          	auipc	a5,0x9
   1b898:	f3078793          	addi	a5,a5,-208 # 247c4 <zeroes.4505+0x20>
   1b89c:	02f12a23          	sw	a5,52(sp)
   1b8a0:	a7dff06f          	j	1b31c <_svfprintf_r+0x2388>
   1b8a4:	0d610793          	addi	a5,sp,214
   1b8a8:	00071863          	bnez	a4,1b8b8 <_svfprintf_r+0x2924>
   1b8ac:	03000793          	li	a5,48
   1b8b0:	0cf10b23          	sb	a5,214(sp)
   1b8b4:	0d710793          	addi	a5,sp,215
   1b8b8:	1b010713          	addi	a4,sp,432
   1b8bc:	030a0a13          	addi	s4,s4,48
   1b8c0:	40e78733          	sub	a4,a5,a4
   1b8c4:	01478023          	sb	s4,0(a5)
   1b8c8:	0dd70793          	addi	a5,a4,221
   1b8cc:	02f12c23          	sw	a5,56(sp)
   1b8d0:	e39fd06f          	j	19708 <_svfprintf_r+0x774>
   1b8d4:	02812783          	lw	a5,40(sp)
   1b8d8:	06600413          	li	s0,102
   1b8dc:	00f70bb3          	add	s7,a4,a5
   1b8e0:	016b8bb3          	add	s7,s7,s6
   1b8e4:	899ff06f          	j	1b17c <_svfprintf_r+0x21e8>
   1b8e8:	40fb8bb3          	sub	s7,s7,a5
   1b8ec:	001b8b93          	addi	s7,s7,1
   1b8f0:	fffbca13          	not	s4,s7
   1b8f4:	41fa5a13          	srai	s4,s4,0x1f
   1b8f8:	014bfa33          	and	s4,s7,s4
   1b8fc:	e68ff06f          	j	1af64 <_svfprintf_r+0x1fd0>
   1b900:	0a010593          	addi	a1,sp,160
   1b904:	000b8513          	mv	a0,s7
   1b908:	0bd12823          	sw	t4,176(sp)
   1b90c:	03d12023          	sw	t4,32(sp)
   1b910:	0be12a23          	sw	t5,180(sp)
   1b914:	01e12e23          	sw	t5,28(sp)
   1b918:	0bf12c23          	sw	t6,184(sp)
   1b91c:	01f12c23          	sw	t6,24(sp)
   1b920:	0bc12e23          	sw	t3,188(sp)
   1b924:	01c12a23          	sw	t3,20(sp)
   1b928:	04b12c23          	sw	a1,88(sp)
   1b92c:	0a012023          	sw	zero,160(sp)
   1b930:	0a012223          	sw	zero,164(sp)
   1b934:	0a012423          	sw	zero,168(sp)
   1b938:	0a012623          	sw	zero,172(sp)
   1b93c:	6e4050ef          	jal	ra,21020 <__eqtf2>
   1b940:	01412e03          	lw	t3,20(sp)
   1b944:	01812f83          	lw	t6,24(sp)
   1b948:	01c12f03          	lw	t5,28(sp)
   1b94c:	02012e83          	lw	t4,32(sp)
   1b950:	f2050263          	beqz	a0,1b074 <_svfprintf_r+0x20e0>
   1b954:	00100793          	li	a5,1
   1b958:	416787b3          	sub	a5,a5,s6
   1b95c:	0cf12623          	sw	a5,204(sp)
   1b960:	f18ff06f          	j	1b078 <_svfprintf_r+0x20e4>
   1b964:	05412783          	lw	a5,84(sp)
   1b968:	0017f793          	andi	a5,a5,1
   1b96c:	00079463          	bnez	a5,1b974 <_svfprintf_r+0x29e0>
   1b970:	db9fd06f          	j	19728 <_svfprintf_r+0x794>
   1b974:	dadfd06f          	j	19720 <_svfprintf_r+0x78c>
   1b978:	000d8613          	mv	a2,s11
   1b97c:	b44ff06f          	j	1acc0 <_svfprintf_r+0x1d2c>
   1b980:	00079a63          	bnez	a5,1b994 <_svfprintf_r+0x2a00>
   1b984:	00100a13          	li	s4,1
   1b988:	06600413          	li	s0,102
   1b98c:	00100b93          	li	s7,1
   1b990:	dd4ff06f          	j	1af64 <_svfprintf_r+0x1fd0>
   1b994:	02812783          	lw	a5,40(sp)
   1b998:	06600413          	li	s0,102
   1b99c:	00178b93          	addi	s7,a5,1
   1b9a0:	016b8bb3          	add	s7,s7,s6
   1b9a4:	fffbca13          	not	s4,s7
   1b9a8:	41fa5a13          	srai	s4,s4,0x1f
   1b9ac:	014bfa33          	and	s4,s7,s4
   1b9b0:	db4ff06f          	j	1af64 <_svfprintf_r+0x1fd0>
   1b9b4:	01012703          	lw	a4,16(sp)
   1b9b8:	00072b03          	lw	s6,0(a4)
   1b9bc:	00470713          	addi	a4,a4,4
   1b9c0:	000b5463          	bgez	s6,1b9c8 <_svfprintf_r+0x2a34>
   1b9c4:	fff00b13          	li	s6,-1
   1b9c8:	00194403          	lbu	s0,1(s2)
   1b9cc:	00e12823          	sw	a4,16(sp)
   1b9d0:	00078913          	mv	s2,a5
   1b9d4:	f20fd06f          	j	190f4 <_svfprintf_r+0x160>
   1b9d8:	00098a13          	mv	s4,s3
   1b9dc:	e79fd06f          	j	19854 <_svfprintf_r+0x8c0>
   1b9e0:	000b0a13          	mv	s4,s6
   1b9e4:	ca5ff06f          	j	1b688 <_svfprintf_r+0x26f4>
   1b9e8:	00200793          	li	a5,2
   1b9ec:	02f12c23          	sw	a5,56(sp)
   1b9f0:	d19fd06f          	j	19708 <_svfprintf_r+0x774>
   1b9f4:	02412703          	lw	a4,36(sp)
   1b9f8:	00c00793          	li	a5,12
   1b9fc:	00f72023          	sw	a5,0(a4)
   1ba00:	fff00793          	li	a5,-1
   1ba04:	00f12223          	sw	a5,4(sp)
   1ba08:	fc8fd06f          	j	191d0 <_svfprintf_r+0x23c>
   1ba0c:	00098a13          	mv	s4,s3
   1ba10:	d71fd06f          	j	19780 <_svfprintf_r+0x7ec>
   1ba14:	00812683          	lw	a3,8(sp)
   1ba18:	00c6d783          	lhu	a5,12(a3)
   1ba1c:	0407e713          	ori	a4,a5,64
   1ba20:	00070793          	mv	a5,a4
   1ba24:	00e69623          	sh	a4,12(a3)
   1ba28:	f9cfd06f          	j	191c4 <_svfprintf_r+0x230>

0001ba2c <__sprint_r.part.0>:
   1ba2c:	0645a783          	lw	a5,100(a1)
   1ba30:	fd010113          	addi	sp,sp,-48
   1ba34:	01612823          	sw	s6,16(sp)
   1ba38:	02112623          	sw	ra,44(sp)
   1ba3c:	02812423          	sw	s0,40(sp)
   1ba40:	02912223          	sw	s1,36(sp)
   1ba44:	03212023          	sw	s2,32(sp)
   1ba48:	01312e23          	sw	s3,28(sp)
   1ba4c:	01412c23          	sw	s4,24(sp)
   1ba50:	01512a23          	sw	s5,20(sp)
   1ba54:	01712623          	sw	s7,12(sp)
   1ba58:	01812423          	sw	s8,8(sp)
   1ba5c:	01279713          	slli	a4,a5,0x12
   1ba60:	00060b13          	mv	s6,a2
   1ba64:	0a075863          	bgez	a4,1bb14 <__sprint_r.part.0+0xe8>
   1ba68:	00862783          	lw	a5,8(a2)
   1ba6c:	00058913          	mv	s2,a1
   1ba70:	00050a13          	mv	s4,a0
   1ba74:	00062b83          	lw	s7,0(a2)
   1ba78:	fff00a93          	li	s5,-1
   1ba7c:	08078863          	beqz	a5,1bb0c <__sprint_r.part.0+0xe0>
   1ba80:	004bac03          	lw	s8,4(s7)
   1ba84:	000ba403          	lw	s0,0(s7)
   1ba88:	002c5993          	srli	s3,s8,0x2
   1ba8c:	06098663          	beqz	s3,1baf8 <__sprint_r.part.0+0xcc>
   1ba90:	00000493          	li	s1,0
   1ba94:	00c0006f          	j	1baa0 <__sprint_r.part.0+0x74>
   1ba98:	00440413          	addi	s0,s0,4
   1ba9c:	04998c63          	beq	s3,s1,1baf4 <__sprint_r.part.0+0xc8>
   1baa0:	00042583          	lw	a1,0(s0)
   1baa4:	00090613          	mv	a2,s2
   1baa8:	000a0513          	mv	a0,s4
   1baac:	039010ef          	jal	ra,1d2e4 <_fputwc_r>
   1bab0:	00148493          	addi	s1,s1,1
   1bab4:	ff5512e3          	bne	a0,s5,1ba98 <__sprint_r.part.0+0x6c>
   1bab8:	fff00513          	li	a0,-1
   1babc:	02c12083          	lw	ra,44(sp)
   1bac0:	02812403          	lw	s0,40(sp)
   1bac4:	000b2423          	sw	zero,8(s6)
   1bac8:	000b2223          	sw	zero,4(s6)
   1bacc:	02412483          	lw	s1,36(sp)
   1bad0:	02012903          	lw	s2,32(sp)
   1bad4:	01c12983          	lw	s3,28(sp)
   1bad8:	01812a03          	lw	s4,24(sp)
   1badc:	01412a83          	lw	s5,20(sp)
   1bae0:	01012b03          	lw	s6,16(sp)
   1bae4:	00c12b83          	lw	s7,12(sp)
   1bae8:	00812c03          	lw	s8,8(sp)
   1baec:	03010113          	addi	sp,sp,48
   1baf0:	00008067          	ret
   1baf4:	008b2783          	lw	a5,8(s6)
   1baf8:	ffcc7c13          	andi	s8,s8,-4
   1bafc:	418787b3          	sub	a5,a5,s8
   1bb00:	00fb2423          	sw	a5,8(s6)
   1bb04:	008b8b93          	addi	s7,s7,8
   1bb08:	f6079ce3          	bnez	a5,1ba80 <__sprint_r.part.0+0x54>
   1bb0c:	00000513          	li	a0,0
   1bb10:	fadff06f          	j	1babc <__sprint_r.part.0+0x90>
   1bb14:	0dd010ef          	jal	ra,1d3f0 <__sfvwrite_r>
   1bb18:	fa5ff06f          	j	1babc <__sprint_r.part.0+0x90>

0001bb1c <__sprint_r>:
   1bb1c:	00862703          	lw	a4,8(a2)
   1bb20:	00070463          	beqz	a4,1bb28 <__sprint_r+0xc>
   1bb24:	f09ff06f          	j	1ba2c <__sprint_r.part.0>
   1bb28:	00062223          	sw	zero,4(a2)
   1bb2c:	00000513          	li	a0,0
   1bb30:	00008067          	ret

0001bb34 <_vfiprintf_r>:
   1bb34:	ed010113          	addi	sp,sp,-304
   1bb38:	13212023          	sw	s2,288(sp)
   1bb3c:	11312e23          	sw	s3,284(sp)
   1bb40:	11812423          	sw	s8,264(sp)
   1bb44:	12112623          	sw	ra,300(sp)
   1bb48:	12812423          	sw	s0,296(sp)
   1bb4c:	12912223          	sw	s1,292(sp)
   1bb50:	11412c23          	sw	s4,280(sp)
   1bb54:	11512a23          	sw	s5,276(sp)
   1bb58:	11612823          	sw	s6,272(sp)
   1bb5c:	11712623          	sw	s7,268(sp)
   1bb60:	11912223          	sw	s9,260(sp)
   1bb64:	11a12023          	sw	s10,256(sp)
   1bb68:	0fb12e23          	sw	s11,252(sp)
   1bb6c:	00d12623          	sw	a3,12(sp)
   1bb70:	00050993          	mv	s3,a0
   1bb74:	00058913          	mv	s2,a1
   1bb78:	00060c13          	mv	s8,a2
   1bb7c:	00050663          	beqz	a0,1bb88 <_vfiprintf_r+0x54>
   1bb80:	03852783          	lw	a5,56(a0)
   1bb84:	180782e3          	beqz	a5,1c508 <_vfiprintf_r+0x9d4>
   1bb88:	00c91703          	lh	a4,12(s2)
   1bb8c:	01071793          	slli	a5,a4,0x10
   1bb90:	0107d793          	srli	a5,a5,0x10
   1bb94:	01279693          	slli	a3,a5,0x12
   1bb98:	0206c663          	bltz	a3,1bbc4 <_vfiprintf_r+0x90>
   1bb9c:	06492683          	lw	a3,100(s2)
   1bba0:	000027b7          	lui	a5,0x2
   1bba4:	00f767b3          	or	a5,a4,a5
   1bba8:	ffffe737          	lui	a4,0xffffe
   1bbac:	fff70713          	addi	a4,a4,-1 # ffffdfff <__global_pointer$+0xfffd6a8f>
   1bbb0:	00e6f733          	and	a4,a3,a4
   1bbb4:	00f91623          	sh	a5,12(s2)
   1bbb8:	01079793          	slli	a5,a5,0x10
   1bbbc:	06e92223          	sw	a4,100(s2)
   1bbc0:	0107d793          	srli	a5,a5,0x10
   1bbc4:	0087f713          	andi	a4,a5,8
   1bbc8:	16070863          	beqz	a4,1bd38 <_vfiprintf_r+0x204>
   1bbcc:	01092703          	lw	a4,16(s2)
   1bbd0:	16070463          	beqz	a4,1bd38 <_vfiprintf_r+0x204>
   1bbd4:	01a7f793          	andi	a5,a5,26
   1bbd8:	00a00713          	li	a4,10
   1bbdc:	18e78063          	beq	a5,a4,1bd5c <_vfiprintf_r+0x228>
   1bbe0:	ffff87b7          	lui	a5,0xffff8
   1bbe4:	04c10493          	addi	s1,sp,76
   1bbe8:	8307c793          	xori	a5,a5,-2000
   1bbec:	04912023          	sw	s1,64(sp)
   1bbf0:	04012423          	sw	zero,72(sp)
   1bbf4:	04012223          	sw	zero,68(sp)
   1bbf8:	00012823          	sw	zero,16(sp)
   1bbfc:	00012c23          	sw	zero,24(sp)
   1bc00:	02012023          	sw	zero,32(sp)
   1bc04:	00012e23          	sw	zero,28(sp)
   1bc08:	00012423          	sw	zero,8(sp)
   1bc0c:	00009a97          	auipc	s5,0x9
   1bc10:	130a8a93          	addi	s5,s5,304 # 24d3c <zeroes.4490+0x10>
   1bc14:	02f12223          	sw	a5,36(sp)
   1bc18:	00048413          	mv	s0,s1
   1bc1c:	000c0c93          	mv	s9,s8
   1bc20:	000cc783          	lbu	a5,0(s9)
   1bc24:	16078463          	beqz	a5,1bd8c <_vfiprintf_r+0x258>
   1bc28:	02500713          	li	a4,37
   1bc2c:	5ce784e3          	beq	a5,a4,1c9f4 <_vfiprintf_r+0xec0>
   1bc30:	000c8a13          	mv	s4,s9
   1bc34:	00c0006f          	j	1bc40 <_vfiprintf_r+0x10c>
   1bc38:	14e78463          	beq	a5,a4,1bd80 <_vfiprintf_r+0x24c>
   1bc3c:	000d0a13          	mv	s4,s10
   1bc40:	001a4783          	lbu	a5,1(s4)
   1bc44:	001a0d13          	addi	s10,s4,1
   1bc48:	fe0798e3          	bnez	a5,1bc38 <_vfiprintf_r+0x104>
   1bc4c:	419d0c33          	sub	s8,s10,s9
   1bc50:	120c0e63          	beqz	s8,1bd8c <_vfiprintf_r+0x258>
   1bc54:	04812703          	lw	a4,72(sp)
   1bc58:	04412783          	lw	a5,68(sp)
   1bc5c:	01942023          	sw	s9,0(s0)
   1bc60:	00ec0733          	add	a4,s8,a4
   1bc64:	00178793          	addi	a5,a5,1 # ffff8001 <__global_pointer$+0xfffd0a91>
   1bc68:	01842223          	sw	s8,4(s0)
   1bc6c:	04e12423          	sw	a4,72(sp)
   1bc70:	04f12223          	sw	a5,68(sp)
   1bc74:	00700693          	li	a3,7
   1bc78:	00840413          	addi	s0,s0,8
   1bc7c:	02f6d063          	bge	a3,a5,1bc9c <_vfiprintf_r+0x168>
   1bc80:	520706e3          	beqz	a4,1c9ac <_vfiprintf_r+0xe78>
   1bc84:	04010613          	addi	a2,sp,64
   1bc88:	00090593          	mv	a1,s2
   1bc8c:	00098513          	mv	a0,s3
   1bc90:	d9dff0ef          	jal	ra,1ba2c <__sprint_r.part.0>
   1bc94:	10051863          	bnez	a0,1bda4 <_vfiprintf_r+0x270>
   1bc98:	00048413          	mv	s0,s1
   1bc9c:	00812703          	lw	a4,8(sp)
   1bca0:	001a4783          	lbu	a5,1(s4)
   1bca4:	01870733          	add	a4,a4,s8
   1bca8:	00e12423          	sw	a4,8(sp)
   1bcac:	0e078063          	beqz	a5,1bd8c <_vfiprintf_r+0x258>
   1bcb0:	001d0c93          	addi	s9,s10,1
   1bcb4:	001d4703          	lbu	a4,1(s10)
   1bcb8:	02010da3          	sb	zero,59(sp)
   1bcbc:	fff00c13          	li	s8,-1
   1bcc0:	00000a13          	li	s4,0
   1bcc4:	00000b93          	li	s7,0
   1bcc8:	02a00d13          	li	s10,42
   1bccc:	001c8c93          	addi	s9,s9,1
   1bcd0:	05a00693          	li	a3,90
   1bcd4:	fe070793          	addi	a5,a4,-32
   1bcd8:	1ef6e063          	bltu	a3,a5,1beb8 <_vfiprintf_r+0x384>
   1bcdc:	00279793          	slli	a5,a5,0x2
   1bce0:	015787b3          	add	a5,a5,s5
   1bce4:	0007a783          	lw	a5,0(a5)
   1bce8:	015787b3          	add	a5,a5,s5
   1bcec:	00078067          	jr	a5
   1bcf0:	00098513          	mv	a0,s3
   1bcf4:	f1dfa0ef          	jal	ra,16c10 <_localeconv_r>
   1bcf8:	00452783          	lw	a5,4(a0)
   1bcfc:	00078513          	mv	a0,a5
   1bd00:	00f12e23          	sw	a5,28(sp)
   1bd04:	938fd0ef          	jal	ra,18e3c <strlen>
   1bd08:	02a12023          	sw	a0,32(sp)
   1bd0c:	00050b13          	mv	s6,a0
   1bd10:	00098513          	mv	a0,s3
   1bd14:	efdfa0ef          	jal	ra,16c10 <_localeconv_r>
   1bd18:	00852783          	lw	a5,8(a0)
   1bd1c:	00f12c23          	sw	a5,24(sp)
   1bd20:	560b14e3          	bnez	s6,1ca88 <_vfiprintf_r+0xf54>
   1bd24:	000cc703          	lbu	a4,0(s9)
   1bd28:	fa5ff06f          	j	1bccc <_vfiprintf_r+0x198>
   1bd2c:	020beb93          	ori	s7,s7,32
   1bd30:	000cc703          	lbu	a4,0(s9)
   1bd34:	f99ff06f          	j	1bccc <_vfiprintf_r+0x198>
   1bd38:	00090593          	mv	a1,s2
   1bd3c:	00098513          	mv	a0,s3
   1bd40:	c24f70ef          	jal	ra,13164 <__swsetup_r>
   1bd44:	00050463          	beqz	a0,1bd4c <_vfiprintf_r+0x218>
   1bd48:	0600106f          	j	1cda8 <_vfiprintf_r+0x1274>
   1bd4c:	00c95783          	lhu	a5,12(s2)
   1bd50:	00a00713          	li	a4,10
   1bd54:	01a7f793          	andi	a5,a5,26
   1bd58:	e8e794e3          	bne	a5,a4,1bbe0 <_vfiprintf_r+0xac>
   1bd5c:	00e91783          	lh	a5,14(s2)
   1bd60:	e807c0e3          	bltz	a5,1bbe0 <_vfiprintf_r+0xac>
   1bd64:	00c12683          	lw	a3,12(sp)
   1bd68:	000c0613          	mv	a2,s8
   1bd6c:	00090593          	mv	a1,s2
   1bd70:	00098513          	mv	a0,s3
   1bd74:	0a8010ef          	jal	ra,1ce1c <__sbprintf>
   1bd78:	00a12423          	sw	a0,8(sp)
   1bd7c:	0380006f          	j	1bdb4 <_vfiprintf_r+0x280>
   1bd80:	419d0c33          	sub	s8,s10,s9
   1bd84:	f20c06e3          	beqz	s8,1bcb0 <_vfiprintf_r+0x17c>
   1bd88:	ecdff06f          	j	1bc54 <_vfiprintf_r+0x120>
   1bd8c:	04812783          	lw	a5,72(sp)
   1bd90:	00078a63          	beqz	a5,1bda4 <_vfiprintf_r+0x270>
   1bd94:	04010613          	addi	a2,sp,64
   1bd98:	00090593          	mv	a1,s2
   1bd9c:	00098513          	mv	a0,s3
   1bda0:	c8dff0ef          	jal	ra,1ba2c <__sprint_r.part.0>
   1bda4:	00c95783          	lhu	a5,12(s2)
   1bda8:	0407f793          	andi	a5,a5,64
   1bdac:	00078463          	beqz	a5,1bdb4 <_vfiprintf_r+0x280>
   1bdb0:	7f90006f          	j	1cda8 <_vfiprintf_r+0x1274>
   1bdb4:	12c12083          	lw	ra,300(sp)
   1bdb8:	12812403          	lw	s0,296(sp)
   1bdbc:	00812503          	lw	a0,8(sp)
   1bdc0:	12412483          	lw	s1,292(sp)
   1bdc4:	12012903          	lw	s2,288(sp)
   1bdc8:	11c12983          	lw	s3,284(sp)
   1bdcc:	11812a03          	lw	s4,280(sp)
   1bdd0:	11412a83          	lw	s5,276(sp)
   1bdd4:	11012b03          	lw	s6,272(sp)
   1bdd8:	10c12b83          	lw	s7,268(sp)
   1bddc:	10812c03          	lw	s8,264(sp)
   1bde0:	10412c83          	lw	s9,260(sp)
   1bde4:	10012d03          	lw	s10,256(sp)
   1bde8:	0fc12d83          	lw	s11,252(sp)
   1bdec:	13010113          	addi	sp,sp,304
   1bdf0:	00008067          	ret
   1bdf4:	00009797          	auipc	a5,0x9
   1bdf8:	9e478793          	addi	a5,a5,-1564 # 247d8 <zeroes.4505+0x34>
   1bdfc:	00f12823          	sw	a5,16(sp)
   1be00:	020bf793          	andi	a5,s7,32
   1be04:	52078463          	beqz	a5,1c32c <_vfiprintf_r+0x7f8>
   1be08:	00c12783          	lw	a5,12(sp)
   1be0c:	00778693          	addi	a3,a5,7
   1be10:	ff86f693          	andi	a3,a3,-8
   1be14:	0006ad83          	lw	s11,0(a3)
   1be18:	0046ae03          	lw	t3,4(a3)
   1be1c:	00868793          	addi	a5,a3,8
   1be20:	00f12623          	sw	a5,12(sp)
   1be24:	001bf693          	andi	a3,s7,1
   1be28:	00068663          	beqz	a3,1be34 <_vfiprintf_r+0x300>
   1be2c:	01cde6b3          	or	a3,s11,t3
   1be30:	42069ee3          	bnez	a3,1ca6c <_vfiprintf_r+0xf38>
   1be34:	bffbfd13          	andi	s10,s7,-1025
   1be38:	00200713          	li	a4,2
   1be3c:	02010da3          	sb	zero,59(sp)
   1be40:	fff00693          	li	a3,-1
   1be44:	64dc0a63          	beq	s8,a3,1c498 <_vfiprintf_r+0x964>
   1be48:	01cde6b3          	or	a3,s11,t3
   1be4c:	f7fd7b93          	andi	s7,s10,-129
   1be50:	20069ee3          	bnez	a3,1c86c <_vfiprintf_r+0xd38>
   1be54:	720c1c63          	bnez	s8,1c58c <_vfiprintf_r+0xa58>
   1be58:	360712e3          	bnez	a4,1c9bc <_vfiprintf_r+0xe88>
   1be5c:	001d7d93          	andi	s11,s10,1
   1be60:	0f010b13          	addi	s6,sp,240
   1be64:	3a0d96e3          	bnez	s11,1ca10 <_vfiprintf_r+0xedc>
   1be68:	000c0d13          	mv	s10,s8
   1be6c:	01bc5463          	bge	s8,s11,1be74 <_vfiprintf_r+0x340>
   1be70:	000d8d13          	mv	s10,s11
   1be74:	03b14783          	lbu	a5,59(sp)
   1be78:	00f037b3          	snez	a5,a5
   1be7c:	00fd0d33          	add	s10,s10,a5
   1be80:	0540006f          	j	1bed4 <_vfiprintf_r+0x3a0>
   1be84:	00000a13          	li	s4,0
   1be88:	fd070613          	addi	a2,a4,-48
   1be8c:	001c8c93          	addi	s9,s9,1
   1be90:	002a1793          	slli	a5,s4,0x2
   1be94:	fffcc703          	lbu	a4,-1(s9)
   1be98:	01478a33          	add	s4,a5,s4
   1be9c:	001a1a13          	slli	s4,s4,0x1
   1bea0:	01460a33          	add	s4,a2,s4
   1bea4:	00900793          	li	a5,9
   1bea8:	fd070613          	addi	a2,a4,-48
   1beac:	fec7f0e3          	bgeu	a5,a2,1be8c <_vfiprintf_r+0x358>
   1beb0:	fe070793          	addi	a5,a4,-32
   1beb4:	e2f6f4e3          	bgeu	a3,a5,1bcdc <_vfiprintf_r+0x1a8>
   1beb8:	ec070ae3          	beqz	a4,1bd8c <_vfiprintf_r+0x258>
   1bebc:	08e10623          	sb	a4,140(sp)
   1bec0:	02010da3          	sb	zero,59(sp)
   1bec4:	00100d13          	li	s10,1
   1bec8:	00100d93          	li	s11,1
   1becc:	08c10b13          	addi	s6,sp,140
   1bed0:	00000c13          	li	s8,0
   1bed4:	002bff93          	andi	t6,s7,2
   1bed8:	000f8463          	beqz	t6,1bee0 <_vfiprintf_r+0x3ac>
   1bedc:	002d0d13          	addi	s10,s10,2
   1bee0:	04412703          	lw	a4,68(sp)
   1bee4:	084bf813          	andi	a6,s7,132
   1bee8:	04812783          	lw	a5,72(sp)
   1beec:	00170693          	addi	a3,a4,1
   1bef0:	00068613          	mv	a2,a3
   1bef4:	00081663          	bnez	a6,1bf00 <_vfiprintf_r+0x3cc>
   1bef8:	41aa0e33          	sub	t3,s4,s10
   1befc:	17c04ce3          	bgtz	t3,1c874 <_vfiprintf_r+0xd40>
   1bf00:	03b14583          	lbu	a1,59(sp)
   1bf04:	00840693          	addi	a3,s0,8
   1bf08:	02058c63          	beqz	a1,1bf40 <_vfiprintf_r+0x40c>
   1bf0c:	03b10713          	addi	a4,sp,59
   1bf10:	00178793          	addi	a5,a5,1
   1bf14:	00e42023          	sw	a4,0(s0)
   1bf18:	00100713          	li	a4,1
   1bf1c:	00e42223          	sw	a4,4(s0)
   1bf20:	04f12423          	sw	a5,72(sp)
   1bf24:	04c12223          	sw	a2,68(sp)
   1bf28:	00700713          	li	a4,7
   1bf2c:	10c740e3          	blt	a4,a2,1c82c <_vfiprintf_r+0xcf8>
   1bf30:	00060713          	mv	a4,a2
   1bf34:	00068413          	mv	s0,a3
   1bf38:	00160613          	addi	a2,a2,1
   1bf3c:	00868693          	addi	a3,a3,8
   1bf40:	040f8e63          	beqz	t6,1bf9c <_vfiprintf_r+0x468>
   1bf44:	03c10713          	addi	a4,sp,60
   1bf48:	00278793          	addi	a5,a5,2
   1bf4c:	00e42023          	sw	a4,0(s0)
   1bf50:	00200713          	li	a4,2
   1bf54:	00e42223          	sw	a4,4(s0)
   1bf58:	04f12423          	sw	a5,72(sp)
   1bf5c:	04c12223          	sw	a2,68(sp)
   1bf60:	00700713          	li	a4,7
   1bf64:	0ac75ae3          	bge	a4,a2,1c818 <_vfiprintf_r+0xce4>
   1bf68:	26078ce3          	beqz	a5,1c9e0 <_vfiprintf_r+0xeac>
   1bf6c:	04010613          	addi	a2,sp,64
   1bf70:	00090593          	mv	a1,s2
   1bf74:	00098513          	mv	a0,s3
   1bf78:	01012a23          	sw	a6,20(sp)
   1bf7c:	ab1ff0ef          	jal	ra,1ba2c <__sprint_r.part.0>
   1bf80:	e20512e3          	bnez	a0,1bda4 <_vfiprintf_r+0x270>
   1bf84:	04412703          	lw	a4,68(sp)
   1bf88:	04812783          	lw	a5,72(sp)
   1bf8c:	01412803          	lw	a6,20(sp)
   1bf90:	05410693          	addi	a3,sp,84
   1bf94:	00170613          	addi	a2,a4,1
   1bf98:	00048413          	mv	s0,s1
   1bf9c:	08000593          	li	a1,128
   1bfa0:	64b80a63          	beq	a6,a1,1c5f4 <_vfiprintf_r+0xac0>
   1bfa4:	41bc0c33          	sub	s8,s8,s11
   1bfa8:	75804663          	bgtz	s8,1c6f4 <_vfiprintf_r+0xbc0>
   1bfac:	00fd87b3          	add	a5,s11,a5
   1bfb0:	01642023          	sw	s6,0(s0)
   1bfb4:	01b42223          	sw	s11,4(s0)
   1bfb8:	04f12423          	sw	a5,72(sp)
   1bfbc:	04c12223          	sw	a2,68(sp)
   1bfc0:	00700713          	li	a4,7
   1bfc4:	02c75263          	bge	a4,a2,1bfe8 <_vfiprintf_r+0x4b4>
   1bfc8:	18078463          	beqz	a5,1c150 <_vfiprintf_r+0x61c>
   1bfcc:	04010613          	addi	a2,sp,64
   1bfd0:	00090593          	mv	a1,s2
   1bfd4:	00098513          	mv	a0,s3
   1bfd8:	a55ff0ef          	jal	ra,1ba2c <__sprint_r.part.0>
   1bfdc:	dc0514e3          	bnez	a0,1bda4 <_vfiprintf_r+0x270>
   1bfe0:	04812783          	lw	a5,72(sp)
   1bfe4:	00048693          	mv	a3,s1
   1bfe8:	004bf893          	andi	a7,s7,4
   1bfec:	00088663          	beqz	a7,1bff8 <_vfiprintf_r+0x4c4>
   1bff0:	41aa0433          	sub	s0,s4,s10
   1bff4:	16804a63          	bgtz	s0,1c168 <_vfiprintf_r+0x634>
   1bff8:	01aa5463          	bge	s4,s10,1c000 <_vfiprintf_r+0x4cc>
   1bffc:	000d0a13          	mv	s4,s10
   1c000:	00812703          	lw	a4,8(sp)
   1c004:	01470733          	add	a4,a4,s4
   1c008:	00e12423          	sw	a4,8(sp)
   1c00c:	7a079e63          	bnez	a5,1c7c8 <_vfiprintf_r+0xc94>
   1c010:	04012223          	sw	zero,68(sp)
   1c014:	00048413          	mv	s0,s1
   1c018:	c09ff06f          	j	1bc20 <_vfiprintf_r+0xec>
   1c01c:	020bf793          	andi	a5,s7,32
   1c020:	010bed13          	ori	s10,s7,16
   1c024:	54079263          	bnez	a5,1c568 <_vfiprintf_r+0xa34>
   1c028:	00c12783          	lw	a5,12(sp)
   1c02c:	00478713          	addi	a4,a5,4
   1c030:	00c12783          	lw	a5,12(sp)
   1c034:	00000e13          	li	t3,0
   1c038:	00e12623          	sw	a4,12(sp)
   1c03c:	0007ad83          	lw	s11,0(a5)
   1c040:	00100713          	li	a4,1
   1c044:	df9ff06f          	j	1be3c <_vfiprintf_r+0x308>
   1c048:	080beb93          	ori	s7,s7,128
   1c04c:	000cc703          	lbu	a4,0(s9)
   1c050:	c7dff06f          	j	1bccc <_vfiprintf_r+0x198>
   1c054:	00c12783          	lw	a5,12(sp)
   1c058:	02010da3          	sb	zero,59(sp)
   1c05c:	0007ab03          	lw	s6,0(a5)
   1c060:	00478713          	addi	a4,a5,4
   1c064:	380b06e3          	beqz	s6,1cbf0 <_vfiprintf_r+0x10bc>
   1c068:	fff00793          	li	a5,-1
   1c06c:	00e12623          	sw	a4,12(sp)
   1c070:	24fc08e3          	beq	s8,a5,1cac0 <_vfiprintf_r+0xf8c>
   1c074:	000c0613          	mv	a2,s8
   1c078:	00000593          	li	a1,0
   1c07c:	000b0513          	mv	a0,s6
   1c080:	eb4fb0ef          	jal	ra,17734 <memchr>
   1c084:	00c12703          	lw	a4,12(sp)
   1c088:	4e0508e3          	beqz	a0,1cd78 <_vfiprintf_r+0x1244>
   1c08c:	41650db3          	sub	s11,a0,s6
   1c090:	00000c13          	li	s8,0
   1c094:	dd5ff06f          	j	1be68 <_vfiprintf_r+0x334>
   1c098:	020bf793          	andi	a5,s7,32
   1c09c:	010be893          	ori	a7,s7,16
   1c0a0:	46079a63          	bnez	a5,1c514 <_vfiprintf_r+0x9e0>
   1c0a4:	00c12783          	lw	a5,12(sp)
   1c0a8:	00478713          	addi	a4,a5,4
   1c0ac:	00c12783          	lw	a5,12(sp)
   1c0b0:	00000e13          	li	t3,0
   1c0b4:	00e12623          	sw	a4,12(sp)
   1c0b8:	0007ad83          	lw	s11,0(a5)
   1c0bc:	4740006f          	j	1c530 <_vfiprintf_r+0x9fc>
   1c0c0:	020bf793          	andi	a5,s7,32
   1c0c4:	010bed13          	ori	s10,s7,16
   1c0c8:	46079c63          	bnez	a5,1c540 <_vfiprintf_r+0xa0c>
   1c0cc:	00c12783          	lw	a5,12(sp)
   1c0d0:	00478713          	addi	a4,a5,4
   1c0d4:	00c12783          	lw	a5,12(sp)
   1c0d8:	00e12623          	sw	a4,12(sp)
   1c0dc:	0007ad83          	lw	s11,0(a5)
   1c0e0:	41fdde13          	srai	t3,s11,0x1f
   1c0e4:	000e0713          	mv	a4,t3
   1c0e8:	38074463          	bltz	a4,1c470 <_vfiprintf_r+0x93c>
   1c0ec:	fff00713          	li	a4,-1
   1c0f0:	00ec0a63          	beq	s8,a4,1c104 <_vfiprintf_r+0x5d0>
   1c0f4:	01cde733          	or	a4,s11,t3
   1c0f8:	f7fd7b93          	andi	s7,s10,-129
   1c0fc:	0a070ee3          	beqz	a4,1c9b8 <_vfiprintf_r+0xe84>
   1c100:	000b8d13          	mv	s10,s7
   1c104:	1e0e18e3          	bnez	t3,1caf4 <_vfiprintf_r+0xfc0>
   1c108:	00900793          	li	a5,9
   1c10c:	1fb7e4e3          	bltu	a5,s11,1caf4 <_vfiprintf_r+0xfc0>
   1c110:	030d8793          	addi	a5,s11,48
   1c114:	0ef107a3          	sb	a5,239(sp)
   1c118:	000d0b93          	mv	s7,s10
   1c11c:	00100d93          	li	s11,1
   1c120:	0ef10b13          	addi	s6,sp,239
   1c124:	d45ff06f          	j	1be68 <_vfiprintf_r+0x334>
   1c128:	00c12703          	lw	a4,12(sp)
   1c12c:	02010da3          	sb	zero,59(sp)
   1c130:	00100d13          	li	s10,1
   1c134:	00072783          	lw	a5,0(a4)
   1c138:	00470713          	addi	a4,a4,4
   1c13c:	00e12623          	sw	a4,12(sp)
   1c140:	08f10623          	sb	a5,140(sp)
   1c144:	00100d93          	li	s11,1
   1c148:	08c10b13          	addi	s6,sp,140
   1c14c:	d85ff06f          	j	1bed0 <_vfiprintf_r+0x39c>
   1c150:	04012223          	sw	zero,68(sp)
   1c154:	004bf893          	andi	a7,s7,4
   1c158:	000886e3          	beqz	a7,1c964 <_vfiprintf_r+0xe30>
   1c15c:	41aa0433          	sub	s0,s4,s10
   1c160:	008052e3          	blez	s0,1c964 <_vfiprintf_r+0xe30>
   1c164:	00048693          	mv	a3,s1
   1c168:	01000713          	li	a4,16
   1c16c:	04412603          	lw	a2,68(sp)
   1c170:	428754e3          	bge	a4,s0,1cd98 <_vfiprintf_r+0x1264>
   1c174:	00009e97          	auipc	t4,0x9
   1c178:	d34e8e93          	addi	t4,t4,-716 # 24ea8 <blanks.4480>
   1c17c:	01000c13          	li	s8,16
   1c180:	00700d93          	li	s11,7
   1c184:	000e8b13          	mv	s6,t4
   1c188:	0180006f          	j	1c1a0 <_vfiprintf_r+0x66c>
   1c18c:	00260593          	addi	a1,a2,2
   1c190:	00868693          	addi	a3,a3,8
   1c194:	00070613          	mv	a2,a4
   1c198:	ff040413          	addi	s0,s0,-16
   1c19c:	048c5863          	bge	s8,s0,1c1ec <_vfiprintf_r+0x6b8>
   1c1a0:	01078793          	addi	a5,a5,16
   1c1a4:	00160713          	addi	a4,a2,1
   1c1a8:	0166a023          	sw	s6,0(a3)
   1c1ac:	0186a223          	sw	s8,4(a3)
   1c1b0:	04f12423          	sw	a5,72(sp)
   1c1b4:	04e12223          	sw	a4,68(sp)
   1c1b8:	fceddae3          	bge	s11,a4,1c18c <_vfiprintf_r+0x658>
   1c1bc:	42078463          	beqz	a5,1c5e4 <_vfiprintf_r+0xab0>
   1c1c0:	04010613          	addi	a2,sp,64
   1c1c4:	00090593          	mv	a1,s2
   1c1c8:	00098513          	mv	a0,s3
   1c1cc:	861ff0ef          	jal	ra,1ba2c <__sprint_r.part.0>
   1c1d0:	bc051ae3          	bnez	a0,1bda4 <_vfiprintf_r+0x270>
   1c1d4:	04412603          	lw	a2,68(sp)
   1c1d8:	ff040413          	addi	s0,s0,-16
   1c1dc:	04812783          	lw	a5,72(sp)
   1c1e0:	00048693          	mv	a3,s1
   1c1e4:	00160593          	addi	a1,a2,1
   1c1e8:	fa8c4ce3          	blt	s8,s0,1c1a0 <_vfiprintf_r+0x66c>
   1c1ec:	000b0e93          	mv	t4,s6
   1c1f0:	008787b3          	add	a5,a5,s0
   1c1f4:	01d6a023          	sw	t4,0(a3)
   1c1f8:	0086a223          	sw	s0,4(a3)
   1c1fc:	04f12423          	sw	a5,72(sp)
   1c200:	04b12223          	sw	a1,68(sp)
   1c204:	00700713          	li	a4,7
   1c208:	deb758e3          	bge	a4,a1,1bff8 <_vfiprintf_r+0x4c4>
   1c20c:	74078c63          	beqz	a5,1c964 <_vfiprintf_r+0xe30>
   1c210:	04010613          	addi	a2,sp,64
   1c214:	00090593          	mv	a1,s2
   1c218:	00098513          	mv	a0,s3
   1c21c:	811ff0ef          	jal	ra,1ba2c <__sprint_r.part.0>
   1c220:	b80512e3          	bnez	a0,1bda4 <_vfiprintf_r+0x270>
   1c224:	04812783          	lw	a5,72(sp)
   1c228:	dd1ff06f          	j	1bff8 <_vfiprintf_r+0x4c4>
   1c22c:	03b14783          	lbu	a5,59(sp)
   1c230:	000cc703          	lbu	a4,0(s9)
   1c234:	a8079ce3          	bnez	a5,1bccc <_vfiprintf_r+0x198>
   1c238:	02000793          	li	a5,32
   1c23c:	02f10da3          	sb	a5,59(sp)
   1c240:	a8dff06f          	j	1bccc <_vfiprintf_r+0x198>
   1c244:	02b00793          	li	a5,43
   1c248:	02f10da3          	sb	a5,59(sp)
   1c24c:	000cc703          	lbu	a4,0(s9)
   1c250:	a7dff06f          	j	1bccc <_vfiprintf_r+0x198>
   1c254:	00c12783          	lw	a5,12(sp)
   1c258:	000cc703          	lbu	a4,0(s9)
   1c25c:	0007aa03          	lw	s4,0(a5)
   1c260:	00478793          	addi	a5,a5,4
   1c264:	00f12623          	sw	a5,12(sp)
   1c268:	a60a52e3          	bgez	s4,1bccc <_vfiprintf_r+0x198>
   1c26c:	41400a33          	neg	s4,s4
   1c270:	004beb93          	ori	s7,s7,4
   1c274:	a59ff06f          	j	1bccc <_vfiprintf_r+0x198>
   1c278:	001beb93          	ori	s7,s7,1
   1c27c:	000cc703          	lbu	a4,0(s9)
   1c280:	a4dff06f          	j	1bccc <_vfiprintf_r+0x198>
   1c284:	000cc703          	lbu	a4,0(s9)
   1c288:	001c8793          	addi	a5,s9,1
   1c28c:	33a70ee3          	beq	a4,s10,1cdc8 <_vfiprintf_r+0x1294>
   1c290:	00078c93          	mv	s9,a5
   1c294:	fd070613          	addi	a2,a4,-48
   1c298:	00900793          	li	a5,9
   1c29c:	00000c13          	li	s8,0
   1c2a0:	a2c7eae3          	bltu	a5,a2,1bcd4 <_vfiprintf_r+0x1a0>
   1c2a4:	001c8c93          	addi	s9,s9,1
   1c2a8:	002c1793          	slli	a5,s8,0x2
   1c2ac:	fffcc703          	lbu	a4,-1(s9)
   1c2b0:	01878c33          	add	s8,a5,s8
   1c2b4:	001c1c13          	slli	s8,s8,0x1
   1c2b8:	00cc0c33          	add	s8,s8,a2
   1c2bc:	00900793          	li	a5,9
   1c2c0:	fd070613          	addi	a2,a4,-48
   1c2c4:	fec7f0e3          	bgeu	a5,a2,1c2a4 <_vfiprintf_r+0x770>
   1c2c8:	a0dff06f          	j	1bcd4 <_vfiprintf_r+0x1a0>
   1c2cc:	000cc703          	lbu	a4,0(s9)
   1c2d0:	004beb93          	ori	s7,s7,4
   1c2d4:	9f9ff06f          	j	1bccc <_vfiprintf_r+0x198>
   1c2d8:	020bf793          	andi	a5,s7,32
   1c2dc:	28079463          	bnez	a5,1c564 <_vfiprintf_r+0xa30>
   1c2e0:	00c12783          	lw	a5,12(sp)
   1c2e4:	010bf693          	andi	a3,s7,16
   1c2e8:	00478713          	addi	a4,a5,4
   1c2ec:	0007a783          	lw	a5,0(a5)
   1c2f0:	2e069ee3          	bnez	a3,1cdec <_vfiprintf_r+0x12b8>
   1c2f4:	040bf693          	andi	a3,s7,64
   1c2f8:	10068ce3          	beqz	a3,1cc10 <_vfiprintf_r+0x10dc>
   1c2fc:	01079d93          	slli	s11,a5,0x10
   1c300:	00e12623          	sw	a4,12(sp)
   1c304:	010ddd93          	srli	s11,s11,0x10
   1c308:	00000e13          	li	t3,0
   1c30c:	000b8d13          	mv	s10,s7
   1c310:	00100713          	li	a4,1
   1c314:	b29ff06f          	j	1be3c <_vfiprintf_r+0x308>
   1c318:	00008797          	auipc	a5,0x8
   1c31c:	4ac78793          	addi	a5,a5,1196 # 247c4 <zeroes.4505+0x20>
   1c320:	00f12823          	sw	a5,16(sp)
   1c324:	020bf793          	andi	a5,s7,32
   1c328:	ae0790e3          	bnez	a5,1be08 <_vfiprintf_r+0x2d4>
   1c32c:	00c12603          	lw	a2,12(sp)
   1c330:	010bf693          	andi	a3,s7,16
   1c334:	00062783          	lw	a5,0(a2)
   1c338:	00460613          	addi	a2,a2,4
   1c33c:	00c12623          	sw	a2,12(sp)
   1c340:	68069a63          	bnez	a3,1c9d4 <_vfiprintf_r+0xea0>
   1c344:	040bf693          	andi	a3,s7,64
   1c348:	68068263          	beqz	a3,1c9cc <_vfiprintf_r+0xe98>
   1c34c:	01079d93          	slli	s11,a5,0x10
   1c350:	010ddd93          	srli	s11,s11,0x10
   1c354:	00000e13          	li	t3,0
   1c358:	acdff06f          	j	1be24 <_vfiprintf_r+0x2f0>
   1c35c:	00c12783          	lw	a5,12(sp)
   1c360:	02412703          	lw	a4,36(sp)
   1c364:	00000e13          	li	t3,0
   1c368:	0007ad83          	lw	s11,0(a5)
   1c36c:	00478793          	addi	a5,a5,4
   1c370:	00f12623          	sw	a5,12(sp)
   1c374:	00008797          	auipc	a5,0x8
   1c378:	45078793          	addi	a5,a5,1104 # 247c4 <zeroes.4505+0x20>
   1c37c:	02e11e23          	sh	a4,60(sp)
   1c380:	002bed13          	ori	s10,s7,2
   1c384:	00f12823          	sw	a5,16(sp)
   1c388:	00200713          	li	a4,2
   1c38c:	ab1ff06f          	j	1be3c <_vfiprintf_r+0x308>
   1c390:	020bf793          	andi	a5,s7,32
   1c394:	16079e63          	bnez	a5,1c510 <_vfiprintf_r+0x9dc>
   1c398:	00c12783          	lw	a5,12(sp)
   1c39c:	010bf693          	andi	a3,s7,16
   1c3a0:	00478713          	addi	a4,a5,4
   1c3a4:	0007a783          	lw	a5,0(a5)
   1c3a8:	240696e3          	bnez	a3,1cdf4 <_vfiprintf_r+0x12c0>
   1c3ac:	040bf693          	andi	a3,s7,64
   1c3b0:	080680e3          	beqz	a3,1cc30 <_vfiprintf_r+0x10fc>
   1c3b4:	01079d93          	slli	s11,a5,0x10
   1c3b8:	010ddd93          	srli	s11,s11,0x10
   1c3bc:	00000e13          	li	t3,0
   1c3c0:	000b8893          	mv	a7,s7
   1c3c4:	00e12623          	sw	a4,12(sp)
   1c3c8:	1680006f          	j	1c530 <_vfiprintf_r+0x9fc>
   1c3cc:	00c12683          	lw	a3,12(sp)
   1c3d0:	020bf793          	andi	a5,s7,32
   1c3d4:	00468713          	addi	a4,a3,4
   1c3d8:	6c079663          	bnez	a5,1caa4 <_vfiprintf_r+0xf70>
   1c3dc:	010bf793          	andi	a5,s7,16
   1c3e0:	7e079c63          	bnez	a5,1cbd8 <_vfiprintf_r+0x10a4>
   1c3e4:	040bf793          	andi	a5,s7,64
   1c3e8:	100798e3          	bnez	a5,1ccf8 <_vfiprintf_r+0x11c4>
   1c3ec:	200bf893          	andi	a7,s7,512
   1c3f0:	7e088463          	beqz	a7,1cbd8 <_vfiprintf_r+0x10a4>
   1c3f4:	00c12783          	lw	a5,12(sp)
   1c3f8:	00e12623          	sw	a4,12(sp)
   1c3fc:	00812703          	lw	a4,8(sp)
   1c400:	0007a783          	lw	a5,0(a5)
   1c404:	00e78023          	sb	a4,0(a5)
   1c408:	819ff06f          	j	1bc20 <_vfiprintf_r+0xec>
   1c40c:	000cc703          	lbu	a4,0(s9)
   1c410:	06c00793          	li	a5,108
   1c414:	7af70a63          	beq	a4,a5,1cbc8 <_vfiprintf_r+0x1094>
   1c418:	010beb93          	ori	s7,s7,16
   1c41c:	8b1ff06f          	j	1bccc <_vfiprintf_r+0x198>
   1c420:	000cc703          	lbu	a4,0(s9)
   1c424:	06800793          	li	a5,104
   1c428:	78f70863          	beq	a4,a5,1cbb8 <_vfiprintf_r+0x1084>
   1c42c:	040beb93          	ori	s7,s7,64
   1c430:	89dff06f          	j	1bccc <_vfiprintf_r+0x198>
   1c434:	020bf793          	andi	a5,s7,32
   1c438:	10079263          	bnez	a5,1c53c <_vfiprintf_r+0xa08>
   1c43c:	00c12703          	lw	a4,12(sp)
   1c440:	010bf793          	andi	a5,s7,16
   1c444:	00470713          	addi	a4,a4,4
   1c448:	1a079ae3          	bnez	a5,1cdfc <_vfiprintf_r+0x12c8>
   1c44c:	040bf793          	andi	a5,s7,64
   1c450:	7e078e63          	beqz	a5,1cc4c <_vfiprintf_r+0x1118>
   1c454:	00c12783          	lw	a5,12(sp)
   1c458:	00e12623          	sw	a4,12(sp)
   1c45c:	000b8d13          	mv	s10,s7
   1c460:	00079d83          	lh	s11,0(a5)
   1c464:	41fdde13          	srai	t3,s11,0x1f
   1c468:	000e0713          	mv	a4,t3
   1c46c:	c80750e3          	bgez	a4,1c0ec <_vfiprintf_r+0x5b8>
   1c470:	41b007b3          	neg	a5,s11
   1c474:	00f03733          	snez	a4,a5
   1c478:	41c00e33          	neg	t3,t3
   1c47c:	40ee0e33          	sub	t3,t3,a4
   1c480:	02d00713          	li	a4,45
   1c484:	02e10da3          	sb	a4,59(sp)
   1c488:	fff00693          	li	a3,-1
   1c48c:	00078d93          	mv	s11,a5
   1c490:	00100713          	li	a4,1
   1c494:	9adc1ae3          	bne	s8,a3,1be48 <_vfiprintf_r+0x314>
   1c498:	00100693          	li	a3,1
   1c49c:	c6d704e3          	beq	a4,a3,1c104 <_vfiprintf_r+0x5d0>
   1c4a0:	00200693          	li	a3,2
   1c4a4:	0ed70e63          	beq	a4,a3,1c5a0 <_vfiprintf_r+0xa6c>
   1c4a8:	0f010693          	addi	a3,sp,240
   1c4ac:	0080006f          	j	1c4b4 <_vfiprintf_r+0x980>
   1c4b0:	000b0693          	mv	a3,s6
   1c4b4:	01de1793          	slli	a5,t3,0x1d
   1c4b8:	007df713          	andi	a4,s11,7
   1c4bc:	003ddd93          	srli	s11,s11,0x3
   1c4c0:	03070713          	addi	a4,a4,48
   1c4c4:	01b7edb3          	or	s11,a5,s11
   1c4c8:	003e5e13          	srli	t3,t3,0x3
   1c4cc:	fee68fa3          	sb	a4,-1(a3)
   1c4d0:	01cde7b3          	or	a5,s11,t3
   1c4d4:	fff68b13          	addi	s6,a3,-1
   1c4d8:	fc079ce3          	bnez	a5,1c4b0 <_vfiprintf_r+0x97c>
   1c4dc:	001d7793          	andi	a5,s10,1
   1c4e0:	0e078a63          	beqz	a5,1c5d4 <_vfiprintf_r+0xaa0>
   1c4e4:	03000793          	li	a5,48
   1c4e8:	0ef70663          	beq	a4,a5,1c5d4 <_vfiprintf_r+0xaa0>
   1c4ec:	ffe68693          	addi	a3,a3,-2
   1c4f0:	fefb0fa3          	sb	a5,-1(s6)
   1c4f4:	0f010793          	addi	a5,sp,240
   1c4f8:	40d78db3          	sub	s11,a5,a3
   1c4fc:	000d0b93          	mv	s7,s10
   1c500:	00068b13          	mv	s6,a3
   1c504:	965ff06f          	j	1be68 <_vfiprintf_r+0x334>
   1c508:	d90f70ef          	jal	ra,13a98 <__sinit>
   1c50c:	e7cff06f          	j	1bb88 <_vfiprintf_r+0x54>
   1c510:	000b8893          	mv	a7,s7
   1c514:	00c12783          	lw	a5,12(sp)
   1c518:	00778713          	addi	a4,a5,7
   1c51c:	ff877713          	andi	a4,a4,-8
   1c520:	00072d83          	lw	s11,0(a4)
   1c524:	00472e03          	lw	t3,4(a4)
   1c528:	00870793          	addi	a5,a4,8
   1c52c:	00f12623          	sw	a5,12(sp)
   1c530:	bff8fd13          	andi	s10,a7,-1025
   1c534:	00000713          	li	a4,0
   1c538:	905ff06f          	j	1be3c <_vfiprintf_r+0x308>
   1c53c:	000b8d13          	mv	s10,s7
   1c540:	00c12783          	lw	a5,12(sp)
   1c544:	00778793          	addi	a5,a5,7
   1c548:	ff87f793          	andi	a5,a5,-8
   1c54c:	0047a703          	lw	a4,4(a5)
   1c550:	00878693          	addi	a3,a5,8
   1c554:	00d12623          	sw	a3,12(sp)
   1c558:	0007ad83          	lw	s11,0(a5)
   1c55c:	00070e13          	mv	t3,a4
   1c560:	b89ff06f          	j	1c0e8 <_vfiprintf_r+0x5b4>
   1c564:	000b8d13          	mv	s10,s7
   1c568:	00c12783          	lw	a5,12(sp)
   1c56c:	00778713          	addi	a4,a5,7
   1c570:	ff877713          	andi	a4,a4,-8
   1c574:	00870793          	addi	a5,a4,8
   1c578:	00072d83          	lw	s11,0(a4)
   1c57c:	00472e03          	lw	t3,4(a4)
   1c580:	00f12623          	sw	a5,12(sp)
   1c584:	00100713          	li	a4,1
   1c588:	8b5ff06f          	j	1be3c <_vfiprintf_r+0x308>
   1c58c:	00100693          	li	a3,1
   1c590:	7cd70a63          	beq	a4,a3,1cd64 <_vfiprintf_r+0x1230>
   1c594:	00200693          	li	a3,2
   1c598:	000b8d13          	mv	s10,s7
   1c59c:	f0d716e3          	bne	a4,a3,1c4a8 <_vfiprintf_r+0x974>
   1c5a0:	01012683          	lw	a3,16(sp)
   1c5a4:	0f010b13          	addi	s6,sp,240
   1c5a8:	00fdf793          	andi	a5,s11,15
   1c5ac:	00f687b3          	add	a5,a3,a5
   1c5b0:	0007c783          	lbu	a5,0(a5)
   1c5b4:	01ce1713          	slli	a4,t3,0x1c
   1c5b8:	004ddd93          	srli	s11,s11,0x4
   1c5bc:	fffb0b13          	addi	s6,s6,-1
   1c5c0:	01b76db3          	or	s11,a4,s11
   1c5c4:	004e5e13          	srli	t3,t3,0x4
   1c5c8:	00fb0023          	sb	a5,0(s6)
   1c5cc:	01cde7b3          	or	a5,s11,t3
   1c5d0:	fc079ce3          	bnez	a5,1c5a8 <_vfiprintf_r+0xa74>
   1c5d4:	0f010793          	addi	a5,sp,240
   1c5d8:	41678db3          	sub	s11,a5,s6
   1c5dc:	000d0b93          	mv	s7,s10
   1c5e0:	889ff06f          	j	1be68 <_vfiprintf_r+0x334>
   1c5e4:	00100593          	li	a1,1
   1c5e8:	00000613          	li	a2,0
   1c5ec:	00048693          	mv	a3,s1
   1c5f0:	ba9ff06f          	j	1c198 <_vfiprintf_r+0x664>
   1c5f4:	41aa0e33          	sub	t3,s4,s10
   1c5f8:	9bc056e3          	blez	t3,1bfa4 <_vfiprintf_r+0x470>
   1c5fc:	01000593          	li	a1,16
   1c600:	7bc5da63          	bge	a1,t3,1cdb4 <_vfiprintf_r+0x1280>
   1c604:	00009e97          	auipc	t4,0x9
   1c608:	8b4e8e93          	addi	t4,t4,-1868 # 24eb8 <zeroes.4481>
   1c60c:	01612a23          	sw	s6,20(sp)
   1c610:	03412423          	sw	s4,40(sp)
   1c614:	01000f13          	li	t5,16
   1c618:	00700f93          	li	t6,7
   1c61c:	000e0a13          	mv	s4,t3
   1c620:	000e8b13          	mv	s6,t4
   1c624:	0180006f          	j	1c63c <_vfiprintf_r+0xb08>
   1c628:	00270593          	addi	a1,a4,2
   1c62c:	00840413          	addi	s0,s0,8
   1c630:	00068713          	mv	a4,a3
   1c634:	ff0a0a13          	addi	s4,s4,-16
   1c638:	054f5c63          	bge	t5,s4,1c690 <_vfiprintf_r+0xb5c>
   1c63c:	01078793          	addi	a5,a5,16
   1c640:	00170693          	addi	a3,a4,1
   1c644:	01642023          	sw	s6,0(s0)
   1c648:	01e42223          	sw	t5,4(s0)
   1c64c:	04f12423          	sw	a5,72(sp)
   1c650:	04d12223          	sw	a3,68(sp)
   1c654:	fcdfdae3          	bge	t6,a3,1c628 <_vfiprintf_r+0xaf4>
   1c658:	18078463          	beqz	a5,1c7e0 <_vfiprintf_r+0xcac>
   1c65c:	04010613          	addi	a2,sp,64
   1c660:	00090593          	mv	a1,s2
   1c664:	00098513          	mv	a0,s3
   1c668:	bc4ff0ef          	jal	ra,1ba2c <__sprint_r.part.0>
   1c66c:	f2051c63          	bnez	a0,1bda4 <_vfiprintf_r+0x270>
   1c670:	04412703          	lw	a4,68(sp)
   1c674:	01000f13          	li	t5,16
   1c678:	ff0a0a13          	addi	s4,s4,-16
   1c67c:	04812783          	lw	a5,72(sp)
   1c680:	00048413          	mv	s0,s1
   1c684:	00170593          	addi	a1,a4,1
   1c688:	00700f93          	li	t6,7
   1c68c:	fb4f48e3          	blt	t5,s4,1c63c <_vfiprintf_r+0xb08>
   1c690:	000a0e13          	mv	t3,s4
   1c694:	000b0e93          	mv	t4,s6
   1c698:	02812a03          	lw	s4,40(sp)
   1c69c:	01412b03          	lw	s6,20(sp)
   1c6a0:	00840513          	addi	a0,s0,8
   1c6a4:	01c787b3          	add	a5,a5,t3
   1c6a8:	01d42023          	sw	t4,0(s0)
   1c6ac:	01c42223          	sw	t3,4(s0)
   1c6b0:	04f12423          	sw	a5,72(sp)
   1c6b4:	04b12223          	sw	a1,68(sp)
   1c6b8:	00700713          	li	a4,7
   1c6bc:	38b75e63          	bge	a4,a1,1ca58 <_vfiprintf_r+0xf24>
   1c6c0:	5c078063          	beqz	a5,1cc80 <_vfiprintf_r+0x114c>
   1c6c4:	04010613          	addi	a2,sp,64
   1c6c8:	00090593          	mv	a1,s2
   1c6cc:	00098513          	mv	a0,s3
   1c6d0:	b5cff0ef          	jal	ra,1ba2c <__sprint_r.part.0>
   1c6d4:	ec051863          	bnez	a0,1bda4 <_vfiprintf_r+0x270>
   1c6d8:	04412703          	lw	a4,68(sp)
   1c6dc:	41bc0c33          	sub	s8,s8,s11
   1c6e0:	04812783          	lw	a5,72(sp)
   1c6e4:	05410693          	addi	a3,sp,84
   1c6e8:	00170613          	addi	a2,a4,1
   1c6ec:	00048413          	mv	s0,s1
   1c6f0:	8b805ee3          	blez	s8,1bfac <_vfiprintf_r+0x478>
   1c6f4:	01000593          	li	a1,16
   1c6f8:	5785dc63          	bge	a1,s8,1cc70 <_vfiprintf_r+0x113c>
   1c6fc:	00008e97          	auipc	t4,0x8
   1c700:	7bce8e93          	addi	t4,t4,1980 # 24eb8 <zeroes.4481>
   1c704:	01412a23          	sw	s4,20(sp)
   1c708:	01000e13          	li	t3,16
   1c70c:	00700f13          	li	t5,7
   1c710:	000e8a13          	mv	s4,t4
   1c714:	0180006f          	j	1c72c <_vfiprintf_r+0xbf8>
   1c718:	00270613          	addi	a2,a4,2
   1c71c:	00840413          	addi	s0,s0,8
   1c720:	00068713          	mv	a4,a3
   1c724:	ff0c0c13          	addi	s8,s8,-16
   1c728:	058e5c63          	bge	t3,s8,1c780 <_vfiprintf_r+0xc4c>
   1c72c:	01078793          	addi	a5,a5,16
   1c730:	00170693          	addi	a3,a4,1
   1c734:	01442023          	sw	s4,0(s0)
   1c738:	01c42223          	sw	t3,4(s0)
   1c73c:	04f12423          	sw	a5,72(sp)
   1c740:	04d12223          	sw	a3,68(sp)
   1c744:	fcdf5ae3          	bge	t5,a3,1c718 <_vfiprintf_r+0xbe4>
   1c748:	06078863          	beqz	a5,1c7b8 <_vfiprintf_r+0xc84>
   1c74c:	04010613          	addi	a2,sp,64
   1c750:	00090593          	mv	a1,s2
   1c754:	00098513          	mv	a0,s3
   1c758:	ad4ff0ef          	jal	ra,1ba2c <__sprint_r.part.0>
   1c75c:	e4051463          	bnez	a0,1bda4 <_vfiprintf_r+0x270>
   1c760:	04412703          	lw	a4,68(sp)
   1c764:	01000e13          	li	t3,16
   1c768:	ff0c0c13          	addi	s8,s8,-16
   1c76c:	04812783          	lw	a5,72(sp)
   1c770:	00048413          	mv	s0,s1
   1c774:	00170613          	addi	a2,a4,1
   1c778:	00700f13          	li	t5,7
   1c77c:	fb8e48e3          	blt	t3,s8,1c72c <_vfiprintf_r+0xbf8>
   1c780:	000a0e93          	mv	t4,s4
   1c784:	01412a03          	lw	s4,20(sp)
   1c788:	00840593          	addi	a1,s0,8
   1c78c:	018787b3          	add	a5,a5,s8
   1c790:	01d42023          	sw	t4,0(s0)
   1c794:	01842223          	sw	s8,4(s0)
   1c798:	04f12423          	sw	a5,72(sp)
   1c79c:	04c12223          	sw	a2,68(sp)
   1c7a0:	00700713          	li	a4,7
   1c7a4:	1cc74c63          	blt	a4,a2,1c97c <_vfiprintf_r+0xe48>
   1c7a8:	00160613          	addi	a2,a2,1
   1c7ac:	00858693          	addi	a3,a1,8
   1c7b0:	00058413          	mv	s0,a1
   1c7b4:	ff8ff06f          	j	1bfac <_vfiprintf_r+0x478>
   1c7b8:	00100613          	li	a2,1
   1c7bc:	00000713          	li	a4,0
   1c7c0:	00048413          	mv	s0,s1
   1c7c4:	f61ff06f          	j	1c724 <_vfiprintf_r+0xbf0>
   1c7c8:	04010613          	addi	a2,sp,64
   1c7cc:	00090593          	mv	a1,s2
   1c7d0:	00098513          	mv	a0,s3
   1c7d4:	a58ff0ef          	jal	ra,1ba2c <__sprint_r.part.0>
   1c7d8:	82050ce3          	beqz	a0,1c010 <_vfiprintf_r+0x4dc>
   1c7dc:	dc8ff06f          	j	1bda4 <_vfiprintf_r+0x270>
   1c7e0:	00100593          	li	a1,1
   1c7e4:	00000713          	li	a4,0
   1c7e8:	00048413          	mv	s0,s1
   1c7ec:	e49ff06f          	j	1c634 <_vfiprintf_r+0xb00>
   1c7f0:	22079863          	bnez	a5,1ca20 <_vfiprintf_r+0xeec>
   1c7f4:	03b14703          	lbu	a4,59(sp)
   1c7f8:	4e071263          	bnez	a4,1ccdc <_vfiprintf_r+0x11a8>
   1c7fc:	200f8063          	beqz	t6,1c9fc <_vfiprintf_r+0xec8>
   1c800:	03c10793          	addi	a5,sp,60
   1c804:	04f12623          	sw	a5,76(sp)
   1c808:	00200793          	li	a5,2
   1c80c:	04f12823          	sw	a5,80(sp)
   1c810:	00100613          	li	a2,1
   1c814:	05410693          	addi	a3,sp,84
   1c818:	00060713          	mv	a4,a2
   1c81c:	00068413          	mv	s0,a3
   1c820:	00160613          	addi	a2,a2,1
   1c824:	00868693          	addi	a3,a3,8
   1c828:	f74ff06f          	j	1bf9c <_vfiprintf_r+0x468>
   1c82c:	fc0788e3          	beqz	a5,1c7fc <_vfiprintf_r+0xcc8>
   1c830:	04010613          	addi	a2,sp,64
   1c834:	00090593          	mv	a1,s2
   1c838:	00098513          	mv	a0,s3
   1c83c:	03012423          	sw	a6,40(sp)
   1c840:	01f12a23          	sw	t6,20(sp)
   1c844:	9e8ff0ef          	jal	ra,1ba2c <__sprint_r.part.0>
   1c848:	d4051e63          	bnez	a0,1bda4 <_vfiprintf_r+0x270>
   1c84c:	04412703          	lw	a4,68(sp)
   1c850:	04812783          	lw	a5,72(sp)
   1c854:	05410693          	addi	a3,sp,84
   1c858:	00170613          	addi	a2,a4,1
   1c85c:	00048413          	mv	s0,s1
   1c860:	02812803          	lw	a6,40(sp)
   1c864:	01412f83          	lw	t6,20(sp)
   1c868:	ed8ff06f          	j	1bf40 <_vfiprintf_r+0x40c>
   1c86c:	000b8d13          	mv	s10,s7
   1c870:	c29ff06f          	j	1c498 <_vfiprintf_r+0x964>
   1c874:	01000613          	li	a2,16
   1c878:	51c65863          	bge	a2,t3,1cd88 <_vfiprintf_r+0x1254>
   1c87c:	00008e97          	auipc	t4,0x8
   1c880:	62ce8e93          	addi	t4,t4,1580 # 24ea8 <blanks.4480>
   1c884:	00040613          	mv	a2,s0
   1c888:	03412623          	sw	s4,44(sp)
   1c88c:	01000293          	li	t0,16
   1c890:	00700393          	li	t2,7
   1c894:	01f12a23          	sw	t6,20(sp)
   1c898:	03012423          	sw	a6,40(sp)
   1c89c:	000e0413          	mv	s0,t3
   1c8a0:	000e8a13          	mv	s4,t4
   1c8a4:	01c0006f          	j	1c8c0 <_vfiprintf_r+0xd8c>
   1c8a8:	00270593          	addi	a1,a4,2
   1c8ac:	00860613          	addi	a2,a2,8
   1c8b0:	00068713          	mv	a4,a3
   1c8b4:	ff040413          	addi	s0,s0,-16
   1c8b8:	0482dc63          	bge	t0,s0,1c910 <_vfiprintf_r+0xddc>
   1c8bc:	00170693          	addi	a3,a4,1
   1c8c0:	01078793          	addi	a5,a5,16
   1c8c4:	01462023          	sw	s4,0(a2)
   1c8c8:	00562223          	sw	t0,4(a2)
   1c8cc:	04f12423          	sw	a5,72(sp)
   1c8d0:	04d12223          	sw	a3,68(sp)
   1c8d4:	fcd3dae3          	bge	t2,a3,1c8a8 <_vfiprintf_r+0xd74>
   1c8d8:	06078e63          	beqz	a5,1c954 <_vfiprintf_r+0xe20>
   1c8dc:	04010613          	addi	a2,sp,64
   1c8e0:	00090593          	mv	a1,s2
   1c8e4:	00098513          	mv	a0,s3
   1c8e8:	944ff0ef          	jal	ra,1ba2c <__sprint_r.part.0>
   1c8ec:	ca051c63          	bnez	a0,1bda4 <_vfiprintf_r+0x270>
   1c8f0:	04412703          	lw	a4,68(sp)
   1c8f4:	01000293          	li	t0,16
   1c8f8:	ff040413          	addi	s0,s0,-16
   1c8fc:	04812783          	lw	a5,72(sp)
   1c900:	00048613          	mv	a2,s1
   1c904:	00170593          	addi	a1,a4,1
   1c908:	00700393          	li	t2,7
   1c90c:	fa82c8e3          	blt	t0,s0,1c8bc <_vfiprintf_r+0xd88>
   1c910:	000a0e93          	mv	t4,s4
   1c914:	01412f83          	lw	t6,20(sp)
   1c918:	02812803          	lw	a6,40(sp)
   1c91c:	02c12a03          	lw	s4,44(sp)
   1c920:	00040e13          	mv	t3,s0
   1c924:	00060413          	mv	s0,a2
   1c928:	01c787b3          	add	a5,a5,t3
   1c92c:	01d42023          	sw	t4,0(s0)
   1c930:	01c42223          	sw	t3,4(s0)
   1c934:	04f12423          	sw	a5,72(sp)
   1c938:	04b12223          	sw	a1,68(sp)
   1c93c:	00700713          	li	a4,7
   1c940:	eab748e3          	blt	a4,a1,1c7f0 <_vfiprintf_r+0xcbc>
   1c944:	00840413          	addi	s0,s0,8
   1c948:	00158613          	addi	a2,a1,1
   1c94c:	00058713          	mv	a4,a1
   1c950:	db0ff06f          	j	1bf00 <_vfiprintf_r+0x3cc>
   1c954:	00000713          	li	a4,0
   1c958:	00100593          	li	a1,1
   1c95c:	00048613          	mv	a2,s1
   1c960:	f55ff06f          	j	1c8b4 <_vfiprintf_r+0xd80>
   1c964:	01aa5463          	bge	s4,s10,1c96c <_vfiprintf_r+0xe38>
   1c968:	000d0a13          	mv	s4,s10
   1c96c:	00812783          	lw	a5,8(sp)
   1c970:	014787b3          	add	a5,a5,s4
   1c974:	00f12423          	sw	a5,8(sp)
   1c978:	e98ff06f          	j	1c010 <_vfiprintf_r+0x4dc>
   1c97c:	14078c63          	beqz	a5,1cad4 <_vfiprintf_r+0xfa0>
   1c980:	04010613          	addi	a2,sp,64
   1c984:	00090593          	mv	a1,s2
   1c988:	00098513          	mv	a0,s3
   1c98c:	8a0ff0ef          	jal	ra,1ba2c <__sprint_r.part.0>
   1c990:	c0051a63          	bnez	a0,1bda4 <_vfiprintf_r+0x270>
   1c994:	04412603          	lw	a2,68(sp)
   1c998:	04812783          	lw	a5,72(sp)
   1c99c:	05410693          	addi	a3,sp,84
   1c9a0:	00160613          	addi	a2,a2,1
   1c9a4:	00048413          	mv	s0,s1
   1c9a8:	e04ff06f          	j	1bfac <_vfiprintf_r+0x478>
   1c9ac:	04012223          	sw	zero,68(sp)
   1c9b0:	00048413          	mv	s0,s1
   1c9b4:	ae8ff06f          	j	1bc9c <_vfiprintf_r+0x168>
   1c9b8:	3a0c1663          	bnez	s8,1cd64 <_vfiprintf_r+0x1230>
   1c9bc:	00000c13          	li	s8,0
   1c9c0:	00000d93          	li	s11,0
   1c9c4:	0f010b13          	addi	s6,sp,240
   1c9c8:	ca0ff06f          	j	1be68 <_vfiprintf_r+0x334>
   1c9cc:	200bf693          	andi	a3,s7,512
   1c9d0:	38069463          	bnez	a3,1cd58 <_vfiprintf_r+0x1224>
   1c9d4:	00078d93          	mv	s11,a5
   1c9d8:	00000e13          	li	t3,0
   1c9dc:	c48ff06f          	j	1be24 <_vfiprintf_r+0x2f0>
   1c9e0:	05410693          	addi	a3,sp,84
   1c9e4:	00100613          	li	a2,1
   1c9e8:	00000713          	li	a4,0
   1c9ec:	00048413          	mv	s0,s1
   1c9f0:	dacff06f          	j	1bf9c <_vfiprintf_r+0x468>
   1c9f4:	000c8d13          	mv	s10,s9
   1c9f8:	ab8ff06f          	j	1bcb0 <_vfiprintf_r+0x17c>
   1c9fc:	00000713          	li	a4,0
   1ca00:	05410693          	addi	a3,sp,84
   1ca04:	00100613          	li	a2,1
   1ca08:	00048413          	mv	s0,s1
   1ca0c:	d90ff06f          	j	1bf9c <_vfiprintf_r+0x468>
   1ca10:	03000793          	li	a5,48
   1ca14:	0ef107a3          	sb	a5,239(sp)
   1ca18:	0ef10b13          	addi	s6,sp,239
   1ca1c:	c4cff06f          	j	1be68 <_vfiprintf_r+0x334>
   1ca20:	04010613          	addi	a2,sp,64
   1ca24:	00090593          	mv	a1,s2
   1ca28:	00098513          	mv	a0,s3
   1ca2c:	03012423          	sw	a6,40(sp)
   1ca30:	01f12a23          	sw	t6,20(sp)
   1ca34:	ff9fe0ef          	jal	ra,1ba2c <__sprint_r.part.0>
   1ca38:	b6051663          	bnez	a0,1bda4 <_vfiprintf_r+0x270>
   1ca3c:	04412703          	lw	a4,68(sp)
   1ca40:	04812783          	lw	a5,72(sp)
   1ca44:	00048413          	mv	s0,s1
   1ca48:	00170613          	addi	a2,a4,1
   1ca4c:	02812803          	lw	a6,40(sp)
   1ca50:	01412f83          	lw	t6,20(sp)
   1ca54:	cacff06f          	j	1bf00 <_vfiprintf_r+0x3cc>
   1ca58:	00158613          	addi	a2,a1,1
   1ca5c:	00850693          	addi	a3,a0,8
   1ca60:	00058713          	mv	a4,a1
   1ca64:	00050413          	mv	s0,a0
   1ca68:	d3cff06f          	j	1bfa4 <_vfiprintf_r+0x470>
   1ca6c:	03000693          	li	a3,48
   1ca70:	002beb93          	ori	s7,s7,2
   1ca74:	02e10ea3          	sb	a4,61(sp)
   1ca78:	02d10e23          	sb	a3,60(sp)
   1ca7c:	bffbfd13          	andi	s10,s7,-1025
   1ca80:	00200713          	li	a4,2
   1ca84:	bb8ff06f          	j	1be3c <_vfiprintf_r+0x308>
   1ca88:	01812783          	lw	a5,24(sp)
   1ca8c:	000cc703          	lbu	a4,0(s9)
   1ca90:	a2078e63          	beqz	a5,1bccc <_vfiprintf_r+0x198>
   1ca94:	0007c783          	lbu	a5,0(a5)
   1ca98:	a2078a63          	beqz	a5,1bccc <_vfiprintf_r+0x198>
   1ca9c:	400beb93          	ori	s7,s7,1024
   1caa0:	a2cff06f          	j	1bccc <_vfiprintf_r+0x198>
   1caa4:	00812603          	lw	a2,8(sp)
   1caa8:	0006a783          	lw	a5,0(a3)
   1caac:	00e12623          	sw	a4,12(sp)
   1cab0:	41f65693          	srai	a3,a2,0x1f
   1cab4:	00c7a023          	sw	a2,0(a5)
   1cab8:	00d7a223          	sw	a3,4(a5)
   1cabc:	964ff06f          	j	1bc20 <_vfiprintf_r+0xec>
   1cac0:	000b0513          	mv	a0,s6
   1cac4:	b78fc0ef          	jal	ra,18e3c <strlen>
   1cac8:	00050d93          	mv	s11,a0
   1cacc:	00000c13          	li	s8,0
   1cad0:	b98ff06f          	j	1be68 <_vfiprintf_r+0x334>
   1cad4:	00100713          	li	a4,1
   1cad8:	000d8793          	mv	a5,s11
   1cadc:	05612623          	sw	s6,76(sp)
   1cae0:	05b12823          	sw	s11,80(sp)
   1cae4:	05b12423          	sw	s11,72(sp)
   1cae8:	04e12223          	sw	a4,68(sp)
   1caec:	05410693          	addi	a3,sp,84
   1caf0:	cf8ff06f          	j	1bfe8 <_vfiprintf_r+0x4b4>
   1caf4:	0f010b13          	addi	s6,sp,240
   1caf8:	400d7793          	andi	a5,s10,1024
   1cafc:	00812a23          	sw	s0,20(sp)
   1cb00:	03412423          	sw	s4,40(sp)
   1cb04:	03312623          	sw	s3,44(sp)
   1cb08:	00000b93          	li	s7,0
   1cb0c:	000b0993          	mv	s3,s6
   1cb10:	00078413          	mv	s0,a5
   1cb14:	000c8b13          	mv	s6,s9
   1cb18:	000e0a13          	mv	s4,t3
   1cb1c:	00090c93          	mv	s9,s2
   1cb20:	01812903          	lw	s2,24(sp)
   1cb24:	0240006f          	j	1cb48 <_vfiprintf_r+0x1014>
   1cb28:	00a00613          	li	a2,10
   1cb2c:	00000693          	li	a3,0
   1cb30:	000d8513          	mv	a0,s11
   1cb34:	000a0593          	mv	a1,s4
   1cb38:	3e5020ef          	jal	ra,1f71c <__udivdi3>
   1cb3c:	220a0863          	beqz	s4,1cd6c <_vfiprintf_r+0x1238>
   1cb40:	00050d93          	mv	s11,a0
   1cb44:	00058a13          	mv	s4,a1
   1cb48:	00a00613          	li	a2,10
   1cb4c:	00000693          	li	a3,0
   1cb50:	000d8513          	mv	a0,s11
   1cb54:	000a0593          	mv	a1,s4
   1cb58:	198030ef          	jal	ra,1fcf0 <__umoddi3>
   1cb5c:	03050513          	addi	a0,a0,48
   1cb60:	fea98fa3          	sb	a0,-1(s3)
   1cb64:	001b8b93          	addi	s7,s7,1
   1cb68:	fff98993          	addi	s3,s3,-1
   1cb6c:	fa040ee3          	beqz	s0,1cb28 <_vfiprintf_r+0xff4>
   1cb70:	00094703          	lbu	a4,0(s2)
   1cb74:	fb771ae3          	bne	a4,s7,1cb28 <_vfiprintf_r+0xff4>
   1cb78:	0ff00793          	li	a5,255
   1cb7c:	fafb86e3          	beq	s7,a5,1cb28 <_vfiprintf_r+0xff4>
   1cb80:	100a1a63          	bnez	s4,1cc94 <_vfiprintf_r+0x1160>
   1cb84:	00900793          	li	a5,9
   1cb88:	11b7e663          	bltu	a5,s11,1cc94 <_vfiprintf_r+0x1160>
   1cb8c:	01212c23          	sw	s2,24(sp)
   1cb90:	0f010793          	addi	a5,sp,240
   1cb94:	000c8913          	mv	s2,s9
   1cb98:	000b0c93          	mv	s9,s6
   1cb9c:	00098b13          	mv	s6,s3
   1cba0:	01412403          	lw	s0,20(sp)
   1cba4:	02812a03          	lw	s4,40(sp)
   1cba8:	02c12983          	lw	s3,44(sp)
   1cbac:	41678db3          	sub	s11,a5,s6
   1cbb0:	000d0b93          	mv	s7,s10
   1cbb4:	ab4ff06f          	j	1be68 <_vfiprintf_r+0x334>
   1cbb8:	001cc703          	lbu	a4,1(s9)
   1cbbc:	200beb93          	ori	s7,s7,512
   1cbc0:	001c8c93          	addi	s9,s9,1
   1cbc4:	908ff06f          	j	1bccc <_vfiprintf_r+0x198>
   1cbc8:	001cc703          	lbu	a4,1(s9)
   1cbcc:	020beb93          	ori	s7,s7,32
   1cbd0:	001c8c93          	addi	s9,s9,1
   1cbd4:	8f8ff06f          	j	1bccc <_vfiprintf_r+0x198>
   1cbd8:	00c12783          	lw	a5,12(sp)
   1cbdc:	0007a783          	lw	a5,0(a5)
   1cbe0:	00e12623          	sw	a4,12(sp)
   1cbe4:	00812703          	lw	a4,8(sp)
   1cbe8:	00e7a023          	sw	a4,0(a5)
   1cbec:	834ff06f          	j	1bc20 <_vfiprintf_r+0xec>
   1cbf0:	00600793          	li	a5,6
   1cbf4:	000c0d93          	mv	s11,s8
   1cbf8:	0d87ee63          	bltu	a5,s8,1ccd4 <_vfiprintf_r+0x11a0>
   1cbfc:	000d8d13          	mv	s10,s11
   1cc00:	00e12623          	sw	a4,12(sp)
   1cc04:	00008b17          	auipc	s6,0x8
   1cc08:	be8b0b13          	addi	s6,s6,-1048 # 247ec <zeroes.4505+0x48>
   1cc0c:	ac4ff06f          	j	1bed0 <_vfiprintf_r+0x39c>
   1cc10:	200bf693          	andi	a3,s7,512
   1cc14:	12068663          	beqz	a3,1cd40 <_vfiprintf_r+0x120c>
   1cc18:	00e12623          	sw	a4,12(sp)
   1cc1c:	0ff7fd93          	andi	s11,a5,255
   1cc20:	00000e13          	li	t3,0
   1cc24:	000b8d13          	mv	s10,s7
   1cc28:	00100713          	li	a4,1
   1cc2c:	a10ff06f          	j	1be3c <_vfiprintf_r+0x308>
   1cc30:	200bf693          	andi	a3,s7,512
   1cc34:	0e068c63          	beqz	a3,1cd2c <_vfiprintf_r+0x11f8>
   1cc38:	0ff7fd93          	andi	s11,a5,255
   1cc3c:	00000e13          	li	t3,0
   1cc40:	000b8893          	mv	a7,s7
   1cc44:	00e12623          	sw	a4,12(sp)
   1cc48:	8e9ff06f          	j	1c530 <_vfiprintf_r+0x9fc>
   1cc4c:	200bf793          	andi	a5,s7,512
   1cc50:	0c078063          	beqz	a5,1cd10 <_vfiprintf_r+0x11dc>
   1cc54:	00c12783          	lw	a5,12(sp)
   1cc58:	000b8d13          	mv	s10,s7
   1cc5c:	00e12623          	sw	a4,12(sp)
   1cc60:	00078d83          	lb	s11,0(a5)
   1cc64:	41fdde13          	srai	t3,s11,0x1f
   1cc68:	000e0713          	mv	a4,t3
   1cc6c:	c7cff06f          	j	1c0e8 <_vfiprintf_r+0x5b4>
   1cc70:	00068593          	mv	a1,a3
   1cc74:	00008e97          	auipc	t4,0x8
   1cc78:	244e8e93          	addi	t4,t4,580 # 24eb8 <zeroes.4481>
   1cc7c:	b11ff06f          	j	1c78c <_vfiprintf_r+0xc58>
   1cc80:	05410693          	addi	a3,sp,84
   1cc84:	00100613          	li	a2,1
   1cc88:	00000713          	li	a4,0
   1cc8c:	00048413          	mv	s0,s1
   1cc90:	b14ff06f          	j	1bfa4 <_vfiprintf_r+0x470>
   1cc94:	02012783          	lw	a5,32(sp)
   1cc98:	01c12583          	lw	a1,28(sp)
   1cc9c:	00000b93          	li	s7,0
   1cca0:	40f989b3          	sub	s3,s3,a5
   1cca4:	00078613          	mv	a2,a5
   1cca8:	00098513          	mv	a0,s3
   1ccac:	a1cfc0ef          	jal	ra,18ec8 <strncpy>
   1ccb0:	00194703          	lbu	a4,1(s2)
   1ccb4:	00a00613          	li	a2,10
   1ccb8:	00000693          	li	a3,0
   1ccbc:	00e03733          	snez	a4,a4
   1ccc0:	000d8513          	mv	a0,s11
   1ccc4:	000a0593          	mv	a1,s4
   1ccc8:	00e90933          	add	s2,s2,a4
   1cccc:	251020ef          	jal	ra,1f71c <__udivdi3>
   1ccd0:	e71ff06f          	j	1cb40 <_vfiprintf_r+0x100c>
   1ccd4:	00600d93          	li	s11,6
   1ccd8:	f25ff06f          	j	1cbfc <_vfiprintf_r+0x10c8>
   1ccdc:	03b10793          	addi	a5,sp,59
   1cce0:	04f12623          	sw	a5,76(sp)
   1cce4:	00100793          	li	a5,1
   1cce8:	04f12823          	sw	a5,80(sp)
   1ccec:	00100613          	li	a2,1
   1ccf0:	05410693          	addi	a3,sp,84
   1ccf4:	a3cff06f          	j	1bf30 <_vfiprintf_r+0x3fc>
   1ccf8:	00c12783          	lw	a5,12(sp)
   1ccfc:	00e12623          	sw	a4,12(sp)
   1cd00:	00812703          	lw	a4,8(sp)
   1cd04:	0007a783          	lw	a5,0(a5)
   1cd08:	00e79023          	sh	a4,0(a5)
   1cd0c:	f15fe06f          	j	1bc20 <_vfiprintf_r+0xec>
   1cd10:	00c12783          	lw	a5,12(sp)
   1cd14:	000b8d13          	mv	s10,s7
   1cd18:	00e12623          	sw	a4,12(sp)
   1cd1c:	0007ad83          	lw	s11,0(a5)
   1cd20:	41fdde13          	srai	t3,s11,0x1f
   1cd24:	000e0713          	mv	a4,t3
   1cd28:	bc0ff06f          	j	1c0e8 <_vfiprintf_r+0x5b4>
   1cd2c:	00078d93          	mv	s11,a5
   1cd30:	00000e13          	li	t3,0
   1cd34:	000b8893          	mv	a7,s7
   1cd38:	00e12623          	sw	a4,12(sp)
   1cd3c:	ff4ff06f          	j	1c530 <_vfiprintf_r+0x9fc>
   1cd40:	00e12623          	sw	a4,12(sp)
   1cd44:	00078d93          	mv	s11,a5
   1cd48:	00000e13          	li	t3,0
   1cd4c:	000b8d13          	mv	s10,s7
   1cd50:	00100713          	li	a4,1
   1cd54:	8e8ff06f          	j	1be3c <_vfiprintf_r+0x308>
   1cd58:	0ff7fd93          	andi	s11,a5,255
   1cd5c:	00000e13          	li	t3,0
   1cd60:	8c4ff06f          	j	1be24 <_vfiprintf_r+0x2f0>
   1cd64:	000b8d13          	mv	s10,s7
   1cd68:	ba8ff06f          	j	1c110 <_vfiprintf_r+0x5dc>
   1cd6c:	00900793          	li	a5,9
   1cd70:	ddb7e8e3          	bltu	a5,s11,1cb40 <_vfiprintf_r+0x100c>
   1cd74:	e19ff06f          	j	1cb8c <_vfiprintf_r+0x1058>
   1cd78:	000c0d93          	mv	s11,s8
   1cd7c:	00e12623          	sw	a4,12(sp)
   1cd80:	00000c13          	li	s8,0
   1cd84:	8e4ff06f          	j	1be68 <_vfiprintf_r+0x334>
   1cd88:	00068593          	mv	a1,a3
   1cd8c:	00008e97          	auipc	t4,0x8
   1cd90:	11ce8e93          	addi	t4,t4,284 # 24ea8 <blanks.4480>
   1cd94:	b95ff06f          	j	1c928 <_vfiprintf_r+0xdf4>
   1cd98:	00160593          	addi	a1,a2,1
   1cd9c:	00008e97          	auipc	t4,0x8
   1cda0:	10ce8e93          	addi	t4,t4,268 # 24ea8 <blanks.4480>
   1cda4:	c4cff06f          	j	1c1f0 <_vfiprintf_r+0x6bc>
   1cda8:	fff00793          	li	a5,-1
   1cdac:	00f12423          	sw	a5,8(sp)
   1cdb0:	804ff06f          	j	1bdb4 <_vfiprintf_r+0x280>
   1cdb4:	00068513          	mv	a0,a3
   1cdb8:	00060593          	mv	a1,a2
   1cdbc:	00008e97          	auipc	t4,0x8
   1cdc0:	0fce8e93          	addi	t4,t4,252 # 24eb8 <zeroes.4481>
   1cdc4:	8e1ff06f          	j	1c6a4 <_vfiprintf_r+0xb70>
   1cdc8:	00c12703          	lw	a4,12(sp)
   1cdcc:	00072c03          	lw	s8,0(a4)
   1cdd0:	00470693          	addi	a3,a4,4
   1cdd4:	000c5463          	bgez	s8,1cddc <_vfiprintf_r+0x12a8>
   1cdd8:	fff00c13          	li	s8,-1
   1cddc:	001cc703          	lbu	a4,1(s9)
   1cde0:	00d12623          	sw	a3,12(sp)
   1cde4:	00078c93          	mv	s9,a5
   1cde8:	ee5fe06f          	j	1bccc <_vfiprintf_r+0x198>
   1cdec:	000b8d13          	mv	s10,s7
   1cdf0:	a40ff06f          	j	1c030 <_vfiprintf_r+0x4fc>
   1cdf4:	000b8893          	mv	a7,s7
   1cdf8:	ab4ff06f          	j	1c0ac <_vfiprintf_r+0x578>
   1cdfc:	000b8d13          	mv	s10,s7
   1ce00:	ad4ff06f          	j	1c0d4 <_vfiprintf_r+0x5a0>

0001ce04 <vfiprintf>:
   1ce04:	81c18793          	addi	a5,gp,-2020 # 26d8c <_impure_ptr>
   1ce08:	00060693          	mv	a3,a2
   1ce0c:	00058613          	mv	a2,a1
   1ce10:	00050593          	mv	a1,a0
   1ce14:	0007a503          	lw	a0,0(a5)
   1ce18:	d1dfe06f          	j	1bb34 <_vfiprintf_r>

0001ce1c <__sbprintf>:
   1ce1c:	00c5d783          	lhu	a5,12(a1)
   1ce20:	0645ae03          	lw	t3,100(a1)
   1ce24:	00e5d303          	lhu	t1,14(a1)
   1ce28:	01c5a883          	lw	a7,28(a1)
   1ce2c:	0245a803          	lw	a6,36(a1)
   1ce30:	b8010113          	addi	sp,sp,-1152
   1ce34:	ffd7f793          	andi	a5,a5,-3
   1ce38:	40000713          	li	a4,1024
   1ce3c:	46812c23          	sw	s0,1144(sp)
   1ce40:	00f11a23          	sh	a5,20(sp)
   1ce44:	00058413          	mv	s0,a1
   1ce48:	07010793          	addi	a5,sp,112
   1ce4c:	00810593          	addi	a1,sp,8
   1ce50:	46912a23          	sw	s1,1140(sp)
   1ce54:	47212823          	sw	s2,1136(sp)
   1ce58:	46112e23          	sw	ra,1148(sp)
   1ce5c:	00050913          	mv	s2,a0
   1ce60:	07c12623          	sw	t3,108(sp)
   1ce64:	00611b23          	sh	t1,22(sp)
   1ce68:	03112223          	sw	a7,36(sp)
   1ce6c:	03012623          	sw	a6,44(sp)
   1ce70:	00f12423          	sw	a5,8(sp)
   1ce74:	00f12c23          	sw	a5,24(sp)
   1ce78:	00e12823          	sw	a4,16(sp)
   1ce7c:	00e12e23          	sw	a4,28(sp)
   1ce80:	02012023          	sw	zero,32(sp)
   1ce84:	cb1fe0ef          	jal	ra,1bb34 <_vfiprintf_r>
   1ce88:	00050493          	mv	s1,a0
   1ce8c:	02055c63          	bgez	a0,1cec4 <__sbprintf+0xa8>
   1ce90:	01415783          	lhu	a5,20(sp)
   1ce94:	0407f793          	andi	a5,a5,64
   1ce98:	00078863          	beqz	a5,1cea8 <__sbprintf+0x8c>
   1ce9c:	00c45783          	lhu	a5,12(s0)
   1cea0:	0407e793          	ori	a5,a5,64
   1cea4:	00f41623          	sh	a5,12(s0)
   1cea8:	47c12083          	lw	ra,1148(sp)
   1ceac:	47812403          	lw	s0,1144(sp)
   1ceb0:	00048513          	mv	a0,s1
   1ceb4:	47012903          	lw	s2,1136(sp)
   1ceb8:	47412483          	lw	s1,1140(sp)
   1cebc:	48010113          	addi	sp,sp,1152
   1cec0:	00008067          	ret
   1cec4:	00810593          	addi	a1,sp,8
   1cec8:	00090513          	mv	a0,s2
   1cecc:	815f60ef          	jal	ra,136e0 <_fflush_r>
   1ced0:	fc0500e3          	beqz	a0,1ce90 <__sbprintf+0x74>
   1ced4:	fff00493          	li	s1,-1
   1ced8:	fb9ff06f          	j	1ce90 <__sbprintf+0x74>

0001cedc <_wctomb_r>:
   1cedc:	0000a797          	auipc	a5,0xa
   1cee0:	91c78793          	addi	a5,a5,-1764 # 267f8 <__global_locale>
   1cee4:	0e07a303          	lw	t1,224(a5)
   1cee8:	00030067          	jr	t1

0001ceec <__ascii_wctomb>:
   1ceec:	02058463          	beqz	a1,1cf14 <__ascii_wctomb+0x28>
   1cef0:	0ff00793          	li	a5,255
   1cef4:	00c7e863          	bltu	a5,a2,1cf04 <__ascii_wctomb+0x18>
   1cef8:	00c58023          	sb	a2,0(a1)
   1cefc:	00100513          	li	a0,1
   1cf00:	00008067          	ret
   1cf04:	08a00793          	li	a5,138
   1cf08:	00f52023          	sw	a5,0(a0)
   1cf0c:	fff00513          	li	a0,-1
   1cf10:	00008067          	ret
   1cf14:	00000513          	li	a0,0
   1cf18:	00008067          	ret

0001cf1c <_write_r>:
   1cf1c:	00058793          	mv	a5,a1
   1cf20:	ff010113          	addi	sp,sp,-16
   1cf24:	00812423          	sw	s0,8(sp)
   1cf28:	00060593          	mv	a1,a2
   1cf2c:	00050413          	mv	s0,a0
   1cf30:	00068613          	mv	a2,a3
   1cf34:	00078513          	mv	a0,a5
   1cf38:	00112623          	sw	ra,12(sp)
   1cf3c:	8601ae23          	sw	zero,-1924(gp) # 26dec <errno>
   1cf40:	a7cf30ef          	jal	ra,101bc <_write>
   1cf44:	fff00793          	li	a5,-1
   1cf48:	00f50a63          	beq	a0,a5,1cf5c <_write_r+0x40>
   1cf4c:	00c12083          	lw	ra,12(sp)
   1cf50:	00812403          	lw	s0,8(sp)
   1cf54:	01010113          	addi	sp,sp,16
   1cf58:	00008067          	ret
   1cf5c:	87c18793          	addi	a5,gp,-1924 # 26dec <errno>
   1cf60:	0007a783          	lw	a5,0(a5)
   1cf64:	fe0784e3          	beqz	a5,1cf4c <_write_r+0x30>
   1cf68:	00f42023          	sw	a5,0(s0)
   1cf6c:	00c12083          	lw	ra,12(sp)
   1cf70:	00812403          	lw	s0,8(sp)
   1cf74:	01010113          	addi	sp,sp,16
   1cf78:	00008067          	ret

0001cf7c <_calloc_r>:
   1cf7c:	ff010113          	addi	sp,sp,-16
   1cf80:	00058793          	mv	a5,a1
   1cf84:	00812423          	sw	s0,8(sp)
   1cf88:	00060593          	mv	a1,a2
   1cf8c:	00050413          	mv	s0,a0
   1cf90:	00078513          	mv	a0,a5
   1cf94:	00112623          	sw	ra,12(sp)
   1cf98:	4fc070ef          	jal	ra,24494 <__mulsi3>
   1cf9c:	00050593          	mv	a1,a0
   1cfa0:	00040513          	mv	a0,s0
   1cfa4:	f11f90ef          	jal	ra,16eb4 <_malloc_r>
   1cfa8:	00050413          	mv	s0,a0
   1cfac:	02050863          	beqz	a0,1cfdc <_calloc_r+0x60>
   1cfb0:	ffc52603          	lw	a2,-4(a0)
   1cfb4:	02400713          	li	a4,36
   1cfb8:	ffc67613          	andi	a2,a2,-4
   1cfbc:	ffc60613          	addi	a2,a2,-4
   1cfc0:	06c76063          	bltu	a4,a2,1d020 <_calloc_r+0xa4>
   1cfc4:	01300693          	li	a3,19
   1cfc8:	00050793          	mv	a5,a0
   1cfcc:	02c6e263          	bltu	a3,a2,1cff0 <_calloc_r+0x74>
   1cfd0:	0007a023          	sw	zero,0(a5)
   1cfd4:	0007a223          	sw	zero,4(a5)
   1cfd8:	0007a423          	sw	zero,8(a5)
   1cfdc:	00040513          	mv	a0,s0
   1cfe0:	00c12083          	lw	ra,12(sp)
   1cfe4:	00812403          	lw	s0,8(sp)
   1cfe8:	01010113          	addi	sp,sp,16
   1cfec:	00008067          	ret
   1cff0:	00052023          	sw	zero,0(a0)
   1cff4:	00052223          	sw	zero,4(a0)
   1cff8:	01b00793          	li	a5,27
   1cffc:	04c7f063          	bgeu	a5,a2,1d03c <_calloc_r+0xc0>
   1d000:	00052423          	sw	zero,8(a0)
   1d004:	00052623          	sw	zero,12(a0)
   1d008:	01050793          	addi	a5,a0,16
   1d00c:	fce612e3          	bne	a2,a4,1cfd0 <_calloc_r+0x54>
   1d010:	00052823          	sw	zero,16(a0)
   1d014:	01850793          	addi	a5,a0,24
   1d018:	00052a23          	sw	zero,20(a0)
   1d01c:	fb5ff06f          	j	1cfd0 <_calloc_r+0x54>
   1d020:	00000593          	li	a1,0
   1d024:	c08f30ef          	jal	ra,1042c <memset>
   1d028:	00040513          	mv	a0,s0
   1d02c:	00c12083          	lw	ra,12(sp)
   1d030:	00812403          	lw	s0,8(sp)
   1d034:	01010113          	addi	sp,sp,16
   1d038:	00008067          	ret
   1d03c:	00850793          	addi	a5,a0,8
   1d040:	f91ff06f          	j	1cfd0 <_calloc_r+0x54>

0001d044 <_close_r>:
   1d044:	ff010113          	addi	sp,sp,-16
   1d048:	00812423          	sw	s0,8(sp)
   1d04c:	00050413          	mv	s0,a0
   1d050:	00058513          	mv	a0,a1
   1d054:	8601ae23          	sw	zero,-1924(gp) # 26dec <errno>
   1d058:	00112623          	sw	ra,12(sp)
   1d05c:	9c4f30ef          	jal	ra,10220 <_close>
   1d060:	fff00793          	li	a5,-1
   1d064:	00f50a63          	beq	a0,a5,1d078 <_close_r+0x34>
   1d068:	00c12083          	lw	ra,12(sp)
   1d06c:	00812403          	lw	s0,8(sp)
   1d070:	01010113          	addi	sp,sp,16
   1d074:	00008067          	ret
   1d078:	87c18793          	addi	a5,gp,-1924 # 26dec <errno>
   1d07c:	0007a783          	lw	a5,0(a5)
   1d080:	fe0784e3          	beqz	a5,1d068 <_close_r+0x24>
   1d084:	00f42023          	sw	a5,0(s0)
   1d088:	00c12083          	lw	ra,12(sp)
   1d08c:	00812403          	lw	s0,8(sp)
   1d090:	01010113          	addi	sp,sp,16
   1d094:	00008067          	ret

0001d098 <_fclose_r>:
   1d098:	ff010113          	addi	sp,sp,-16
   1d09c:	00112623          	sw	ra,12(sp)
   1d0a0:	00812423          	sw	s0,8(sp)
   1d0a4:	00912223          	sw	s1,4(sp)
   1d0a8:	01212023          	sw	s2,0(sp)
   1d0ac:	02058063          	beqz	a1,1d0cc <_fclose_r+0x34>
   1d0b0:	00050493          	mv	s1,a0
   1d0b4:	00058413          	mv	s0,a1
   1d0b8:	00050663          	beqz	a0,1d0c4 <_fclose_r+0x2c>
   1d0bc:	03852783          	lw	a5,56(a0)
   1d0c0:	0a078c63          	beqz	a5,1d178 <_fclose_r+0xe0>
   1d0c4:	00c41783          	lh	a5,12(s0)
   1d0c8:	02079263          	bnez	a5,1d0ec <_fclose_r+0x54>
   1d0cc:	00c12083          	lw	ra,12(sp)
   1d0d0:	00812403          	lw	s0,8(sp)
   1d0d4:	00000913          	li	s2,0
   1d0d8:	00090513          	mv	a0,s2
   1d0dc:	00412483          	lw	s1,4(sp)
   1d0e0:	00012903          	lw	s2,0(sp)
   1d0e4:	01010113          	addi	sp,sp,16
   1d0e8:	00008067          	ret
   1d0ec:	00040593          	mv	a1,s0
   1d0f0:	00048513          	mv	a0,s1
   1d0f4:	b90f60ef          	jal	ra,13484 <__sflush_r>
   1d0f8:	02c42783          	lw	a5,44(s0)
   1d0fc:	00050913          	mv	s2,a0
   1d100:	00078a63          	beqz	a5,1d114 <_fclose_r+0x7c>
   1d104:	01c42583          	lw	a1,28(s0)
   1d108:	00048513          	mv	a0,s1
   1d10c:	000780e7          	jalr	a5
   1d110:	06054c63          	bltz	a0,1d188 <_fclose_r+0xf0>
   1d114:	00c45783          	lhu	a5,12(s0)
   1d118:	0807f793          	andi	a5,a5,128
   1d11c:	06079e63          	bnez	a5,1d198 <_fclose_r+0x100>
   1d120:	03042583          	lw	a1,48(s0)
   1d124:	00058c63          	beqz	a1,1d13c <_fclose_r+0xa4>
   1d128:	04040793          	addi	a5,s0,64
   1d12c:	00f58663          	beq	a1,a5,1d138 <_fclose_r+0xa0>
   1d130:	00048513          	mv	a0,s1
   1d134:	ad9f60ef          	jal	ra,13c0c <_free_r>
   1d138:	02042823          	sw	zero,48(s0)
   1d13c:	04442583          	lw	a1,68(s0)
   1d140:	00058863          	beqz	a1,1d150 <_fclose_r+0xb8>
   1d144:	00048513          	mv	a0,s1
   1d148:	ac5f60ef          	jal	ra,13c0c <_free_r>
   1d14c:	04042223          	sw	zero,68(s0)
   1d150:	959f60ef          	jal	ra,13aa8 <__sfp_lock_acquire>
   1d154:	00041623          	sh	zero,12(s0)
   1d158:	955f60ef          	jal	ra,13aac <__sfp_lock_release>
   1d15c:	00c12083          	lw	ra,12(sp)
   1d160:	00812403          	lw	s0,8(sp)
   1d164:	00090513          	mv	a0,s2
   1d168:	00412483          	lw	s1,4(sp)
   1d16c:	00012903          	lw	s2,0(sp)
   1d170:	01010113          	addi	sp,sp,16
   1d174:	00008067          	ret
   1d178:	921f60ef          	jal	ra,13a98 <__sinit>
   1d17c:	00c41783          	lh	a5,12(s0)
   1d180:	f40786e3          	beqz	a5,1d0cc <_fclose_r+0x34>
   1d184:	f69ff06f          	j	1d0ec <_fclose_r+0x54>
   1d188:	00c45783          	lhu	a5,12(s0)
   1d18c:	fff00913          	li	s2,-1
   1d190:	0807f793          	andi	a5,a5,128
   1d194:	f80786e3          	beqz	a5,1d120 <_fclose_r+0x88>
   1d198:	01042583          	lw	a1,16(s0)
   1d19c:	00048513          	mv	a0,s1
   1d1a0:	a6df60ef          	jal	ra,13c0c <_free_r>
   1d1a4:	f7dff06f          	j	1d120 <_fclose_r+0x88>

0001d1a8 <fclose>:
   1d1a8:	81c18793          	addi	a5,gp,-2020 # 26d8c <_impure_ptr>
   1d1ac:	00050593          	mv	a1,a0
   1d1b0:	0007a503          	lw	a0,0(a5)
   1d1b4:	ee5ff06f          	j	1d098 <_fclose_r>

0001d1b8 <__fputwc>:
   1d1b8:	fd010113          	addi	sp,sp,-48
   1d1bc:	02812423          	sw	s0,40(sp)
   1d1c0:	01312e23          	sw	s3,28(sp)
   1d1c4:	01512a23          	sw	s5,20(sp)
   1d1c8:	02112623          	sw	ra,44(sp)
   1d1cc:	02912223          	sw	s1,36(sp)
   1d1d0:	03212023          	sw	s2,32(sp)
   1d1d4:	01412c23          	sw	s4,24(sp)
   1d1d8:	01612823          	sw	s6,16(sp)
   1d1dc:	00050993          	mv	s3,a0
   1d1e0:	00058a93          	mv	s5,a1
   1d1e4:	00060413          	mv	s0,a2
   1d1e8:	abdf90ef          	jal	ra,16ca4 <__locale_mb_cur_max>
   1d1ec:	00100793          	li	a5,1
   1d1f0:	02f51063          	bne	a0,a5,1d210 <__fputwc+0x58>
   1d1f4:	fffa8793          	addi	a5,s5,-1
   1d1f8:	0fe00713          	li	a4,254
   1d1fc:	00f76a63          	bltu	a4,a5,1d210 <__fputwc+0x58>
   1d200:	0ffaf713          	andi	a4,s5,255
   1d204:	00e10623          	sb	a4,12(sp)
   1d208:	00100913          	li	s2,1
   1d20c:	02c0006f          	j	1d238 <__fputwc+0x80>
   1d210:	05c40693          	addi	a3,s0,92
   1d214:	000a8613          	mv	a2,s5
   1d218:	00c10593          	addi	a1,sp,12
   1d21c:	00098513          	mv	a0,s3
   1d220:	3ec020ef          	jal	ra,1f60c <_wcrtomb_r>
   1d224:	fff00793          	li	a5,-1
   1d228:	00050913          	mv	s2,a0
   1d22c:	0af50463          	beq	a0,a5,1d2d4 <__fputwc+0x11c>
   1d230:	08050e63          	beqz	a0,1d2cc <__fputwc+0x114>
   1d234:	00c14703          	lbu	a4,12(sp)
   1d238:	00000493          	li	s1,0
   1d23c:	fff00a13          	li	s4,-1
   1d240:	00a00b13          	li	s6,10
   1d244:	0280006f          	j	1d26c <__fputwc+0xb4>
   1d248:	00042783          	lw	a5,0(s0)
   1d24c:	00178693          	addi	a3,a5,1
   1d250:	00d42023          	sw	a3,0(s0)
   1d254:	00e78023          	sb	a4,0(a5)
   1d258:	00148493          	addi	s1,s1,1
   1d25c:	00c10793          	addi	a5,sp,12
   1d260:	009787b3          	add	a5,a5,s1
   1d264:	0724f463          	bgeu	s1,s2,1d2cc <__fputwc+0x114>
   1d268:	0007c703          	lbu	a4,0(a5)
   1d26c:	00842783          	lw	a5,8(s0)
   1d270:	fff78793          	addi	a5,a5,-1
   1d274:	00f42423          	sw	a5,8(s0)
   1d278:	fc07d8e3          	bgez	a5,1d248 <__fputwc+0x90>
   1d27c:	01842683          	lw	a3,24(s0)
   1d280:	00070593          	mv	a1,a4
   1d284:	00040613          	mv	a2,s0
   1d288:	00098513          	mv	a0,s3
   1d28c:	00d7c463          	blt	a5,a3,1d294 <__fputwc+0xdc>
   1d290:	fb671ce3          	bne	a4,s6,1d248 <__fputwc+0x90>
   1d294:	1e0020ef          	jal	ra,1f474 <__swbuf_r>
   1d298:	fd4510e3          	bne	a0,s4,1d258 <__fputwc+0xa0>
   1d29c:	fff00913          	li	s2,-1
   1d2a0:	02c12083          	lw	ra,44(sp)
   1d2a4:	02812403          	lw	s0,40(sp)
   1d2a8:	00090513          	mv	a0,s2
   1d2ac:	02412483          	lw	s1,36(sp)
   1d2b0:	02012903          	lw	s2,32(sp)
   1d2b4:	01c12983          	lw	s3,28(sp)
   1d2b8:	01812a03          	lw	s4,24(sp)
   1d2bc:	01412a83          	lw	s5,20(sp)
   1d2c0:	01012b03          	lw	s6,16(sp)
   1d2c4:	03010113          	addi	sp,sp,48
   1d2c8:	00008067          	ret
   1d2cc:	000a8913          	mv	s2,s5
   1d2d0:	fd1ff06f          	j	1d2a0 <__fputwc+0xe8>
   1d2d4:	00c45783          	lhu	a5,12(s0)
   1d2d8:	0407e793          	ori	a5,a5,64
   1d2dc:	00f41623          	sh	a5,12(s0)
   1d2e0:	fc1ff06f          	j	1d2a0 <__fputwc+0xe8>

0001d2e4 <_fputwc_r>:
   1d2e4:	00c61783          	lh	a5,12(a2)
   1d2e8:	01279713          	slli	a4,a5,0x12
   1d2ec:	02074063          	bltz	a4,1d30c <_fputwc_r+0x28>
   1d2f0:	06462703          	lw	a4,100(a2)
   1d2f4:	000026b7          	lui	a3,0x2
   1d2f8:	00d7e7b3          	or	a5,a5,a3
   1d2fc:	000026b7          	lui	a3,0x2
   1d300:	00d76733          	or	a4,a4,a3
   1d304:	00f61623          	sh	a5,12(a2)
   1d308:	06e62223          	sw	a4,100(a2)
   1d30c:	eadff06f          	j	1d1b8 <__fputwc>

0001d310 <fputwc>:
   1d310:	fe010113          	addi	sp,sp,-32
   1d314:	81c18793          	addi	a5,gp,-2020 # 26d8c <_impure_ptr>
   1d318:	00812c23          	sw	s0,24(sp)
   1d31c:	0007a403          	lw	s0,0(a5)
   1d320:	00912a23          	sw	s1,20(sp)
   1d324:	00112e23          	sw	ra,28(sp)
   1d328:	00050493          	mv	s1,a0
   1d32c:	00058613          	mv	a2,a1
   1d330:	00040663          	beqz	s0,1d33c <fputwc+0x2c>
   1d334:	03842783          	lw	a5,56(s0)
   1d338:	04078463          	beqz	a5,1d380 <fputwc+0x70>
   1d33c:	00c61783          	lh	a5,12(a2)
   1d340:	01279713          	slli	a4,a5,0x12
   1d344:	02074063          	bltz	a4,1d364 <fputwc+0x54>
   1d348:	06462703          	lw	a4,100(a2)
   1d34c:	000026b7          	lui	a3,0x2
   1d350:	00d7e7b3          	or	a5,a5,a3
   1d354:	000026b7          	lui	a3,0x2
   1d358:	00d76733          	or	a4,a4,a3
   1d35c:	00f61623          	sh	a5,12(a2)
   1d360:	06e62223          	sw	a4,100(a2)
   1d364:	00040513          	mv	a0,s0
   1d368:	01812403          	lw	s0,24(sp)
   1d36c:	01c12083          	lw	ra,28(sp)
   1d370:	00048593          	mv	a1,s1
   1d374:	01412483          	lw	s1,20(sp)
   1d378:	02010113          	addi	sp,sp,32
   1d37c:	e3dff06f          	j	1d1b8 <__fputwc>
   1d380:	00040513          	mv	a0,s0
   1d384:	00b12623          	sw	a1,12(sp)
   1d388:	f10f60ef          	jal	ra,13a98 <__sinit>
   1d38c:	00c12603          	lw	a2,12(sp)
   1d390:	fadff06f          	j	1d33c <fputwc+0x2c>

0001d394 <_fstat_r>:
   1d394:	00058793          	mv	a5,a1
   1d398:	ff010113          	addi	sp,sp,-16
   1d39c:	00812423          	sw	s0,8(sp)
   1d3a0:	00060593          	mv	a1,a2
   1d3a4:	00050413          	mv	s0,a0
   1d3a8:	00078513          	mv	a0,a5
   1d3ac:	00112623          	sw	ra,12(sp)
   1d3b0:	8601ae23          	sw	zero,-1924(gp) # 26dec <errno>
   1d3b4:	e91f20ef          	jal	ra,10244 <_fstat>
   1d3b8:	fff00793          	li	a5,-1
   1d3bc:	00f50a63          	beq	a0,a5,1d3d0 <_fstat_r+0x3c>
   1d3c0:	00c12083          	lw	ra,12(sp)
   1d3c4:	00812403          	lw	s0,8(sp)
   1d3c8:	01010113          	addi	sp,sp,16
   1d3cc:	00008067          	ret
   1d3d0:	87c18793          	addi	a5,gp,-1924 # 26dec <errno>
   1d3d4:	0007a783          	lw	a5,0(a5)
   1d3d8:	fe0784e3          	beqz	a5,1d3c0 <_fstat_r+0x2c>
   1d3dc:	00f42023          	sw	a5,0(s0)
   1d3e0:	00c12083          	lw	ra,12(sp)
   1d3e4:	00812403          	lw	s0,8(sp)
   1d3e8:	01010113          	addi	sp,sp,16
   1d3ec:	00008067          	ret

0001d3f0 <__sfvwrite_r>:
   1d3f0:	00862783          	lw	a5,8(a2)
   1d3f4:	34078263          	beqz	a5,1d738 <__sfvwrite_r+0x348>
   1d3f8:	00c5d783          	lhu	a5,12(a1)
   1d3fc:	fd010113          	addi	sp,sp,-48
   1d400:	02812423          	sw	s0,40(sp)
   1d404:	01412c23          	sw	s4,24(sp)
   1d408:	01512a23          	sw	s5,20(sp)
   1d40c:	02112623          	sw	ra,44(sp)
   1d410:	02912223          	sw	s1,36(sp)
   1d414:	03212023          	sw	s2,32(sp)
   1d418:	01312e23          	sw	s3,28(sp)
   1d41c:	01612823          	sw	s6,16(sp)
   1d420:	01712623          	sw	s7,12(sp)
   1d424:	01812423          	sw	s8,8(sp)
   1d428:	01912223          	sw	s9,4(sp)
   1d42c:	01a12023          	sw	s10,0(sp)
   1d430:	0087f713          	andi	a4,a5,8
   1d434:	00058413          	mv	s0,a1
   1d438:	00050a93          	mv	s5,a0
   1d43c:	00060a13          	mv	s4,a2
   1d440:	08070a63          	beqz	a4,1d4d4 <__sfvwrite_r+0xe4>
   1d444:	0105a703          	lw	a4,16(a1)
   1d448:	08070663          	beqz	a4,1d4d4 <__sfvwrite_r+0xe4>
   1d44c:	0027f713          	andi	a4,a5,2
   1d450:	000a2483          	lw	s1,0(s4)
   1d454:	0a070063          	beqz	a4,1d4f4 <__sfvwrite_r+0x104>
   1d458:	02442703          	lw	a4,36(s0)
   1d45c:	01c42783          	lw	a5,28(s0)
   1d460:	80000b37          	lui	s6,0x80000
   1d464:	00000993          	li	s3,0
   1d468:	00000913          	li	s2,0
   1d46c:	c00b4b13          	xori	s6,s6,-1024
   1d470:	00098613          	mv	a2,s3
   1d474:	00078593          	mv	a1,a5
   1d478:	000a8513          	mv	a0,s5
   1d47c:	04090463          	beqz	s2,1d4c4 <__sfvwrite_r+0xd4>
   1d480:	00090693          	mv	a3,s2
   1d484:	012b7463          	bgeu	s6,s2,1d48c <__sfvwrite_r+0x9c>
   1d488:	000b0693          	mv	a3,s6
   1d48c:	000700e7          	jalr	a4
   1d490:	28a05a63          	blez	a0,1d724 <__sfvwrite_r+0x334>
   1d494:	008a2783          	lw	a5,8(s4)
   1d498:	00a989b3          	add	s3,s3,a0
   1d49c:	40a90933          	sub	s2,s2,a0
   1d4a0:	40a78533          	sub	a0,a5,a0
   1d4a4:	00aa2423          	sw	a0,8(s4)
   1d4a8:	20050c63          	beqz	a0,1d6c0 <__sfvwrite_r+0x2d0>
   1d4ac:	01c42783          	lw	a5,28(s0)
   1d4b0:	02442703          	lw	a4,36(s0)
   1d4b4:	00098613          	mv	a2,s3
   1d4b8:	00078593          	mv	a1,a5
   1d4bc:	000a8513          	mv	a0,s5
   1d4c0:	fc0910e3          	bnez	s2,1d480 <__sfvwrite_r+0x90>
   1d4c4:	0004a983          	lw	s3,0(s1)
   1d4c8:	0044a903          	lw	s2,4(s1)
   1d4cc:	00848493          	addi	s1,s1,8
   1d4d0:	fa1ff06f          	j	1d470 <__sfvwrite_r+0x80>
   1d4d4:	00040593          	mv	a1,s0
   1d4d8:	000a8513          	mv	a0,s5
   1d4dc:	c89f50ef          	jal	ra,13164 <__swsetup_r>
   1d4e0:	3c051263          	bnez	a0,1d8a4 <__sfvwrite_r+0x4b4>
   1d4e4:	00c45783          	lhu	a5,12(s0)
   1d4e8:	000a2483          	lw	s1,0(s4)
   1d4ec:	0027f713          	andi	a4,a5,2
   1d4f0:	f60714e3          	bnez	a4,1d458 <__sfvwrite_r+0x68>
   1d4f4:	0017f713          	andi	a4,a5,1
   1d4f8:	24071463          	bnez	a4,1d740 <__sfvwrite_r+0x350>
   1d4fc:	00842c83          	lw	s9,8(s0)
   1d500:	00042503          	lw	a0,0(s0)
   1d504:	80000bb7          	lui	s7,0x80000
   1d508:	ffebcc13          	xori	s8,s7,-2
   1d50c:	00000b13          	li	s6,0
   1d510:	00000913          	li	s2,0
   1d514:	fffbcb93          	not	s7,s7
   1d518:	0e090e63          	beqz	s2,1d614 <__sfvwrite_r+0x224>
   1d51c:	2007f713          	andi	a4,a5,512
   1d520:	24070c63          	beqz	a4,1d778 <__sfvwrite_r+0x388>
   1d524:	000c8d13          	mv	s10,s9
   1d528:	2f996863          	bltu	s2,s9,1d818 <__sfvwrite_r+0x428>
   1d52c:	4807f713          	andi	a4,a5,1152
   1d530:	08070a63          	beqz	a4,1d5c4 <__sfvwrite_r+0x1d4>
   1d534:	01442683          	lw	a3,20(s0)
   1d538:	01042583          	lw	a1,16(s0)
   1d53c:	00190713          	addi	a4,s2,1
   1d540:	00169993          	slli	s3,a3,0x1
   1d544:	00d986b3          	add	a3,s3,a3
   1d548:	01f6d993          	srli	s3,a3,0x1f
   1d54c:	40b50cb3          	sub	s9,a0,a1
   1d550:	00d989b3          	add	s3,s3,a3
   1d554:	4019d993          	srai	s3,s3,0x1
   1d558:	01970733          	add	a4,a4,s9
   1d55c:	00098613          	mv	a2,s3
   1d560:	00e9f663          	bgeu	s3,a4,1d56c <__sfvwrite_r+0x17c>
   1d564:	00070993          	mv	s3,a4
   1d568:	00070613          	mv	a2,a4
   1d56c:	4007f793          	andi	a5,a5,1024
   1d570:	2e078a63          	beqz	a5,1d864 <__sfvwrite_r+0x474>
   1d574:	00060593          	mv	a1,a2
   1d578:	000a8513          	mv	a0,s5
   1d57c:	939f90ef          	jal	ra,16eb4 <_malloc_r>
   1d580:	00050d13          	mv	s10,a0
   1d584:	30050863          	beqz	a0,1d894 <__sfvwrite_r+0x4a4>
   1d588:	01042583          	lw	a1,16(s0)
   1d58c:	000c8613          	mv	a2,s9
   1d590:	3d0000ef          	jal	ra,1d960 <memcpy>
   1d594:	00c45783          	lhu	a5,12(s0)
   1d598:	b7f7f793          	andi	a5,a5,-1153
   1d59c:	0807e793          	ori	a5,a5,128
   1d5a0:	00f41623          	sh	a5,12(s0)
   1d5a4:	019d0533          	add	a0,s10,s9
   1d5a8:	419987b3          	sub	a5,s3,s9
   1d5ac:	01a42823          	sw	s10,16(s0)
   1d5b0:	00a42023          	sw	a0,0(s0)
   1d5b4:	01342a23          	sw	s3,20(s0)
   1d5b8:	00090c93          	mv	s9,s2
   1d5bc:	00f42423          	sw	a5,8(s0)
   1d5c0:	00090d13          	mv	s10,s2
   1d5c4:	000d0613          	mv	a2,s10
   1d5c8:	000b0593          	mv	a1,s6
   1d5cc:	4b0000ef          	jal	ra,1da7c <memmove>
   1d5d0:	00842783          	lw	a5,8(s0)
   1d5d4:	00042603          	lw	a2,0(s0)
   1d5d8:	00090993          	mv	s3,s2
   1d5dc:	41978cb3          	sub	s9,a5,s9
   1d5e0:	01a60633          	add	a2,a2,s10
   1d5e4:	01942423          	sw	s9,8(s0)
   1d5e8:	00c42023          	sw	a2,0(s0)
   1d5ec:	00000913          	li	s2,0
   1d5f0:	008a2783          	lw	a5,8(s4)
   1d5f4:	013b0b33          	add	s6,s6,s3
   1d5f8:	413789b3          	sub	s3,a5,s3
   1d5fc:	013a2423          	sw	s3,8(s4)
   1d600:	0c098063          	beqz	s3,1d6c0 <__sfvwrite_r+0x2d0>
   1d604:	00842c83          	lw	s9,8(s0)
   1d608:	00042503          	lw	a0,0(s0)
   1d60c:	00c45783          	lhu	a5,12(s0)
   1d610:	f00916e3          	bnez	s2,1d51c <__sfvwrite_r+0x12c>
   1d614:	0004ab03          	lw	s6,0(s1)
   1d618:	0044a903          	lw	s2,4(s1)
   1d61c:	00848493          	addi	s1,s1,8
   1d620:	ef9ff06f          	j	1d518 <__sfvwrite_r+0x128>
   1d624:	0044a983          	lw	s3,4(s1)
   1d628:	0004ab83          	lw	s7,0(s1)
   1d62c:	00848493          	addi	s1,s1,8
   1d630:	fe098ae3          	beqz	s3,1d624 <__sfvwrite_r+0x234>
   1d634:	00098613          	mv	a2,s3
   1d638:	00a00593          	li	a1,10
   1d63c:	000b8513          	mv	a0,s7
   1d640:	8f4fa0ef          	jal	ra,17734 <memchr>
   1d644:	12050463          	beqz	a0,1d76c <__sfvwrite_r+0x37c>
   1d648:	00150513          	addi	a0,a0,1
   1d64c:	41750b33          	sub	s6,a0,s7
   1d650:	000b0793          	mv	a5,s6
   1d654:	00098c13          	mv	s8,s3
   1d658:	0137f463          	bgeu	a5,s3,1d660 <__sfvwrite_r+0x270>
   1d65c:	00078c13          	mv	s8,a5
   1d660:	00042503          	lw	a0,0(s0)
   1d664:	01042783          	lw	a5,16(s0)
   1d668:	01442683          	lw	a3,20(s0)
   1d66c:	00a7f863          	bgeu	a5,a0,1d67c <__sfvwrite_r+0x28c>
   1d670:	00842903          	lw	s2,8(s0)
   1d674:	01268933          	add	s2,a3,s2
   1d678:	09894263          	blt	s2,s8,1d6fc <__sfvwrite_r+0x30c>
   1d67c:	1adc4e63          	blt	s8,a3,1d838 <__sfvwrite_r+0x448>
   1d680:	02442783          	lw	a5,36(s0)
   1d684:	01c42583          	lw	a1,28(s0)
   1d688:	000b8613          	mv	a2,s7
   1d68c:	000a8513          	mv	a0,s5
   1d690:	000780e7          	jalr	a5
   1d694:	00050913          	mv	s2,a0
   1d698:	08a05663          	blez	a0,1d724 <__sfvwrite_r+0x334>
   1d69c:	412b0b33          	sub	s6,s6,s2
   1d6a0:	00100513          	li	a0,1
   1d6a4:	180b0063          	beqz	s6,1d824 <__sfvwrite_r+0x434>
   1d6a8:	008a2783          	lw	a5,8(s4)
   1d6ac:	012b8bb3          	add	s7,s7,s2
   1d6b0:	412989b3          	sub	s3,s3,s2
   1d6b4:	41278933          	sub	s2,a5,s2
   1d6b8:	012a2423          	sw	s2,8(s4)
   1d6bc:	08091a63          	bnez	s2,1d750 <__sfvwrite_r+0x360>
   1d6c0:	00000513          	li	a0,0
   1d6c4:	02c12083          	lw	ra,44(sp)
   1d6c8:	02812403          	lw	s0,40(sp)
   1d6cc:	02412483          	lw	s1,36(sp)
   1d6d0:	02012903          	lw	s2,32(sp)
   1d6d4:	01c12983          	lw	s3,28(sp)
   1d6d8:	01812a03          	lw	s4,24(sp)
   1d6dc:	01412a83          	lw	s5,20(sp)
   1d6e0:	01012b03          	lw	s6,16(sp)
   1d6e4:	00c12b83          	lw	s7,12(sp)
   1d6e8:	00812c03          	lw	s8,8(sp)
   1d6ec:	00412c83          	lw	s9,4(sp)
   1d6f0:	00012d03          	lw	s10,0(sp)
   1d6f4:	03010113          	addi	sp,sp,48
   1d6f8:	00008067          	ret
   1d6fc:	000b8593          	mv	a1,s7
   1d700:	00090613          	mv	a2,s2
   1d704:	378000ef          	jal	ra,1da7c <memmove>
   1d708:	00042783          	lw	a5,0(s0)
   1d70c:	00040593          	mv	a1,s0
   1d710:	000a8513          	mv	a0,s5
   1d714:	012787b3          	add	a5,a5,s2
   1d718:	00f42023          	sw	a5,0(s0)
   1d71c:	fc5f50ef          	jal	ra,136e0 <_fflush_r>
   1d720:	f6050ee3          	beqz	a0,1d69c <__sfvwrite_r+0x2ac>
   1d724:	00c41783          	lh	a5,12(s0)
   1d728:	0407e793          	ori	a5,a5,64
   1d72c:	00f41623          	sh	a5,12(s0)
   1d730:	fff00513          	li	a0,-1
   1d734:	f91ff06f          	j	1d6c4 <__sfvwrite_r+0x2d4>
   1d738:	00000513          	li	a0,0
   1d73c:	00008067          	ret
   1d740:	00000b13          	li	s6,0
   1d744:	00000513          	li	a0,0
   1d748:	00000b93          	li	s7,0
   1d74c:	00000993          	li	s3,0
   1d750:	ec098ae3          	beqz	s3,1d624 <__sfvwrite_r+0x234>
   1d754:	ee051ee3          	bnez	a0,1d650 <__sfvwrite_r+0x260>
   1d758:	00098613          	mv	a2,s3
   1d75c:	00a00593          	li	a1,10
   1d760:	000b8513          	mv	a0,s7
   1d764:	fd1f90ef          	jal	ra,17734 <memchr>
   1d768:	ee0510e3          	bnez	a0,1d648 <__sfvwrite_r+0x258>
   1d76c:	00198793          	addi	a5,s3,1
   1d770:	00078b13          	mv	s6,a5
   1d774:	ee1ff06f          	j	1d654 <__sfvwrite_r+0x264>
   1d778:	01042783          	lw	a5,16(s0)
   1d77c:	04a7e863          	bltu	a5,a0,1d7cc <__sfvwrite_r+0x3dc>
   1d780:	01442983          	lw	s3,20(s0)
   1d784:	05396463          	bltu	s2,s3,1d7cc <__sfvwrite_r+0x3dc>
   1d788:	00090513          	mv	a0,s2
   1d78c:	012c7463          	bgeu	s8,s2,1d794 <__sfvwrite_r+0x3a4>
   1d790:	000b8513          	mv	a0,s7
   1d794:	00098593          	mv	a1,s3
   1d798:	521060ef          	jal	ra,244b8 <__divsi3>
   1d79c:	00098593          	mv	a1,s3
   1d7a0:	4f5060ef          	jal	ra,24494 <__mulsi3>
   1d7a4:	01c42583          	lw	a1,28(s0)
   1d7a8:	02442783          	lw	a5,36(s0)
   1d7ac:	00050693          	mv	a3,a0
   1d7b0:	000b0613          	mv	a2,s6
   1d7b4:	000a8513          	mv	a0,s5
   1d7b8:	000780e7          	jalr	a5
   1d7bc:	f6a054e3          	blez	a0,1d724 <__sfvwrite_r+0x334>
   1d7c0:	00050993          	mv	s3,a0
   1d7c4:	41390933          	sub	s2,s2,s3
   1d7c8:	e29ff06f          	j	1d5f0 <__sfvwrite_r+0x200>
   1d7cc:	000c8993          	mv	s3,s9
   1d7d0:	01997463          	bgeu	s2,s9,1d7d8 <__sfvwrite_r+0x3e8>
   1d7d4:	00090993          	mv	s3,s2
   1d7d8:	00098613          	mv	a2,s3
   1d7dc:	000b0593          	mv	a1,s6
   1d7e0:	29c000ef          	jal	ra,1da7c <memmove>
   1d7e4:	00842783          	lw	a5,8(s0)
   1d7e8:	00042703          	lw	a4,0(s0)
   1d7ec:	413787b3          	sub	a5,a5,s3
   1d7f0:	01370733          	add	a4,a4,s3
   1d7f4:	00f42423          	sw	a5,8(s0)
   1d7f8:	00e42023          	sw	a4,0(s0)
   1d7fc:	fc0794e3          	bnez	a5,1d7c4 <__sfvwrite_r+0x3d4>
   1d800:	00040593          	mv	a1,s0
   1d804:	000a8513          	mv	a0,s5
   1d808:	ed9f50ef          	jal	ra,136e0 <_fflush_r>
   1d80c:	f0051ce3          	bnez	a0,1d724 <__sfvwrite_r+0x334>
   1d810:	41390933          	sub	s2,s2,s3
   1d814:	dddff06f          	j	1d5f0 <__sfvwrite_r+0x200>
   1d818:	00090c93          	mv	s9,s2
   1d81c:	00090d13          	mv	s10,s2
   1d820:	da5ff06f          	j	1d5c4 <__sfvwrite_r+0x1d4>
   1d824:	00040593          	mv	a1,s0
   1d828:	000a8513          	mv	a0,s5
   1d82c:	eb5f50ef          	jal	ra,136e0 <_fflush_r>
   1d830:	e6050ce3          	beqz	a0,1d6a8 <__sfvwrite_r+0x2b8>
   1d834:	ef1ff06f          	j	1d724 <__sfvwrite_r+0x334>
   1d838:	000c0613          	mv	a2,s8
   1d83c:	000b8593          	mv	a1,s7
   1d840:	23c000ef          	jal	ra,1da7c <memmove>
   1d844:	00842703          	lw	a4,8(s0)
   1d848:	00042783          	lw	a5,0(s0)
   1d84c:	000c0913          	mv	s2,s8
   1d850:	41870733          	sub	a4,a4,s8
   1d854:	01878c33          	add	s8,a5,s8
   1d858:	00e42423          	sw	a4,8(s0)
   1d85c:	01842023          	sw	s8,0(s0)
   1d860:	e3dff06f          	j	1d69c <__sfvwrite_r+0x2ac>
   1d864:	000a8513          	mv	a0,s5
   1d868:	394000ef          	jal	ra,1dbfc <_realloc_r>
   1d86c:	00050d13          	mv	s10,a0
   1d870:	d2051ae3          	bnez	a0,1d5a4 <__sfvwrite_r+0x1b4>
   1d874:	01042583          	lw	a1,16(s0)
   1d878:	000a8513          	mv	a0,s5
   1d87c:	b90f60ef          	jal	ra,13c0c <_free_r>
   1d880:	00c41783          	lh	a5,12(s0)
   1d884:	00c00713          	li	a4,12
   1d888:	00eaa023          	sw	a4,0(s5)
   1d88c:	f7f7f793          	andi	a5,a5,-129
   1d890:	e99ff06f          	j	1d728 <__sfvwrite_r+0x338>
   1d894:	00c00793          	li	a5,12
   1d898:	00faa023          	sw	a5,0(s5)
   1d89c:	00c41783          	lh	a5,12(s0)
   1d8a0:	e89ff06f          	j	1d728 <__sfvwrite_r+0x338>
   1d8a4:	fff00513          	li	a0,-1
   1d8a8:	e1dff06f          	j	1d6c4 <__sfvwrite_r+0x2d4>

0001d8ac <_isatty_r>:
   1d8ac:	ff010113          	addi	sp,sp,-16
   1d8b0:	00812423          	sw	s0,8(sp)
   1d8b4:	00050413          	mv	s0,a0
   1d8b8:	00058513          	mv	a0,a1
   1d8bc:	8601ae23          	sw	zero,-1924(gp) # 26dec <errno>
   1d8c0:	00112623          	sw	ra,12(sp)
   1d8c4:	885f20ef          	jal	ra,10148 <_access>
   1d8c8:	fff00793          	li	a5,-1
   1d8cc:	00f50a63          	beq	a0,a5,1d8e0 <_isatty_r+0x34>
   1d8d0:	00c12083          	lw	ra,12(sp)
   1d8d4:	00812403          	lw	s0,8(sp)
   1d8d8:	01010113          	addi	sp,sp,16
   1d8dc:	00008067          	ret
   1d8e0:	87c18793          	addi	a5,gp,-1924 # 26dec <errno>
   1d8e4:	0007a783          	lw	a5,0(a5)
   1d8e8:	fe0784e3          	beqz	a5,1d8d0 <_isatty_r+0x24>
   1d8ec:	00f42023          	sw	a5,0(s0)
   1d8f0:	00c12083          	lw	ra,12(sp)
   1d8f4:	00812403          	lw	s0,8(sp)
   1d8f8:	01010113          	addi	sp,sp,16
   1d8fc:	00008067          	ret

0001d900 <_lseek_r>:
   1d900:	00058793          	mv	a5,a1
   1d904:	ff010113          	addi	sp,sp,-16
   1d908:	00812423          	sw	s0,8(sp)
   1d90c:	00060593          	mv	a1,a2
   1d910:	00050413          	mv	s0,a0
   1d914:	00068613          	mv	a2,a3
   1d918:	00078513          	mv	a0,a5
   1d91c:	00112623          	sw	ra,12(sp)
   1d920:	8601ae23          	sw	zero,-1924(gp) # 26dec <errno>
   1d924:	825f20ef          	jal	ra,10148 <_access>
   1d928:	fff00793          	li	a5,-1
   1d92c:	00f50a63          	beq	a0,a5,1d940 <_lseek_r+0x40>
   1d930:	00c12083          	lw	ra,12(sp)
   1d934:	00812403          	lw	s0,8(sp)
   1d938:	01010113          	addi	sp,sp,16
   1d93c:	00008067          	ret
   1d940:	87c18793          	addi	a5,gp,-1924 # 26dec <errno>
   1d944:	0007a783          	lw	a5,0(a5)
   1d948:	fe0784e3          	beqz	a5,1d930 <_lseek_r+0x30>
   1d94c:	00f42023          	sw	a5,0(s0)
   1d950:	00c12083          	lw	ra,12(sp)
   1d954:	00812403          	lw	s0,8(sp)
   1d958:	01010113          	addi	sp,sp,16
   1d95c:	00008067          	ret

0001d960 <memcpy>:
   1d960:	00a5c7b3          	xor	a5,a1,a0
   1d964:	0037f793          	andi	a5,a5,3
   1d968:	00c508b3          	add	a7,a0,a2
   1d96c:	06079263          	bnez	a5,1d9d0 <memcpy+0x70>
   1d970:	00300793          	li	a5,3
   1d974:	04c7fe63          	bgeu	a5,a2,1d9d0 <memcpy+0x70>
   1d978:	00357793          	andi	a5,a0,3
   1d97c:	00050713          	mv	a4,a0
   1d980:	06079863          	bnez	a5,1d9f0 <memcpy+0x90>
   1d984:	ffc8f613          	andi	a2,a7,-4
   1d988:	fe060793          	addi	a5,a2,-32
   1d98c:	08f76c63          	bltu	a4,a5,1da24 <memcpy+0xc4>
   1d990:	02c77c63          	bgeu	a4,a2,1d9c8 <memcpy+0x68>
   1d994:	00058693          	mv	a3,a1
   1d998:	00070793          	mv	a5,a4
   1d99c:	0006a803          	lw	a6,0(a3) # 2000 <_start-0xe000>
   1d9a0:	00478793          	addi	a5,a5,4
   1d9a4:	00468693          	addi	a3,a3,4
   1d9a8:	ff07ae23          	sw	a6,-4(a5)
   1d9ac:	fec7e8e3          	bltu	a5,a2,1d99c <memcpy+0x3c>
   1d9b0:	fff60793          	addi	a5,a2,-1
   1d9b4:	40e787b3          	sub	a5,a5,a4
   1d9b8:	ffc7f793          	andi	a5,a5,-4
   1d9bc:	00478793          	addi	a5,a5,4
   1d9c0:	00f70733          	add	a4,a4,a5
   1d9c4:	00f585b3          	add	a1,a1,a5
   1d9c8:	01176863          	bltu	a4,a7,1d9d8 <memcpy+0x78>
   1d9cc:	00008067          	ret
   1d9d0:	00050713          	mv	a4,a0
   1d9d4:	ff157ce3          	bgeu	a0,a7,1d9cc <memcpy+0x6c>
   1d9d8:	0005c783          	lbu	a5,0(a1)
   1d9dc:	00170713          	addi	a4,a4,1
   1d9e0:	00158593          	addi	a1,a1,1
   1d9e4:	fef70fa3          	sb	a5,-1(a4)
   1d9e8:	ff1768e3          	bltu	a4,a7,1d9d8 <memcpy+0x78>
   1d9ec:	00008067          	ret
   1d9f0:	0005c683          	lbu	a3,0(a1)
   1d9f4:	00170713          	addi	a4,a4,1
   1d9f8:	00377793          	andi	a5,a4,3
   1d9fc:	fed70fa3          	sb	a3,-1(a4)
   1da00:	00158593          	addi	a1,a1,1
   1da04:	f80780e3          	beqz	a5,1d984 <memcpy+0x24>
   1da08:	0005c683          	lbu	a3,0(a1)
   1da0c:	00170713          	addi	a4,a4,1
   1da10:	00377793          	andi	a5,a4,3
   1da14:	fed70fa3          	sb	a3,-1(a4)
   1da18:	00158593          	addi	a1,a1,1
   1da1c:	fc079ae3          	bnez	a5,1d9f0 <memcpy+0x90>
   1da20:	f65ff06f          	j	1d984 <memcpy+0x24>
   1da24:	0005a683          	lw	a3,0(a1)
   1da28:	0045a283          	lw	t0,4(a1)
   1da2c:	0085af83          	lw	t6,8(a1)
   1da30:	00c5af03          	lw	t5,12(a1)
   1da34:	0105ae83          	lw	t4,16(a1)
   1da38:	0145ae03          	lw	t3,20(a1)
   1da3c:	0185a303          	lw	t1,24(a1)
   1da40:	01c5a803          	lw	a6,28(a1)
   1da44:	02458593          	addi	a1,a1,36
   1da48:	00d72023          	sw	a3,0(a4)
   1da4c:	ffc5a683          	lw	a3,-4(a1)
   1da50:	00572223          	sw	t0,4(a4)
   1da54:	01f72423          	sw	t6,8(a4)
   1da58:	01e72623          	sw	t5,12(a4)
   1da5c:	01d72823          	sw	t4,16(a4)
   1da60:	01c72a23          	sw	t3,20(a4)
   1da64:	00672c23          	sw	t1,24(a4)
   1da68:	01072e23          	sw	a6,28(a4)
   1da6c:	02470713          	addi	a4,a4,36
   1da70:	fed72e23          	sw	a3,-4(a4)
   1da74:	faf768e3          	bltu	a4,a5,1da24 <memcpy+0xc4>
   1da78:	f19ff06f          	j	1d990 <memcpy+0x30>

0001da7c <memmove>:
   1da7c:	02a5f663          	bgeu	a1,a0,1daa8 <memmove+0x2c>
   1da80:	00c587b3          	add	a5,a1,a2
   1da84:	02f57263          	bgeu	a0,a5,1daa8 <memmove+0x2c>
   1da88:	00c50733          	add	a4,a0,a2
   1da8c:	0e060a63          	beqz	a2,1db80 <memmove+0x104>
   1da90:	fff78793          	addi	a5,a5,-1
   1da94:	0007c683          	lbu	a3,0(a5)
   1da98:	fff70713          	addi	a4,a4,-1
   1da9c:	00d70023          	sb	a3,0(a4)
   1daa0:	fef598e3          	bne	a1,a5,1da90 <memmove+0x14>
   1daa4:	00008067          	ret
   1daa8:	00f00793          	li	a5,15
   1daac:	02c7e863          	bltu	a5,a2,1dadc <memmove+0x60>
   1dab0:	00050793          	mv	a5,a0
   1dab4:	fff60693          	addi	a3,a2,-1
   1dab8:	0c060c63          	beqz	a2,1db90 <memmove+0x114>
   1dabc:	00168693          	addi	a3,a3,1
   1dac0:	00d786b3          	add	a3,a5,a3
   1dac4:	00158593          	addi	a1,a1,1
   1dac8:	fff5c703          	lbu	a4,-1(a1)
   1dacc:	00178793          	addi	a5,a5,1
   1dad0:	fee78fa3          	sb	a4,-1(a5)
   1dad4:	fed798e3          	bne	a5,a3,1dac4 <memmove+0x48>
   1dad8:	00008067          	ret
   1dadc:	00a5e7b3          	or	a5,a1,a0
   1dae0:	0037f793          	andi	a5,a5,3
   1dae4:	0a079063          	bnez	a5,1db84 <memmove+0x108>
   1dae8:	ff060893          	addi	a7,a2,-16
   1daec:	ff08f893          	andi	a7,a7,-16
   1daf0:	01088893          	addi	a7,a7,16
   1daf4:	01150833          	add	a6,a0,a7
   1daf8:	00058713          	mv	a4,a1
   1dafc:	00050793          	mv	a5,a0
   1db00:	00072683          	lw	a3,0(a4)
   1db04:	01078793          	addi	a5,a5,16
   1db08:	01070713          	addi	a4,a4,16
   1db0c:	fed7a823          	sw	a3,-16(a5)
   1db10:	ff472683          	lw	a3,-12(a4)
   1db14:	fed7aa23          	sw	a3,-12(a5)
   1db18:	ff872683          	lw	a3,-8(a4)
   1db1c:	fed7ac23          	sw	a3,-8(a5)
   1db20:	ffc72683          	lw	a3,-4(a4)
   1db24:	fed7ae23          	sw	a3,-4(a5)
   1db28:	fcf81ce3          	bne	a6,a5,1db00 <memmove+0x84>
   1db2c:	00c67713          	andi	a4,a2,12
   1db30:	011585b3          	add	a1,a1,a7
   1db34:	00f67813          	andi	a6,a2,15
   1db38:	04070e63          	beqz	a4,1db94 <memmove+0x118>
   1db3c:	00058713          	mv	a4,a1
   1db40:	00078893          	mv	a7,a5
   1db44:	00300e13          	li	t3,3
   1db48:	00470713          	addi	a4,a4,4
   1db4c:	ffc72303          	lw	t1,-4(a4)
   1db50:	00488893          	addi	a7,a7,4
   1db54:	40e806b3          	sub	a3,a6,a4
   1db58:	fe68ae23          	sw	t1,-4(a7)
   1db5c:	00d586b3          	add	a3,a1,a3
   1db60:	fede64e3          	bltu	t3,a3,1db48 <memmove+0xcc>
   1db64:	ffc80713          	addi	a4,a6,-4
   1db68:	ffc77713          	andi	a4,a4,-4
   1db6c:	00470713          	addi	a4,a4,4
   1db70:	00367613          	andi	a2,a2,3
   1db74:	00e787b3          	add	a5,a5,a4
   1db78:	00e585b3          	add	a1,a1,a4
   1db7c:	f39ff06f          	j	1dab4 <memmove+0x38>
   1db80:	00008067          	ret
   1db84:	fff60693          	addi	a3,a2,-1
   1db88:	00050793          	mv	a5,a0
   1db8c:	f31ff06f          	j	1dabc <memmove+0x40>
   1db90:	00008067          	ret
   1db94:	00080613          	mv	a2,a6
   1db98:	f1dff06f          	j	1dab4 <memmove+0x38>

0001db9c <_read_r>:
   1db9c:	00058793          	mv	a5,a1
   1dba0:	ff010113          	addi	sp,sp,-16
   1dba4:	00812423          	sw	s0,8(sp)
   1dba8:	00060593          	mv	a1,a2
   1dbac:	00050413          	mv	s0,a0
   1dbb0:	00068613          	mv	a2,a3
   1dbb4:	00078513          	mv	a0,a5
   1dbb8:	00112623          	sw	ra,12(sp)
   1dbbc:	8601ae23          	sw	zero,-1924(gp) # 26dec <errno>
   1dbc0:	dd0f20ef          	jal	ra,10190 <_read>
   1dbc4:	fff00793          	li	a5,-1
   1dbc8:	00f50a63          	beq	a0,a5,1dbdc <_read_r+0x40>
   1dbcc:	00c12083          	lw	ra,12(sp)
   1dbd0:	00812403          	lw	s0,8(sp)
   1dbd4:	01010113          	addi	sp,sp,16
   1dbd8:	00008067          	ret
   1dbdc:	87c18793          	addi	a5,gp,-1924 # 26dec <errno>
   1dbe0:	0007a783          	lw	a5,0(a5)
   1dbe4:	fe0784e3          	beqz	a5,1dbcc <_read_r+0x30>
   1dbe8:	00f42023          	sw	a5,0(s0)
   1dbec:	00c12083          	lw	ra,12(sp)
   1dbf0:	00812403          	lw	s0,8(sp)
   1dbf4:	01010113          	addi	sp,sp,16
   1dbf8:	00008067          	ret

0001dbfc <_realloc_r>:
   1dbfc:	fd010113          	addi	sp,sp,-48
   1dc00:	01312e23          	sw	s3,28(sp)
   1dc04:	02112623          	sw	ra,44(sp)
   1dc08:	02812423          	sw	s0,40(sp)
   1dc0c:	02912223          	sw	s1,36(sp)
   1dc10:	03212023          	sw	s2,32(sp)
   1dc14:	01412c23          	sw	s4,24(sp)
   1dc18:	01512a23          	sw	s5,20(sp)
   1dc1c:	01612823          	sw	s6,16(sp)
   1dc20:	01712623          	sw	s7,12(sp)
   1dc24:	01812423          	sw	s8,8(sp)
   1dc28:	00060993          	mv	s3,a2
   1dc2c:	22058c63          	beqz	a1,1de64 <_realloc_r+0x268>
   1dc30:	00058b13          	mv	s6,a1
   1dc34:	00050a93          	mv	s5,a0
   1dc38:	bd9f90ef          	jal	ra,17810 <__malloc_lock>
   1dc3c:	00b98413          	addi	s0,s3,11
   1dc40:	01600793          	li	a5,22
   1dc44:	0e87fe63          	bgeu	a5,s0,1dd40 <_realloc_r+0x144>
   1dc48:	ff847413          	andi	s0,s0,-8
   1dc4c:	00040713          	mv	a4,s0
   1dc50:	0e044e63          	bltz	s0,1dd4c <_realloc_r+0x150>
   1dc54:	0f346c63          	bltu	s0,s3,1dd4c <_realloc_r+0x150>
   1dc58:	ffcb2783          	lw	a5,-4(s6) # 7ffffffc <__global_pointer$+0x7ffd8a8c>
   1dc5c:	ff8b0913          	addi	s2,s6,-8
   1dc60:	ffc7f493          	andi	s1,a5,-4
   1dc64:	00990a33          	add	s4,s2,s1
   1dc68:	1ae4d463          	bge	s1,a4,1de10 <_realloc_r+0x214>
   1dc6c:	00009697          	auipc	a3,0x9
   1dc70:	cf868693          	addi	a3,a3,-776 # 26964 <__malloc_av_>
   1dc74:	0086a603          	lw	a2,8(a3)
   1dc78:	004a2683          	lw	a3,4(s4)
   1dc7c:	25460663          	beq	a2,s4,1dec8 <_realloc_r+0x2cc>
   1dc80:	ffe6f613          	andi	a2,a3,-2
   1dc84:	00ca0633          	add	a2,s4,a2
   1dc88:	00462603          	lw	a2,4(a2)
   1dc8c:	00167613          	andi	a2,a2,1
   1dc90:	1a061c63          	bnez	a2,1de48 <_realloc_r+0x24c>
   1dc94:	ffc6f693          	andi	a3,a3,-4
   1dc98:	00d48633          	add	a2,s1,a3
   1dc9c:	34e65a63          	bge	a2,a4,1dff0 <_realloc_r+0x3f4>
   1dca0:	0017f793          	andi	a5,a5,1
   1dca4:	02079463          	bnez	a5,1dccc <_realloc_r+0xd0>
   1dca8:	ff8b2c03          	lw	s8,-8(s6)
   1dcac:	41890c33          	sub	s8,s2,s8
   1dcb0:	004c2783          	lw	a5,4(s8)
   1dcb4:	ffc7f793          	andi	a5,a5,-4
   1dcb8:	00d786b3          	add	a3,a5,a3
   1dcbc:	00968bb3          	add	s7,a3,s1
   1dcc0:	0cebd663          	bge	s7,a4,1dd8c <_realloc_r+0x190>
   1dcc4:	00f48bb3          	add	s7,s1,a5
   1dcc8:	34ebdc63          	bge	s7,a4,1e020 <_realloc_r+0x424>
   1dccc:	00098593          	mv	a1,s3
   1dcd0:	000a8513          	mv	a0,s5
   1dcd4:	9e0f90ef          	jal	ra,16eb4 <_malloc_r>
   1dcd8:	00050993          	mv	s3,a0
   1dcdc:	04050c63          	beqz	a0,1dd34 <_realloc_r+0x138>
   1dce0:	ffcb2783          	lw	a5,-4(s6)
   1dce4:	ff850713          	addi	a4,a0,-8
   1dce8:	ffe7f793          	andi	a5,a5,-2
   1dcec:	00f907b3          	add	a5,s2,a5
   1dcf0:	30e78e63          	beq	a5,a4,1e00c <_realloc_r+0x410>
   1dcf4:	ffc48613          	addi	a2,s1,-4
   1dcf8:	02400793          	li	a5,36
   1dcfc:	38c7ee63          	bltu	a5,a2,1e098 <_realloc_r+0x49c>
   1dd00:	01300713          	li	a4,19
   1dd04:	000b2683          	lw	a3,0(s6)
   1dd08:	28c76663          	bltu	a4,a2,1df94 <_realloc_r+0x398>
   1dd0c:	00050793          	mv	a5,a0
   1dd10:	000b0713          	mv	a4,s6
   1dd14:	00d7a023          	sw	a3,0(a5)
   1dd18:	00472683          	lw	a3,4(a4)
   1dd1c:	00d7a223          	sw	a3,4(a5)
   1dd20:	00872703          	lw	a4,8(a4)
   1dd24:	00e7a423          	sw	a4,8(a5)
   1dd28:	000b0593          	mv	a1,s6
   1dd2c:	000a8513          	mv	a0,s5
   1dd30:	eddf50ef          	jal	ra,13c0c <_free_r>
   1dd34:	000a8513          	mv	a0,s5
   1dd38:	addf90ef          	jal	ra,17814 <__malloc_unlock>
   1dd3c:	01c0006f          	j	1dd58 <_realloc_r+0x15c>
   1dd40:	01000413          	li	s0,16
   1dd44:	01000713          	li	a4,16
   1dd48:	f13478e3          	bgeu	s0,s3,1dc58 <_realloc_r+0x5c>
   1dd4c:	00c00793          	li	a5,12
   1dd50:	00faa023          	sw	a5,0(s5)
   1dd54:	00000993          	li	s3,0
   1dd58:	02c12083          	lw	ra,44(sp)
   1dd5c:	02812403          	lw	s0,40(sp)
   1dd60:	00098513          	mv	a0,s3
   1dd64:	02412483          	lw	s1,36(sp)
   1dd68:	02012903          	lw	s2,32(sp)
   1dd6c:	01c12983          	lw	s3,28(sp)
   1dd70:	01812a03          	lw	s4,24(sp)
   1dd74:	01412a83          	lw	s5,20(sp)
   1dd78:	01012b03          	lw	s6,16(sp)
   1dd7c:	00c12b83          	lw	s7,12(sp)
   1dd80:	00812c03          	lw	s8,8(sp)
   1dd84:	03010113          	addi	sp,sp,48
   1dd88:	00008067          	ret
   1dd8c:	00ca2783          	lw	a5,12(s4)
   1dd90:	008a2703          	lw	a4,8(s4)
   1dd94:	ffc48613          	addi	a2,s1,-4
   1dd98:	02400693          	li	a3,36
   1dd9c:	00f72623          	sw	a5,12(a4)
   1dda0:	00e7a423          	sw	a4,8(a5)
   1dda4:	008c2703          	lw	a4,8(s8)
   1dda8:	00cc2783          	lw	a5,12(s8)
   1ddac:	008c0993          	addi	s3,s8,8
   1ddb0:	017c0a33          	add	s4,s8,s7
   1ddb4:	00f72623          	sw	a5,12(a4)
   1ddb8:	00e7a423          	sw	a4,8(a5)
   1ddbc:	2ec6e463          	bltu	a3,a2,1e0a4 <_realloc_r+0x4a8>
   1ddc0:	01300693          	li	a3,19
   1ddc4:	000b2703          	lw	a4,0(s6)
   1ddc8:	00098793          	mv	a5,s3
   1ddcc:	02c6f263          	bgeu	a3,a2,1ddf0 <_realloc_r+0x1f4>
   1ddd0:	00ec2423          	sw	a4,8(s8)
   1ddd4:	004b2703          	lw	a4,4(s6)
   1ddd8:	01b00793          	li	a5,27
   1dddc:	00ec2623          	sw	a4,12(s8)
   1dde0:	008b2703          	lw	a4,8(s6)
   1dde4:	34c7e263          	bltu	a5,a2,1e128 <_realloc_r+0x52c>
   1dde8:	010c0793          	addi	a5,s8,16
   1ddec:	008b0b13          	addi	s6,s6,8
   1ddf0:	00e7a023          	sw	a4,0(a5)
   1ddf4:	004b2703          	lw	a4,4(s6)
   1ddf8:	000b8493          	mv	s1,s7
   1ddfc:	000c0913          	mv	s2,s8
   1de00:	00e7a223          	sw	a4,4(a5)
   1de04:	008b2703          	lw	a4,8(s6)
   1de08:	00098b13          	mv	s6,s3
   1de0c:	00e7a423          	sw	a4,8(a5)
   1de10:	00492603          	lw	a2,4(s2)
   1de14:	408487b3          	sub	a5,s1,s0
   1de18:	00f00713          	li	a4,15
   1de1c:	00167613          	andi	a2,a2,1
   1de20:	06f76c63          	bltu	a4,a5,1de98 <_realloc_r+0x29c>
   1de24:	00c4e633          	or	a2,s1,a2
   1de28:	00c92223          	sw	a2,4(s2)
   1de2c:	004a2783          	lw	a5,4(s4)
   1de30:	0017e793          	ori	a5,a5,1
   1de34:	00fa2223          	sw	a5,4(s4)
   1de38:	000a8513          	mv	a0,s5
   1de3c:	9d9f90ef          	jal	ra,17814 <__malloc_unlock>
   1de40:	000b0993          	mv	s3,s6
   1de44:	f15ff06f          	j	1dd58 <_realloc_r+0x15c>
   1de48:	0017f793          	andi	a5,a5,1
   1de4c:	e80790e3          	bnez	a5,1dccc <_realloc_r+0xd0>
   1de50:	ff8b2c03          	lw	s8,-8(s6)
   1de54:	41890c33          	sub	s8,s2,s8
   1de58:	004c2783          	lw	a5,4(s8)
   1de5c:	ffc7f793          	andi	a5,a5,-4
   1de60:	e65ff06f          	j	1dcc4 <_realloc_r+0xc8>
   1de64:	02812403          	lw	s0,40(sp)
   1de68:	02c12083          	lw	ra,44(sp)
   1de6c:	02412483          	lw	s1,36(sp)
   1de70:	02012903          	lw	s2,32(sp)
   1de74:	01c12983          	lw	s3,28(sp)
   1de78:	01812a03          	lw	s4,24(sp)
   1de7c:	01412a83          	lw	s5,20(sp)
   1de80:	01012b03          	lw	s6,16(sp)
   1de84:	00c12b83          	lw	s7,12(sp)
   1de88:	00812c03          	lw	s8,8(sp)
   1de8c:	00060593          	mv	a1,a2
   1de90:	03010113          	addi	sp,sp,48
   1de94:	820f906f          	j	16eb4 <_malloc_r>
   1de98:	00866633          	or	a2,a2,s0
   1de9c:	00c92223          	sw	a2,4(s2)
   1dea0:	008905b3          	add	a1,s2,s0
   1dea4:	0017e793          	ori	a5,a5,1
   1dea8:	00f5a223          	sw	a5,4(a1)
   1deac:	004a2783          	lw	a5,4(s4)
   1deb0:	00858593          	addi	a1,a1,8
   1deb4:	000a8513          	mv	a0,s5
   1deb8:	0017e793          	ori	a5,a5,1
   1debc:	00fa2223          	sw	a5,4(s4)
   1dec0:	d4df50ef          	jal	ra,13c0c <_free_r>
   1dec4:	f75ff06f          	j	1de38 <_realloc_r+0x23c>
   1dec8:	ffc6f693          	andi	a3,a3,-4
   1decc:	00d48633          	add	a2,s1,a3
   1ded0:	01040593          	addi	a1,s0,16
   1ded4:	0eb65263          	bge	a2,a1,1dfb8 <_realloc_r+0x3bc>
   1ded8:	0017f793          	andi	a5,a5,1
   1dedc:	de0798e3          	bnez	a5,1dccc <_realloc_r+0xd0>
   1dee0:	ff8b2c03          	lw	s8,-8(s6)
   1dee4:	41890c33          	sub	s8,s2,s8
   1dee8:	004c2783          	lw	a5,4(s8)
   1deec:	ffc7f793          	andi	a5,a5,-4
   1def0:	00d786b3          	add	a3,a5,a3
   1def4:	00968a33          	add	s4,a3,s1
   1def8:	dcba46e3          	blt	s4,a1,1dcc4 <_realloc_r+0xc8>
   1defc:	00cc2783          	lw	a5,12(s8)
   1df00:	008c2703          	lw	a4,8(s8)
   1df04:	ffc48613          	addi	a2,s1,-4
   1df08:	02400693          	li	a3,36
   1df0c:	00f72623          	sw	a5,12(a4)
   1df10:	00e7a423          	sw	a4,8(a5)
   1df14:	008c0993          	addi	s3,s8,8
   1df18:	22c6ea63          	bltu	a3,a2,1e14c <_realloc_r+0x550>
   1df1c:	01300593          	li	a1,19
   1df20:	000b2703          	lw	a4,0(s6)
   1df24:	00098793          	mv	a5,s3
   1df28:	02c5f263          	bgeu	a1,a2,1df4c <_realloc_r+0x350>
   1df2c:	00ec2423          	sw	a4,8(s8)
   1df30:	004b2703          	lw	a4,4(s6)
   1df34:	01b00793          	li	a5,27
   1df38:	00ec2623          	sw	a4,12(s8)
   1df3c:	24c7ee63          	bltu	a5,a2,1e198 <_realloc_r+0x59c>
   1df40:	008b2703          	lw	a4,8(s6)
   1df44:	010c0793          	addi	a5,s8,16
   1df48:	008b0b13          	addi	s6,s6,8
   1df4c:	00e7a023          	sw	a4,0(a5)
   1df50:	004b2703          	lw	a4,4(s6)
   1df54:	00e7a223          	sw	a4,4(a5)
   1df58:	008b2703          	lw	a4,8(s6)
   1df5c:	00e7a423          	sw	a4,8(a5)
   1df60:	008c0733          	add	a4,s8,s0
   1df64:	408a07b3          	sub	a5,s4,s0
   1df68:	00009697          	auipc	a3,0x9
   1df6c:	a0e6a223          	sw	a4,-1532(a3) # 2696c <__malloc_av_+0x8>
   1df70:	0017e793          	ori	a5,a5,1
   1df74:	00f72223          	sw	a5,4(a4)
   1df78:	004c2783          	lw	a5,4(s8)
   1df7c:	000a8513          	mv	a0,s5
   1df80:	0017f793          	andi	a5,a5,1
   1df84:	0087e433          	or	s0,a5,s0
   1df88:	008c2223          	sw	s0,4(s8)
   1df8c:	889f90ef          	jal	ra,17814 <__malloc_unlock>
   1df90:	dc9ff06f          	j	1dd58 <_realloc_r+0x15c>
   1df94:	00d52023          	sw	a3,0(a0)
   1df98:	004b2683          	lw	a3,4(s6)
   1df9c:	01b00713          	li	a4,27
   1dfa0:	00d52223          	sw	a3,4(a0)
   1dfa4:	10c76e63          	bltu	a4,a2,1e0c0 <_realloc_r+0x4c4>
   1dfa8:	008b0713          	addi	a4,s6,8
   1dfac:	00850793          	addi	a5,a0,8
   1dfb0:	008b2683          	lw	a3,8(s6)
   1dfb4:	d61ff06f          	j	1dd14 <_realloc_r+0x118>
   1dfb8:	00890933          	add	s2,s2,s0
   1dfbc:	408607b3          	sub	a5,a2,s0
   1dfc0:	00009717          	auipc	a4,0x9
   1dfc4:	9b272623          	sw	s2,-1620(a4) # 2696c <__malloc_av_+0x8>
   1dfc8:	0017e793          	ori	a5,a5,1
   1dfcc:	00f92223          	sw	a5,4(s2)
   1dfd0:	ffcb2783          	lw	a5,-4(s6)
   1dfd4:	000a8513          	mv	a0,s5
   1dfd8:	000b0993          	mv	s3,s6
   1dfdc:	0017f793          	andi	a5,a5,1
   1dfe0:	0087e433          	or	s0,a5,s0
   1dfe4:	fe8b2e23          	sw	s0,-4(s6)
   1dfe8:	82df90ef          	jal	ra,17814 <__malloc_unlock>
   1dfec:	d6dff06f          	j	1dd58 <_realloc_r+0x15c>
   1dff0:	00ca2783          	lw	a5,12(s4)
   1dff4:	008a2703          	lw	a4,8(s4)
   1dff8:	00060493          	mv	s1,a2
   1dffc:	00c90a33          	add	s4,s2,a2
   1e000:	00f72623          	sw	a5,12(a4)
   1e004:	00e7a423          	sw	a4,8(a5)
   1e008:	e09ff06f          	j	1de10 <_realloc_r+0x214>
   1e00c:	ffc52783          	lw	a5,-4(a0)
   1e010:	ffc7f793          	andi	a5,a5,-4
   1e014:	00f484b3          	add	s1,s1,a5
   1e018:	00990a33          	add	s4,s2,s1
   1e01c:	df5ff06f          	j	1de10 <_realloc_r+0x214>
   1e020:	00cc2703          	lw	a4,12(s8)
   1e024:	008c2683          	lw	a3,8(s8)
   1e028:	ffc48613          	addi	a2,s1,-4
   1e02c:	02400593          	li	a1,36
   1e030:	00e6a623          	sw	a4,12(a3)
   1e034:	00d72423          	sw	a3,8(a4)
   1e038:	008c0993          	addi	s3,s8,8
   1e03c:	017c0a33          	add	s4,s8,s7
   1e040:	06c5e263          	bltu	a1,a2,1e0a4 <_realloc_r+0x4a8>
   1e044:	01300513          	li	a0,19
   1e048:	000b2683          	lw	a3,0(s6)
   1e04c:	00098713          	mv	a4,s3
   1e050:	02c57263          	bgeu	a0,a2,1e074 <_realloc_r+0x478>
   1e054:	00dc2423          	sw	a3,8(s8)
   1e058:	004b2703          	lw	a4,4(s6)
   1e05c:	01b00793          	li	a5,27
   1e060:	00ec2623          	sw	a4,12(s8)
   1e064:	0ac7e063          	bltu	a5,a2,1e104 <_realloc_r+0x508>
   1e068:	008b2683          	lw	a3,8(s6)
   1e06c:	010c0713          	addi	a4,s8,16
   1e070:	008b0b13          	addi	s6,s6,8
   1e074:	00d72023          	sw	a3,0(a4)
   1e078:	004b2683          	lw	a3,4(s6)
   1e07c:	000b8493          	mv	s1,s7
   1e080:	000c0913          	mv	s2,s8
   1e084:	00d72223          	sw	a3,4(a4)
   1e088:	008b2783          	lw	a5,8(s6)
   1e08c:	00098b13          	mv	s6,s3
   1e090:	00f72423          	sw	a5,8(a4)
   1e094:	d7dff06f          	j	1de10 <_realloc_r+0x214>
   1e098:	000b0593          	mv	a1,s6
   1e09c:	9e1ff0ef          	jal	ra,1da7c <memmove>
   1e0a0:	c89ff06f          	j	1dd28 <_realloc_r+0x12c>
   1e0a4:	000b0593          	mv	a1,s6
   1e0a8:	00098513          	mv	a0,s3
   1e0ac:	9d1ff0ef          	jal	ra,1da7c <memmove>
   1e0b0:	00098b13          	mv	s6,s3
   1e0b4:	000b8493          	mv	s1,s7
   1e0b8:	000c0913          	mv	s2,s8
   1e0bc:	d55ff06f          	j	1de10 <_realloc_r+0x214>
   1e0c0:	008b2703          	lw	a4,8(s6)
   1e0c4:	00e52423          	sw	a4,8(a0)
   1e0c8:	00cb2703          	lw	a4,12(s6)
   1e0cc:	00e52623          	sw	a4,12(a0)
   1e0d0:	00f60a63          	beq	a2,a5,1e0e4 <_realloc_r+0x4e8>
   1e0d4:	010b0713          	addi	a4,s6,16
   1e0d8:	01050793          	addi	a5,a0,16
   1e0dc:	010b2683          	lw	a3,16(s6)
   1e0e0:	c35ff06f          	j	1dd14 <_realloc_r+0x118>
   1e0e4:	010b2683          	lw	a3,16(s6)
   1e0e8:	018b0713          	addi	a4,s6,24
   1e0ec:	01850793          	addi	a5,a0,24
   1e0f0:	00d52823          	sw	a3,16(a0)
   1e0f4:	014b2683          	lw	a3,20(s6)
   1e0f8:	00d52a23          	sw	a3,20(a0)
   1e0fc:	018b2683          	lw	a3,24(s6)
   1e100:	c15ff06f          	j	1dd14 <_realloc_r+0x118>
   1e104:	008b2783          	lw	a5,8(s6)
   1e108:	00fc2823          	sw	a5,16(s8)
   1e10c:	00cb2783          	lw	a5,12(s6)
   1e110:	00fc2a23          	sw	a5,20(s8)
   1e114:	04b60463          	beq	a2,a1,1e15c <_realloc_r+0x560>
   1e118:	010b2683          	lw	a3,16(s6)
   1e11c:	018c0713          	addi	a4,s8,24
   1e120:	010b0b13          	addi	s6,s6,16
   1e124:	f51ff06f          	j	1e074 <_realloc_r+0x478>
   1e128:	00ec2823          	sw	a4,16(s8)
   1e12c:	00cb2703          	lw	a4,12(s6)
   1e130:	02400793          	li	a5,36
   1e134:	00ec2a23          	sw	a4,20(s8)
   1e138:	010b2703          	lw	a4,16(s6)
   1e13c:	04f60063          	beq	a2,a5,1e17c <_realloc_r+0x580>
   1e140:	018c0793          	addi	a5,s8,24
   1e144:	010b0b13          	addi	s6,s6,16
   1e148:	ca9ff06f          	j	1ddf0 <_realloc_r+0x1f4>
   1e14c:	000b0593          	mv	a1,s6
   1e150:	00098513          	mv	a0,s3
   1e154:	929ff0ef          	jal	ra,1da7c <memmove>
   1e158:	e09ff06f          	j	1df60 <_realloc_r+0x364>
   1e15c:	010b2783          	lw	a5,16(s6)
   1e160:	020c0713          	addi	a4,s8,32
   1e164:	018b0b13          	addi	s6,s6,24
   1e168:	00fc2c23          	sw	a5,24(s8)
   1e16c:	ffcb2783          	lw	a5,-4(s6)
   1e170:	00fc2e23          	sw	a5,28(s8)
   1e174:	000b2683          	lw	a3,0(s6)
   1e178:	efdff06f          	j	1e074 <_realloc_r+0x478>
   1e17c:	00ec2c23          	sw	a4,24(s8)
   1e180:	014b2703          	lw	a4,20(s6)
   1e184:	020c0793          	addi	a5,s8,32
   1e188:	018b0b13          	addi	s6,s6,24
   1e18c:	00ec2e23          	sw	a4,28(s8)
   1e190:	000b2703          	lw	a4,0(s6)
   1e194:	c5dff06f          	j	1ddf0 <_realloc_r+0x1f4>
   1e198:	008b2783          	lw	a5,8(s6)
   1e19c:	00fc2823          	sw	a5,16(s8)
   1e1a0:	00cb2783          	lw	a5,12(s6)
   1e1a4:	00fc2a23          	sw	a5,20(s8)
   1e1a8:	010b2703          	lw	a4,16(s6)
   1e1ac:	00d60863          	beq	a2,a3,1e1bc <_realloc_r+0x5c0>
   1e1b0:	018c0793          	addi	a5,s8,24
   1e1b4:	010b0b13          	addi	s6,s6,16
   1e1b8:	d95ff06f          	j	1df4c <_realloc_r+0x350>
   1e1bc:	00ec2c23          	sw	a4,24(s8)
   1e1c0:	014b2703          	lw	a4,20(s6)
   1e1c4:	020c0793          	addi	a5,s8,32
   1e1c8:	018b0b13          	addi	s6,s6,24
   1e1cc:	00ec2e23          	sw	a4,28(s8)
   1e1d0:	000b2703          	lw	a4,0(s6)
   1e1d4:	d79ff06f          	j	1df4c <_realloc_r+0x350>

0001e1d8 <__ssprint_r>:
   1e1d8:	00862783          	lw	a5,8(a2)
   1e1dc:	fd010113          	addi	sp,sp,-48
   1e1e0:	01512a23          	sw	s5,20(sp)
   1e1e4:	02112623          	sw	ra,44(sp)
   1e1e8:	02812423          	sw	s0,40(sp)
   1e1ec:	02912223          	sw	s1,36(sp)
   1e1f0:	03212023          	sw	s2,32(sp)
   1e1f4:	01312e23          	sw	s3,28(sp)
   1e1f8:	01412c23          	sw	s4,24(sp)
   1e1fc:	01612823          	sw	s6,16(sp)
   1e200:	01712623          	sw	s7,12(sp)
   1e204:	01812423          	sw	s8,8(sp)
   1e208:	00060a93          	mv	s5,a2
   1e20c:	14078863          	beqz	a5,1e35c <__ssprint_r+0x184>
   1e210:	00050b13          	mv	s6,a0
   1e214:	00058413          	mv	s0,a1
   1e218:	00062983          	lw	s3,0(a2)
   1e21c:	0005a503          	lw	a0,0(a1)
   1e220:	0085a483          	lw	s1,8(a1)
   1e224:	0d40006f          	j	1e2f8 <__ssprint_r+0x120>
   1e228:	00c45783          	lhu	a5,12(s0)
   1e22c:	4807f713          	andi	a4,a5,1152
   1e230:	08070a63          	beqz	a4,1e2c4 <__ssprint_r+0xec>
   1e234:	01442683          	lw	a3,20(s0)
   1e238:	01042583          	lw	a1,16(s0)
   1e23c:	00190713          	addi	a4,s2,1
   1e240:	00169493          	slli	s1,a3,0x1
   1e244:	00d486b3          	add	a3,s1,a3
   1e248:	01f6d493          	srli	s1,a3,0x1f
   1e24c:	40b50a33          	sub	s4,a0,a1
   1e250:	00d484b3          	add	s1,s1,a3
   1e254:	4014d493          	srai	s1,s1,0x1
   1e258:	01470733          	add	a4,a4,s4
   1e25c:	00048613          	mv	a2,s1
   1e260:	00e4f663          	bgeu	s1,a4,1e26c <__ssprint_r+0x94>
   1e264:	00070493          	mv	s1,a4
   1e268:	00070613          	mv	a2,a4
   1e26c:	4007f793          	andi	a5,a5,1024
   1e270:	0a078663          	beqz	a5,1e31c <__ssprint_r+0x144>
   1e274:	00060593          	mv	a1,a2
   1e278:	000b0513          	mv	a0,s6
   1e27c:	c39f80ef          	jal	ra,16eb4 <_malloc_r>
   1e280:	00050c13          	mv	s8,a0
   1e284:	0a050a63          	beqz	a0,1e338 <__ssprint_r+0x160>
   1e288:	01042583          	lw	a1,16(s0)
   1e28c:	000a0613          	mv	a2,s4
   1e290:	ed0ff0ef          	jal	ra,1d960 <memcpy>
   1e294:	00c45783          	lhu	a5,12(s0)
   1e298:	b7f7f793          	andi	a5,a5,-1153
   1e29c:	0807e793          	ori	a5,a5,128
   1e2a0:	00f41623          	sh	a5,12(s0)
   1e2a4:	014c0533          	add	a0,s8,s4
   1e2a8:	41448a33          	sub	s4,s1,s4
   1e2ac:	00942a23          	sw	s1,20(s0)
   1e2b0:	01442423          	sw	s4,8(s0)
   1e2b4:	01842823          	sw	s8,16(s0)
   1e2b8:	00a42023          	sw	a0,0(s0)
   1e2bc:	00090493          	mv	s1,s2
   1e2c0:	00090a13          	mv	s4,s2
   1e2c4:	000a0613          	mv	a2,s4
   1e2c8:	000b8593          	mv	a1,s7
   1e2cc:	fb0ff0ef          	jal	ra,1da7c <memmove>
   1e2d0:	00842703          	lw	a4,8(s0)
   1e2d4:	00042503          	lw	a0,0(s0)
   1e2d8:	008aa783          	lw	a5,8(s5)
   1e2dc:	409704b3          	sub	s1,a4,s1
   1e2e0:	01450533          	add	a0,a0,s4
   1e2e4:	00942423          	sw	s1,8(s0)
   1e2e8:	00a42023          	sw	a0,0(s0)
   1e2ec:	41278933          	sub	s2,a5,s2
   1e2f0:	012aa423          	sw	s2,8(s5)
   1e2f4:	06090463          	beqz	s2,1e35c <__ssprint_r+0x184>
   1e2f8:	0049a903          	lw	s2,4(s3)
   1e2fc:	0009ab83          	lw	s7,0(s3)
   1e300:	00048a13          	mv	s4,s1
   1e304:	00898993          	addi	s3,s3,8
   1e308:	fe0908e3          	beqz	s2,1e2f8 <__ssprint_r+0x120>
   1e30c:	f0997ee3          	bgeu	s2,s1,1e228 <__ssprint_r+0x50>
   1e310:	00090493          	mv	s1,s2
   1e314:	00090a13          	mv	s4,s2
   1e318:	fadff06f          	j	1e2c4 <__ssprint_r+0xec>
   1e31c:	000b0513          	mv	a0,s6
   1e320:	8ddff0ef          	jal	ra,1dbfc <_realloc_r>
   1e324:	00050c13          	mv	s8,a0
   1e328:	f6051ee3          	bnez	a0,1e2a4 <__ssprint_r+0xcc>
   1e32c:	01042583          	lw	a1,16(s0)
   1e330:	000b0513          	mv	a0,s6
   1e334:	8d9f50ef          	jal	ra,13c0c <_free_r>
   1e338:	00c00793          	li	a5,12
   1e33c:	00fb2023          	sw	a5,0(s6)
   1e340:	00c45783          	lhu	a5,12(s0)
   1e344:	fff00513          	li	a0,-1
   1e348:	0407e793          	ori	a5,a5,64
   1e34c:	00f41623          	sh	a5,12(s0)
   1e350:	000aa423          	sw	zero,8(s5)
   1e354:	000aa223          	sw	zero,4(s5)
   1e358:	00c0006f          	j	1e364 <__ssprint_r+0x18c>
   1e35c:	000aa223          	sw	zero,4(s5)
   1e360:	00000513          	li	a0,0
   1e364:	02c12083          	lw	ra,44(sp)
   1e368:	02812403          	lw	s0,40(sp)
   1e36c:	02412483          	lw	s1,36(sp)
   1e370:	02012903          	lw	s2,32(sp)
   1e374:	01c12983          	lw	s3,28(sp)
   1e378:	01812a03          	lw	s4,24(sp)
   1e37c:	01412a83          	lw	s5,20(sp)
   1e380:	01012b03          	lw	s6,16(sp)
   1e384:	00c12b83          	lw	s7,12(sp)
   1e388:	00812c03          	lw	s8,8(sp)
   1e38c:	03010113          	addi	sp,sp,48
   1e390:	00008067          	ret

0001e394 <_svfiprintf_r>:
   1e394:	00c5d783          	lhu	a5,12(a1)
   1e398:	ed010113          	addi	sp,sp,-304
   1e39c:	11312e23          	sw	s3,284(sp)
   1e3a0:	11412c23          	sw	s4,280(sp)
   1e3a4:	11812423          	sw	s8,264(sp)
   1e3a8:	12112623          	sw	ra,300(sp)
   1e3ac:	12812423          	sw	s0,296(sp)
   1e3b0:	12912223          	sw	s1,292(sp)
   1e3b4:	13212023          	sw	s2,288(sp)
   1e3b8:	11512a23          	sw	s5,276(sp)
   1e3bc:	11612823          	sw	s6,272(sp)
   1e3c0:	11712623          	sw	s7,268(sp)
   1e3c4:	11912223          	sw	s9,260(sp)
   1e3c8:	11a12023          	sw	s10,256(sp)
   1e3cc:	0fb12e23          	sw	s11,252(sp)
   1e3d0:	0807f793          	andi	a5,a5,128
   1e3d4:	00d12623          	sw	a3,12(sp)
   1e3d8:	00058993          	mv	s3,a1
   1e3dc:	00050a13          	mv	s4,a0
   1e3e0:	00060c13          	mv	s8,a2
   1e3e4:	00078663          	beqz	a5,1e3f0 <_svfiprintf_r+0x5c>
   1e3e8:	0105a783          	lw	a5,16(a1)
   1e3ec:	560786e3          	beqz	a5,1f158 <_svfiprintf_r+0xdc4>
   1e3f0:	ffff87b7          	lui	a5,0xffff8
   1e3f4:	04c10493          	addi	s1,sp,76
   1e3f8:	8307c793          	xori	a5,a5,-2000
   1e3fc:	04912023          	sw	s1,64(sp)
   1e400:	04012423          	sw	zero,72(sp)
   1e404:	04012223          	sw	zero,68(sp)
   1e408:	00012823          	sw	zero,16(sp)
   1e40c:	00012c23          	sw	zero,24(sp)
   1e410:	02012023          	sw	zero,32(sp)
   1e414:	00012e23          	sw	zero,28(sp)
   1e418:	00012423          	sw	zero,8(sp)
   1e41c:	00007a97          	auipc	s5,0x7
   1e420:	bb0a8a93          	addi	s5,s5,-1104 # 24fcc <_ctype_+0x104>
   1e424:	02f12223          	sw	a5,36(sp)
   1e428:	00048413          	mv	s0,s1
   1e42c:	000c0d13          	mv	s10,s8
   1e430:	000d4783          	lbu	a5,0(s10)
   1e434:	12078063          	beqz	a5,1e554 <_svfiprintf_r+0x1c0>
   1e438:	02500693          	li	a3,37
   1e43c:	4ad786e3          	beq	a5,a3,1f0e8 <_svfiprintf_r+0xd54>
   1e440:	000d0913          	mv	s2,s10
   1e444:	00c0006f          	j	1e450 <_svfiprintf_r+0xbc>
   1e448:	0ed78263          	beq	a5,a3,1e52c <_svfiprintf_r+0x198>
   1e44c:	000b0913          	mv	s2,s6
   1e450:	00194783          	lbu	a5,1(s2)
   1e454:	00190b13          	addi	s6,s2,1
   1e458:	fe0798e3          	bnez	a5,1e448 <_svfiprintf_r+0xb4>
   1e45c:	41ab0c33          	sub	s8,s6,s10
   1e460:	0e0c0a63          	beqz	s8,1e554 <_svfiprintf_r+0x1c0>
   1e464:	04812703          	lw	a4,72(sp)
   1e468:	04412783          	lw	a5,68(sp)
   1e46c:	01a42023          	sw	s10,0(s0)
   1e470:	01870733          	add	a4,a4,s8
   1e474:	00178793          	addi	a5,a5,1 # ffff8001 <__global_pointer$+0xfffd0a91>
   1e478:	01842223          	sw	s8,4(s0)
   1e47c:	04e12423          	sw	a4,72(sp)
   1e480:	04f12223          	sw	a5,68(sp)
   1e484:	00700713          	li	a4,7
   1e488:	00840413          	addi	s0,s0,8
   1e48c:	0af74663          	blt	a4,a5,1e538 <_svfiprintf_r+0x1a4>
   1e490:	00812703          	lw	a4,8(sp)
   1e494:	00194783          	lbu	a5,1(s2)
   1e498:	01870733          	add	a4,a4,s8
   1e49c:	00e12423          	sw	a4,8(sp)
   1e4a0:	0a078a63          	beqz	a5,1e554 <_svfiprintf_r+0x1c0>
   1e4a4:	001b0d13          	addi	s10,s6,1
   1e4a8:	001b4683          	lbu	a3,1(s6)
   1e4ac:	02010da3          	sb	zero,59(sp)
   1e4b0:	fff00c13          	li	s8,-1
   1e4b4:	00000913          	li	s2,0
   1e4b8:	00000c93          	li	s9,0
   1e4bc:	02a00b13          	li	s6,42
   1e4c0:	001d0d13          	addi	s10,s10,1
   1e4c4:	05a00713          	li	a4,90
   1e4c8:	fe068793          	addi	a5,a3,-32
   1e4cc:	1af76e63          	bltu	a4,a5,1e688 <_svfiprintf_r+0x2f4>
   1e4d0:	00279793          	slli	a5,a5,0x2
   1e4d4:	015787b3          	add	a5,a5,s5
   1e4d8:	0007a783          	lw	a5,0(a5)
   1e4dc:	015787b3          	add	a5,a5,s5
   1e4e0:	00078067          	jr	a5
   1e4e4:	000a0513          	mv	a0,s4
   1e4e8:	f28f80ef          	jal	ra,16c10 <_localeconv_r>
   1e4ec:	00452783          	lw	a5,4(a0)
   1e4f0:	00078513          	mv	a0,a5
   1e4f4:	00f12e23          	sw	a5,28(sp)
   1e4f8:	945fa0ef          	jal	ra,18e3c <strlen>
   1e4fc:	02a12023          	sw	a0,32(sp)
   1e500:	00050b93          	mv	s7,a0
   1e504:	000a0513          	mv	a0,s4
   1e508:	f08f80ef          	jal	ra,16c10 <_localeconv_r>
   1e50c:	00852783          	lw	a5,8(a0)
   1e510:	00f12c23          	sw	a5,24(sp)
   1e514:	3c0b9ee3          	bnez	s7,1f0f0 <_svfiprintf_r+0xd5c>
   1e518:	000d4683          	lbu	a3,0(s10)
   1e51c:	fa5ff06f          	j	1e4c0 <_svfiprintf_r+0x12c>
   1e520:	020cec93          	ori	s9,s9,32
   1e524:	000d4683          	lbu	a3,0(s10)
   1e528:	f99ff06f          	j	1e4c0 <_svfiprintf_r+0x12c>
   1e52c:	41ab0c33          	sub	s8,s6,s10
   1e530:	f60c0ae3          	beqz	s8,1e4a4 <_svfiprintf_r+0x110>
   1e534:	f31ff06f          	j	1e464 <_svfiprintf_r+0xd0>
   1e538:	04010613          	addi	a2,sp,64
   1e53c:	00098593          	mv	a1,s3
   1e540:	000a0513          	mv	a0,s4
   1e544:	c95ff0ef          	jal	ra,1e1d8 <__ssprint_r>
   1e548:	02051263          	bnez	a0,1e56c <_svfiprintf_r+0x1d8>
   1e54c:	00048413          	mv	s0,s1
   1e550:	f41ff06f          	j	1e490 <_svfiprintf_r+0xfc>
   1e554:	04812783          	lw	a5,72(sp)
   1e558:	00078a63          	beqz	a5,1e56c <_svfiprintf_r+0x1d8>
   1e55c:	04010613          	addi	a2,sp,64
   1e560:	00098593          	mv	a1,s3
   1e564:	000a0513          	mv	a0,s4
   1e568:	c71ff0ef          	jal	ra,1e1d8 <__ssprint_r>
   1e56c:	00c9d783          	lhu	a5,12(s3)
   1e570:	0407f793          	andi	a5,a5,64
   1e574:	6a0792e3          	bnez	a5,1f418 <_svfiprintf_r+0x1084>
   1e578:	12c12083          	lw	ra,300(sp)
   1e57c:	12812403          	lw	s0,296(sp)
   1e580:	00812503          	lw	a0,8(sp)
   1e584:	12412483          	lw	s1,292(sp)
   1e588:	12012903          	lw	s2,288(sp)
   1e58c:	11c12983          	lw	s3,284(sp)
   1e590:	11812a03          	lw	s4,280(sp)
   1e594:	11412a83          	lw	s5,276(sp)
   1e598:	11012b03          	lw	s6,272(sp)
   1e59c:	10c12b83          	lw	s7,268(sp)
   1e5a0:	10812c03          	lw	s8,264(sp)
   1e5a4:	10412c83          	lw	s9,260(sp)
   1e5a8:	10012d03          	lw	s10,256(sp)
   1e5ac:	0fc12d83          	lw	s11,252(sp)
   1e5b0:	13010113          	addi	sp,sp,304
   1e5b4:	00008067          	ret
   1e5b8:	00006797          	auipc	a5,0x6
   1e5bc:	22078793          	addi	a5,a5,544 # 247d8 <zeroes.4505+0x34>
   1e5c0:	00f12823          	sw	a5,16(sp)
   1e5c4:	020cf793          	andi	a5,s9,32
   1e5c8:	4c078663          	beqz	a5,1ea94 <_svfiprintf_r+0x700>
   1e5cc:	00c12783          	lw	a5,12(sp)
   1e5d0:	00778613          	addi	a2,a5,7
   1e5d4:	ff867613          	andi	a2,a2,-8
   1e5d8:	00062d83          	lw	s11,0(a2)
   1e5dc:	00462303          	lw	t1,4(a2)
   1e5e0:	00860793          	addi	a5,a2,8
   1e5e4:	00f12623          	sw	a5,12(sp)
   1e5e8:	001cf613          	andi	a2,s9,1
   1e5ec:	00060663          	beqz	a2,1e5f8 <_svfiprintf_r+0x264>
   1e5f0:	006de633          	or	a2,s11,t1
   1e5f4:	30061ce3          	bnez	a2,1f10c <_svfiprintf_r+0xd78>
   1e5f8:	bffcfb13          	andi	s6,s9,-1025
   1e5fc:	00200693          	li	a3,2
   1e600:	02010da3          	sb	zero,59(sp)
   1e604:	fff00613          	li	a2,-1
   1e608:	5ecc0c63          	beq	s8,a2,1ec00 <_svfiprintf_r+0x86c>
   1e60c:	006de633          	or	a2,s11,t1
   1e610:	f7fb7c93          	andi	s9,s6,-129
   1e614:	100616e3          	bnez	a2,1ef20 <_svfiprintf_r+0xb8c>
   1e618:	6c0c1a63          	bnez	s8,1ecec <_svfiprintf_r+0x958>
   1e61c:	26069ee3          	bnez	a3,1f098 <_svfiprintf_r+0xd04>
   1e620:	001b7d93          	andi	s11,s6,1
   1e624:	0f010b93          	addi	s7,sp,240
   1e628:	000d8863          	beqz	s11,1e638 <_svfiprintf_r+0x2a4>
   1e62c:	03000793          	li	a5,48
   1e630:	0ef107a3          	sb	a5,239(sp)
   1e634:	0ef10b93          	addi	s7,sp,239
   1e638:	000c0b13          	mv	s6,s8
   1e63c:	01bc5463          	bge	s8,s11,1e644 <_svfiprintf_r+0x2b0>
   1e640:	000d8b13          	mv	s6,s11
   1e644:	03b14783          	lbu	a5,59(sp)
   1e648:	00f037b3          	snez	a5,a5
   1e64c:	00fb0b33          	add	s6,s6,a5
   1e650:	0540006f          	j	1e6a4 <_svfiprintf_r+0x310>
   1e654:	00000913          	li	s2,0
   1e658:	fd068613          	addi	a2,a3,-48
   1e65c:	001d0d13          	addi	s10,s10,1
   1e660:	00291793          	slli	a5,s2,0x2
   1e664:	fffd4683          	lbu	a3,-1(s10)
   1e668:	01278933          	add	s2,a5,s2
   1e66c:	00191913          	slli	s2,s2,0x1
   1e670:	01260933          	add	s2,a2,s2
   1e674:	00900793          	li	a5,9
   1e678:	fd068613          	addi	a2,a3,-48
   1e67c:	fec7f0e3          	bgeu	a5,a2,1e65c <_svfiprintf_r+0x2c8>
   1e680:	fe068793          	addi	a5,a3,-32
   1e684:	e4f776e3          	bgeu	a4,a5,1e4d0 <_svfiprintf_r+0x13c>
   1e688:	ec0686e3          	beqz	a3,1e554 <_svfiprintf_r+0x1c0>
   1e68c:	08d10623          	sb	a3,140(sp)
   1e690:	02010da3          	sb	zero,59(sp)
   1e694:	00100b13          	li	s6,1
   1e698:	00100d93          	li	s11,1
   1e69c:	08c10b93          	addi	s7,sp,140
   1e6a0:	00000c13          	li	s8,0
   1e6a4:	002cff13          	andi	t5,s9,2
   1e6a8:	000f0463          	beqz	t5,1e6b0 <_svfiprintf_r+0x31c>
   1e6ac:	002b0b13          	addi	s6,s6,2
   1e6b0:	084cfe93          	andi	t4,s9,132
   1e6b4:	04812783          	lw	a5,72(sp)
   1e6b8:	04412603          	lw	a2,68(sp)
   1e6bc:	000e9663          	bnez	t4,1e6c8 <_svfiprintf_r+0x334>
   1e6c0:	416906b3          	sub	a3,s2,s6
   1e6c4:	06d042e3          	bgtz	a3,1ef28 <_svfiprintf_r+0xb94>
   1e6c8:	03b14503          	lbu	a0,59(sp)
   1e6cc:	00160593          	addi	a1,a2,1
   1e6d0:	00840693          	addi	a3,s0,8
   1e6d4:	04050063          	beqz	a0,1e714 <_svfiprintf_r+0x380>
   1e6d8:	03b10513          	addi	a0,sp,59
   1e6dc:	00178793          	addi	a5,a5,1
   1e6e0:	00a42023          	sw	a0,0(s0)
   1e6e4:	00100513          	li	a0,1
   1e6e8:	00a42223          	sw	a0,4(s0)
   1e6ec:	04f12423          	sw	a5,72(sp)
   1e6f0:	04b12223          	sw	a1,68(sp)
   1e6f4:	00700513          	li	a0,7
   1e6f8:	12b546e3          	blt	a0,a1,1f024 <_svfiprintf_r+0xc90>
   1e6fc:	00260313          	addi	t1,a2,2
   1e700:	01040513          	addi	a0,s0,16
   1e704:	00058613          	mv	a2,a1
   1e708:	00068413          	mv	s0,a3
   1e70c:	00030593          	mv	a1,t1
   1e710:	00050693          	mv	a3,a0
   1e714:	020f0c63          	beqz	t5,1e74c <_svfiprintf_r+0x3b8>
   1e718:	03c10613          	addi	a2,sp,60
   1e71c:	00278793          	addi	a5,a5,2
   1e720:	00c42023          	sw	a2,0(s0)
   1e724:	00200613          	li	a2,2
   1e728:	00c42223          	sw	a2,4(s0)
   1e72c:	04f12423          	sw	a5,72(sp)
   1e730:	04b12223          	sw	a1,68(sp)
   1e734:	00700613          	li	a2,7
   1e738:	12b644e3          	blt	a2,a1,1f060 <_svfiprintf_r+0xccc>
   1e73c:	00058613          	mv	a2,a1
   1e740:	00068413          	mv	s0,a3
   1e744:	00158593          	addi	a1,a1,1
   1e748:	00868693          	addi	a3,a3,8
   1e74c:	08000513          	li	a0,128
   1e750:	5eae8a63          	beq	t4,a0,1ed44 <_svfiprintf_r+0x9b0>
   1e754:	41bc0c33          	sub	s8,s8,s11
   1e758:	6d804063          	bgtz	s8,1ee18 <_svfiprintf_r+0xa84>
   1e75c:	00fd87b3          	add	a5,s11,a5
   1e760:	01742023          	sw	s7,0(s0)
   1e764:	01b42223          	sw	s11,4(s0)
   1e768:	04f12423          	sw	a5,72(sp)
   1e76c:	04b12223          	sw	a1,68(sp)
   1e770:	00700613          	li	a2,7
   1e774:	76b64a63          	blt	a2,a1,1eee8 <_svfiprintf_r+0xb54>
   1e778:	004cf813          	andi	a6,s9,4
   1e77c:	00080663          	beqz	a6,1e788 <_svfiprintf_r+0x3f4>
   1e780:	41690433          	sub	s0,s2,s6
   1e784:	1e804263          	bgtz	s0,1e968 <_svfiprintf_r+0x5d4>
   1e788:	01695463          	bge	s2,s6,1e790 <_svfiprintf_r+0x3fc>
   1e78c:	000b0913          	mv	s2,s6
   1e790:	00812703          	lw	a4,8(sp)
   1e794:	01270733          	add	a4,a4,s2
   1e798:	00e12423          	sw	a4,8(sp)
   1e79c:	76079663          	bnez	a5,1ef08 <_svfiprintf_r+0xb74>
   1e7a0:	04012223          	sw	zero,68(sp)
   1e7a4:	00048413          	mv	s0,s1
   1e7a8:	c89ff06f          	j	1e430 <_svfiprintf_r+0x9c>
   1e7ac:	00c12783          	lw	a5,12(sp)
   1e7b0:	02010da3          	sb	zero,59(sp)
   1e7b4:	0007ab83          	lw	s7,0(a5)
   1e7b8:	00478713          	addi	a4,a5,4
   1e7bc:	2e0b82e3          	beqz	s7,1f2a0 <_svfiprintf_r+0xf0c>
   1e7c0:	fff00793          	li	a5,-1
   1e7c4:	00e12623          	sw	a4,12(sp)
   1e7c8:	16fc0ee3          	beq	s8,a5,1f144 <_svfiprintf_r+0xdb0>
   1e7cc:	000c0613          	mv	a2,s8
   1e7d0:	00000593          	li	a1,0
   1e7d4:	000b8513          	mv	a0,s7
   1e7d8:	f5df80ef          	jal	ra,17734 <memchr>
   1e7dc:	00c12703          	lw	a4,12(sp)
   1e7e0:	40050ae3          	beqz	a0,1f3f4 <_svfiprintf_r+0x1060>
   1e7e4:	41750db3          	sub	s11,a0,s7
   1e7e8:	00000c13          	li	s8,0
   1e7ec:	e4dff06f          	j	1e638 <_svfiprintf_r+0x2a4>
   1e7f0:	020cf793          	andi	a5,s9,32
   1e7f4:	010ce813          	ori	a6,s9,16
   1e7f8:	46079e63          	bnez	a5,1ec74 <_svfiprintf_r+0x8e0>
   1e7fc:	00c12783          	lw	a5,12(sp)
   1e800:	00478693          	addi	a3,a5,4
   1e804:	00c12783          	lw	a5,12(sp)
   1e808:	00000313          	li	t1,0
   1e80c:	00d12623          	sw	a3,12(sp)
   1e810:	0007ad83          	lw	s11,0(a5)
   1e814:	47c0006f          	j	1ec90 <_svfiprintf_r+0x8fc>
   1e818:	020cf793          	andi	a5,s9,32
   1e81c:	010ceb13          	ori	s6,s9,16
   1e820:	48079063          	bnez	a5,1eca0 <_svfiprintf_r+0x90c>
   1e824:	00c12783          	lw	a5,12(sp)
   1e828:	00478693          	addi	a3,a5,4
   1e82c:	00c12783          	lw	a5,12(sp)
   1e830:	00000313          	li	t1,0
   1e834:	00d12623          	sw	a3,12(sp)
   1e838:	0007ad83          	lw	s11,0(a5)
   1e83c:	00100693          	li	a3,1
   1e840:	dc1ff06f          	j	1e600 <_svfiprintf_r+0x26c>
   1e844:	080cec93          	ori	s9,s9,128
   1e848:	000d4683          	lbu	a3,0(s10)
   1e84c:	c75ff06f          	j	1e4c0 <_svfiprintf_r+0x12c>
   1e850:	000d4683          	lbu	a3,0(s10)
   1e854:	001d0793          	addi	a5,s10,1
   1e858:	3d6686e3          	beq	a3,s6,1f424 <_svfiprintf_r+0x1090>
   1e85c:	00078d13          	mv	s10,a5
   1e860:	fd068613          	addi	a2,a3,-48
   1e864:	00900793          	li	a5,9
   1e868:	00000c13          	li	s8,0
   1e86c:	c4c7eee3          	bltu	a5,a2,1e4c8 <_svfiprintf_r+0x134>
   1e870:	001d0d13          	addi	s10,s10,1
   1e874:	002c1793          	slli	a5,s8,0x2
   1e878:	fffd4683          	lbu	a3,-1(s10)
   1e87c:	01878c33          	add	s8,a5,s8
   1e880:	001c1c13          	slli	s8,s8,0x1
   1e884:	00cc0c33          	add	s8,s8,a2
   1e888:	00900793          	li	a5,9
   1e88c:	fd068613          	addi	a2,a3,-48
   1e890:	fec7f0e3          	bgeu	a5,a2,1e870 <_svfiprintf_r+0x4dc>
   1e894:	c35ff06f          	j	1e4c8 <_svfiprintf_r+0x134>
   1e898:	000d4683          	lbu	a3,0(s10)
   1e89c:	004cec93          	ori	s9,s9,4
   1e8a0:	c21ff06f          	j	1e4c0 <_svfiprintf_r+0x12c>
   1e8a4:	02b00793          	li	a5,43
   1e8a8:	02f10da3          	sb	a5,59(sp)
   1e8ac:	000d4683          	lbu	a3,0(s10)
   1e8b0:	c11ff06f          	j	1e4c0 <_svfiprintf_r+0x12c>
   1e8b4:	00c12783          	lw	a5,12(sp)
   1e8b8:	000d4683          	lbu	a3,0(s10)
   1e8bc:	0007a903          	lw	s2,0(a5)
   1e8c0:	00478793          	addi	a5,a5,4
   1e8c4:	00f12623          	sw	a5,12(sp)
   1e8c8:	be095ce3          	bgez	s2,1e4c0 <_svfiprintf_r+0x12c>
   1e8cc:	41200933          	neg	s2,s2
   1e8d0:	004cec93          	ori	s9,s9,4
   1e8d4:	bedff06f          	j	1e4c0 <_svfiprintf_r+0x12c>
   1e8d8:	020cf793          	andi	a5,s9,32
   1e8dc:	010ceb13          	ori	s6,s9,16
   1e8e0:	3e079463          	bnez	a5,1ecc8 <_svfiprintf_r+0x934>
   1e8e4:	00c12783          	lw	a5,12(sp)
   1e8e8:	00478693          	addi	a3,a5,4
   1e8ec:	00c12783          	lw	a5,12(sp)
   1e8f0:	00d12623          	sw	a3,12(sp)
   1e8f4:	0007ad83          	lw	s11,0(a5)
   1e8f8:	41fdd313          	srai	t1,s11,0x1f
   1e8fc:	00030693          	mv	a3,t1
   1e900:	2c06cc63          	bltz	a3,1ebd8 <_svfiprintf_r+0x844>
   1e904:	fff00693          	li	a3,-1
   1e908:	00dc0a63          	beq	s8,a3,1e91c <_svfiprintf_r+0x588>
   1e90c:	006de6b3          	or	a3,s11,t1
   1e910:	f7fb7c93          	andi	s9,s6,-129
   1e914:	78068063          	beqz	a3,1f094 <_svfiprintf_r+0xd00>
   1e918:	000c8b13          	mv	s6,s9
   1e91c:	04031ee3          	bnez	t1,1f178 <_svfiprintf_r+0xde4>
   1e920:	00900793          	li	a5,9
   1e924:	05b7eae3          	bltu	a5,s11,1f178 <_svfiprintf_r+0xde4>
   1e928:	030d8793          	addi	a5,s11,48
   1e92c:	0ef107a3          	sb	a5,239(sp)
   1e930:	000b0c93          	mv	s9,s6
   1e934:	00100d93          	li	s11,1
   1e938:	0ef10b93          	addi	s7,sp,239
   1e93c:	cfdff06f          	j	1e638 <_svfiprintf_r+0x2a4>
   1e940:	00c12703          	lw	a4,12(sp)
   1e944:	02010da3          	sb	zero,59(sp)
   1e948:	00100b13          	li	s6,1
   1e94c:	00072783          	lw	a5,0(a4)
   1e950:	00470713          	addi	a4,a4,4
   1e954:	00e12623          	sw	a4,12(sp)
   1e958:	08f10623          	sb	a5,140(sp)
   1e95c:	00100d93          	li	s11,1
   1e960:	08c10b93          	addi	s7,sp,140
   1e964:	d3dff06f          	j	1e6a0 <_svfiprintf_r+0x30c>
   1e968:	00006317          	auipc	t1,0x6
   1e96c:	7d030313          	addi	t1,t1,2000 # 25138 <blanks.4466>
   1e970:	01000593          	li	a1,16
   1e974:	04412603          	lw	a2,68(sp)
   1e978:	01000c13          	li	s8,16
   1e97c:	00700d93          	li	s11,7
   1e980:	00030b93          	mv	s7,t1
   1e984:	0085c863          	blt	a1,s0,1e994 <_svfiprintf_r+0x600>
   1e988:	0580006f          	j	1e9e0 <_svfiprintf_r+0x64c>
   1e98c:	ff040413          	addi	s0,s0,-16
   1e990:	048c5663          	bge	s8,s0,1e9dc <_svfiprintf_r+0x648>
   1e994:	01078793          	addi	a5,a5,16
   1e998:	00160613          	addi	a2,a2,1
   1e99c:	0176a023          	sw	s7,0(a3)
   1e9a0:	0186a223          	sw	s8,4(a3)
   1e9a4:	04f12423          	sw	a5,72(sp)
   1e9a8:	04c12223          	sw	a2,68(sp)
   1e9ac:	00868693          	addi	a3,a3,8
   1e9b0:	fccddee3          	bge	s11,a2,1e98c <_svfiprintf_r+0x5f8>
   1e9b4:	04010613          	addi	a2,sp,64
   1e9b8:	00098593          	mv	a1,s3
   1e9bc:	000a0513          	mv	a0,s4
   1e9c0:	819ff0ef          	jal	ra,1e1d8 <__ssprint_r>
   1e9c4:	ba0514e3          	bnez	a0,1e56c <_svfiprintf_r+0x1d8>
   1e9c8:	ff040413          	addi	s0,s0,-16
   1e9cc:	04812783          	lw	a5,72(sp)
   1e9d0:	04412603          	lw	a2,68(sp)
   1e9d4:	00048693          	mv	a3,s1
   1e9d8:	fa8c4ee3          	blt	s8,s0,1e994 <_svfiprintf_r+0x600>
   1e9dc:	000b8313          	mv	t1,s7
   1e9e0:	008787b3          	add	a5,a5,s0
   1e9e4:	00160613          	addi	a2,a2,1
   1e9e8:	0066a023          	sw	t1,0(a3)
   1e9ec:	0086a223          	sw	s0,4(a3)
   1e9f0:	04f12423          	sw	a5,72(sp)
   1e9f4:	04c12223          	sw	a2,68(sp)
   1e9f8:	00700693          	li	a3,7
   1e9fc:	d8c6d6e3          	bge	a3,a2,1e788 <_svfiprintf_r+0x3f4>
   1ea00:	04010613          	addi	a2,sp,64
   1ea04:	00098593          	mv	a1,s3
   1ea08:	000a0513          	mv	a0,s4
   1ea0c:	fccff0ef          	jal	ra,1e1d8 <__ssprint_r>
   1ea10:	b4051ee3          	bnez	a0,1e56c <_svfiprintf_r+0x1d8>
   1ea14:	04812783          	lw	a5,72(sp)
   1ea18:	d71ff06f          	j	1e788 <_svfiprintf_r+0x3f4>
   1ea1c:	001cec93          	ori	s9,s9,1
   1ea20:	000d4683          	lbu	a3,0(s10)
   1ea24:	a9dff06f          	j	1e4c0 <_svfiprintf_r+0x12c>
   1ea28:	03b14783          	lbu	a5,59(sp)
   1ea2c:	000d4683          	lbu	a3,0(s10)
   1ea30:	a80798e3          	bnez	a5,1e4c0 <_svfiprintf_r+0x12c>
   1ea34:	02000793          	li	a5,32
   1ea38:	02f10da3          	sb	a5,59(sp)
   1ea3c:	a85ff06f          	j	1e4c0 <_svfiprintf_r+0x12c>
   1ea40:	020cf793          	andi	a5,s9,32
   1ea44:	24079c63          	bnez	a5,1ec9c <_svfiprintf_r+0x908>
   1ea48:	00c12783          	lw	a5,12(sp)
   1ea4c:	010cf613          	andi	a2,s9,16
   1ea50:	00478693          	addi	a3,a5,4
   1ea54:	0007a783          	lw	a5,0(a5)
   1ea58:	20061ae3          	bnez	a2,1f46c <_svfiprintf_r+0x10d8>
   1ea5c:	040cf613          	andi	a2,s9,64
   1ea60:	060602e3          	beqz	a2,1f2c4 <_svfiprintf_r+0xf30>
   1ea64:	01079d93          	slli	s11,a5,0x10
   1ea68:	00d12623          	sw	a3,12(sp)
   1ea6c:	010ddd93          	srli	s11,s11,0x10
   1ea70:	00000313          	li	t1,0
   1ea74:	000c8b13          	mv	s6,s9
   1ea78:	00100693          	li	a3,1
   1ea7c:	b85ff06f          	j	1e600 <_svfiprintf_r+0x26c>
   1ea80:	00006797          	auipc	a5,0x6
   1ea84:	d4478793          	addi	a5,a5,-700 # 247c4 <zeroes.4505+0x20>
   1ea88:	00f12823          	sw	a5,16(sp)
   1ea8c:	020cf793          	andi	a5,s9,32
   1ea90:	b2079ee3          	bnez	a5,1e5cc <_svfiprintf_r+0x238>
   1ea94:	00c12703          	lw	a4,12(sp)
   1ea98:	010cf613          	andi	a2,s9,16
   1ea9c:	00072783          	lw	a5,0(a4)
   1eaa0:	00470713          	addi	a4,a4,4
   1eaa4:	00e12623          	sw	a4,12(sp)
   1eaa8:	60061463          	bnez	a2,1f0b0 <_svfiprintf_r+0xd1c>
   1eaac:	040cf613          	andi	a2,s9,64
   1eab0:	5e060c63          	beqz	a2,1f0a8 <_svfiprintf_r+0xd14>
   1eab4:	01079d93          	slli	s11,a5,0x10
   1eab8:	010ddd93          	srli	s11,s11,0x10
   1eabc:	00000313          	li	t1,0
   1eac0:	b29ff06f          	j	1e5e8 <_svfiprintf_r+0x254>
   1eac4:	00c12783          	lw	a5,12(sp)
   1eac8:	02412703          	lw	a4,36(sp)
   1eacc:	00000313          	li	t1,0
   1ead0:	0007ad83          	lw	s11,0(a5)
   1ead4:	00478793          	addi	a5,a5,4
   1ead8:	00f12623          	sw	a5,12(sp)
   1eadc:	00006797          	auipc	a5,0x6
   1eae0:	ce878793          	addi	a5,a5,-792 # 247c4 <zeroes.4505+0x20>
   1eae4:	002ceb13          	ori	s6,s9,2
   1eae8:	02e11e23          	sh	a4,60(sp)
   1eaec:	00f12823          	sw	a5,16(sp)
   1eaf0:	00200693          	li	a3,2
   1eaf4:	b0dff06f          	j	1e600 <_svfiprintf_r+0x26c>
   1eaf8:	020cf793          	andi	a5,s9,32
   1eafc:	16079a63          	bnez	a5,1ec70 <_svfiprintf_r+0x8dc>
   1eb00:	00c12783          	lw	a5,12(sp)
   1eb04:	010cf613          	andi	a2,s9,16
   1eb08:	00478693          	addi	a3,a5,4
   1eb0c:	0007a783          	lw	a5,0(a5)
   1eb10:	14061ae3          	bnez	a2,1f464 <_svfiprintf_r+0x10d0>
   1eb14:	040cf613          	andi	a2,s9,64
   1eb18:	7e060863          	beqz	a2,1f308 <_svfiprintf_r+0xf74>
   1eb1c:	01079d93          	slli	s11,a5,0x10
   1eb20:	010ddd93          	srli	s11,s11,0x10
   1eb24:	00000313          	li	t1,0
   1eb28:	000c8813          	mv	a6,s9
   1eb2c:	00d12623          	sw	a3,12(sp)
   1eb30:	1600006f          	j	1ec90 <_svfiprintf_r+0x8fc>
   1eb34:	00c12703          	lw	a4,12(sp)
   1eb38:	020cf793          	andi	a5,s9,32
   1eb3c:	00470693          	addi	a3,a4,4
   1eb40:	5e079463          	bnez	a5,1f128 <_svfiprintf_r+0xd94>
   1eb44:	010cf793          	andi	a5,s9,16
   1eb48:	74079063          	bnez	a5,1f288 <_svfiprintf_r+0xef4>
   1eb4c:	040cf793          	andi	a5,s9,64
   1eb50:	080792e3          	bnez	a5,1f3d4 <_svfiprintf_r+0x1040>
   1eb54:	200cf813          	andi	a6,s9,512
   1eb58:	72080863          	beqz	a6,1f288 <_svfiprintf_r+0xef4>
   1eb5c:	00c12783          	lw	a5,12(sp)
   1eb60:	00812703          	lw	a4,8(sp)
   1eb64:	00d12623          	sw	a3,12(sp)
   1eb68:	0007a783          	lw	a5,0(a5)
   1eb6c:	00e78023          	sb	a4,0(a5)
   1eb70:	8c1ff06f          	j	1e430 <_svfiprintf_r+0x9c>
   1eb74:	000d4683          	lbu	a3,0(s10)
   1eb78:	06c00793          	li	a5,108
   1eb7c:	6cf68863          	beq	a3,a5,1f24c <_svfiprintf_r+0xeb8>
   1eb80:	010cec93          	ori	s9,s9,16
   1eb84:	93dff06f          	j	1e4c0 <_svfiprintf_r+0x12c>
   1eb88:	000d4683          	lbu	a3,0(s10)
   1eb8c:	06800793          	li	a5,104
   1eb90:	6af68663          	beq	a3,a5,1f23c <_svfiprintf_r+0xea8>
   1eb94:	040cec93          	ori	s9,s9,64
   1eb98:	929ff06f          	j	1e4c0 <_svfiprintf_r+0x12c>
   1eb9c:	020cf793          	andi	a5,s9,32
   1eba0:	12079263          	bnez	a5,1ecc4 <_svfiprintf_r+0x930>
   1eba4:	00c12703          	lw	a4,12(sp)
   1eba8:	010cf793          	andi	a5,s9,16
   1ebac:	00470693          	addi	a3,a4,4
   1ebb0:	0a0796e3          	bnez	a5,1f45c <_svfiprintf_r+0x10c8>
   1ebb4:	040cf793          	andi	a5,s9,64
   1ebb8:	72078663          	beqz	a5,1f2e4 <_svfiprintf_r+0xf50>
   1ebbc:	00c12783          	lw	a5,12(sp)
   1ebc0:	00d12623          	sw	a3,12(sp)
   1ebc4:	000c8b13          	mv	s6,s9
   1ebc8:	00079d83          	lh	s11,0(a5)
   1ebcc:	41fdd313          	srai	t1,s11,0x1f
   1ebd0:	00030693          	mv	a3,t1
   1ebd4:	d206d8e3          	bgez	a3,1e904 <_svfiprintf_r+0x570>
   1ebd8:	41b007b3          	neg	a5,s11
   1ebdc:	00f036b3          	snez	a3,a5
   1ebe0:	40600333          	neg	t1,t1
   1ebe4:	40d30333          	sub	t1,t1,a3
   1ebe8:	02d00693          	li	a3,45
   1ebec:	02d10da3          	sb	a3,59(sp)
   1ebf0:	fff00613          	li	a2,-1
   1ebf4:	00078d93          	mv	s11,a5
   1ebf8:	00100693          	li	a3,1
   1ebfc:	a0cc18e3          	bne	s8,a2,1e60c <_svfiprintf_r+0x278>
   1ec00:	00100613          	li	a2,1
   1ec04:	d0c68ce3          	beq	a3,a2,1e91c <_svfiprintf_r+0x588>
   1ec08:	00200613          	li	a2,2
   1ec0c:	0ec68a63          	beq	a3,a2,1ed00 <_svfiprintf_r+0x96c>
   1ec10:	0f010613          	addi	a2,sp,240
   1ec14:	0080006f          	j	1ec1c <_svfiprintf_r+0x888>
   1ec18:	000b8613          	mv	a2,s7
   1ec1c:	01d31793          	slli	a5,t1,0x1d
   1ec20:	007df693          	andi	a3,s11,7
   1ec24:	003ddd93          	srli	s11,s11,0x3
   1ec28:	03068693          	addi	a3,a3,48
   1ec2c:	01b7edb3          	or	s11,a5,s11
   1ec30:	00335313          	srli	t1,t1,0x3
   1ec34:	fed60fa3          	sb	a3,-1(a2)
   1ec38:	006de7b3          	or	a5,s11,t1
   1ec3c:	fff60b93          	addi	s7,a2,-1
   1ec40:	fc079ce3          	bnez	a5,1ec18 <_svfiprintf_r+0x884>
   1ec44:	001b7793          	andi	a5,s6,1
   1ec48:	0e078663          	beqz	a5,1ed34 <_svfiprintf_r+0x9a0>
   1ec4c:	03000793          	li	a5,48
   1ec50:	0ef68263          	beq	a3,a5,1ed34 <_svfiprintf_r+0x9a0>
   1ec54:	ffe60613          	addi	a2,a2,-2
   1ec58:	fefb8fa3          	sb	a5,-1(s7) # 7fffffff <__global_pointer$+0x7ffd8a8f>
   1ec5c:	0f010793          	addi	a5,sp,240
   1ec60:	40c78db3          	sub	s11,a5,a2
   1ec64:	000b0c93          	mv	s9,s6
   1ec68:	00060b93          	mv	s7,a2
   1ec6c:	9cdff06f          	j	1e638 <_svfiprintf_r+0x2a4>
   1ec70:	000c8813          	mv	a6,s9
   1ec74:	00c12783          	lw	a5,12(sp)
   1ec78:	00778693          	addi	a3,a5,7
   1ec7c:	ff86f693          	andi	a3,a3,-8
   1ec80:	0006ad83          	lw	s11,0(a3)
   1ec84:	0046a303          	lw	t1,4(a3)
   1ec88:	00868793          	addi	a5,a3,8
   1ec8c:	00f12623          	sw	a5,12(sp)
   1ec90:	bff87b13          	andi	s6,a6,-1025
   1ec94:	00000693          	li	a3,0
   1ec98:	969ff06f          	j	1e600 <_svfiprintf_r+0x26c>
   1ec9c:	000c8b13          	mv	s6,s9
   1eca0:	00c12783          	lw	a5,12(sp)
   1eca4:	00778693          	addi	a3,a5,7
   1eca8:	ff86f693          	andi	a3,a3,-8
   1ecac:	00868793          	addi	a5,a3,8
   1ecb0:	0006ad83          	lw	s11,0(a3)
   1ecb4:	0046a303          	lw	t1,4(a3)
   1ecb8:	00f12623          	sw	a5,12(sp)
   1ecbc:	00100693          	li	a3,1
   1ecc0:	941ff06f          	j	1e600 <_svfiprintf_r+0x26c>
   1ecc4:	000c8b13          	mv	s6,s9
   1ecc8:	00c12783          	lw	a5,12(sp)
   1eccc:	00778793          	addi	a5,a5,7
   1ecd0:	ff87f793          	andi	a5,a5,-8
   1ecd4:	0047a683          	lw	a3,4(a5)
   1ecd8:	00878713          	addi	a4,a5,8
   1ecdc:	00e12623          	sw	a4,12(sp)
   1ece0:	0007ad83          	lw	s11,0(a5)
   1ece4:	00068313          	mv	t1,a3
   1ece8:	c19ff06f          	j	1e900 <_svfiprintf_r+0x56c>
   1ecec:	00100613          	li	a2,1
   1ecf0:	6ec68e63          	beq	a3,a2,1f3ec <_svfiprintf_r+0x1058>
   1ecf4:	00200613          	li	a2,2
   1ecf8:	000c8b13          	mv	s6,s9
   1ecfc:	f0c69ae3          	bne	a3,a2,1ec10 <_svfiprintf_r+0x87c>
   1ed00:	01012683          	lw	a3,16(sp)
   1ed04:	0f010b93          	addi	s7,sp,240
   1ed08:	00fdf793          	andi	a5,s11,15
   1ed0c:	00f687b3          	add	a5,a3,a5
   1ed10:	0007c783          	lbu	a5,0(a5)
   1ed14:	01c31713          	slli	a4,t1,0x1c
   1ed18:	004ddd93          	srli	s11,s11,0x4
   1ed1c:	fffb8b93          	addi	s7,s7,-1
   1ed20:	01b76db3          	or	s11,a4,s11
   1ed24:	00435313          	srli	t1,t1,0x4
   1ed28:	00fb8023          	sb	a5,0(s7)
   1ed2c:	006de7b3          	or	a5,s11,t1
   1ed30:	fc079ce3          	bnez	a5,1ed08 <_svfiprintf_r+0x974>
   1ed34:	0f010793          	addi	a5,sp,240
   1ed38:	41778db3          	sub	s11,a5,s7
   1ed3c:	000b0c93          	mv	s9,s6
   1ed40:	8f9ff06f          	j	1e638 <_svfiprintf_r+0x2a4>
   1ed44:	41690e33          	sub	t3,s2,s6
   1ed48:	a1c056e3          	blez	t3,1e754 <_svfiprintf_r+0x3c0>
   1ed4c:	01000513          	li	a0,16
   1ed50:	6bc55a63          	bge	a0,t3,1f404 <_svfiprintf_r+0x1070>
   1ed54:	00006317          	auipc	t1,0x6
   1ed58:	3f430313          	addi	t1,t1,1012 # 25148 <zeroes.4467>
   1ed5c:	01212a23          	sw	s2,20(sp)
   1ed60:	03612423          	sw	s6,40(sp)
   1ed64:	01000693          	li	a3,16
   1ed68:	00700e93          	li	t4,7
   1ed6c:	000e0913          	mv	s2,t3
   1ed70:	00030b13          	mv	s6,t1
   1ed74:	00c0006f          	j	1ed80 <_svfiprintf_r+0x9ec>
   1ed78:	ff090913          	addi	s2,s2,-16
   1ed7c:	0526da63          	bge	a3,s2,1edd0 <_svfiprintf_r+0xa3c>
   1ed80:	01078793          	addi	a5,a5,16
   1ed84:	00160613          	addi	a2,a2,1
   1ed88:	01642023          	sw	s6,0(s0)
   1ed8c:	00d42223          	sw	a3,4(s0)
   1ed90:	04f12423          	sw	a5,72(sp)
   1ed94:	04c12223          	sw	a2,68(sp)
   1ed98:	00840413          	addi	s0,s0,8
   1ed9c:	fccedee3          	bge	t4,a2,1ed78 <_svfiprintf_r+0x9e4>
   1eda0:	04010613          	addi	a2,sp,64
   1eda4:	00098593          	mv	a1,s3
   1eda8:	000a0513          	mv	a0,s4
   1edac:	c2cff0ef          	jal	ra,1e1d8 <__ssprint_r>
   1edb0:	fa051e63          	bnez	a0,1e56c <_svfiprintf_r+0x1d8>
   1edb4:	01000693          	li	a3,16
   1edb8:	ff090913          	addi	s2,s2,-16
   1edbc:	04812783          	lw	a5,72(sp)
   1edc0:	04412603          	lw	a2,68(sp)
   1edc4:	00048413          	mv	s0,s1
   1edc8:	00700e93          	li	t4,7
   1edcc:	fb26cae3          	blt	a3,s2,1ed80 <_svfiprintf_r+0x9ec>
   1edd0:	00090e13          	mv	t3,s2
   1edd4:	000b0313          	mv	t1,s6
   1edd8:	01412903          	lw	s2,20(sp)
   1eddc:	02812b03          	lw	s6,40(sp)
   1ede0:	00160613          	addi	a2,a2,1
   1ede4:	00840513          	addi	a0,s0,8
   1ede8:	01c787b3          	add	a5,a5,t3
   1edec:	00642023          	sw	t1,0(s0)
   1edf0:	01c42223          	sw	t3,4(s0)
   1edf4:	04f12423          	sw	a5,72(sp)
   1edf8:	04c12223          	sw	a2,68(sp)
   1edfc:	00700693          	li	a3,7
   1ee00:	44c6ce63          	blt	a3,a2,1f25c <_svfiprintf_r+0xec8>
   1ee04:	41bc0c33          	sub	s8,s8,s11
   1ee08:	00160593          	addi	a1,a2,1
   1ee0c:	00850693          	addi	a3,a0,8
   1ee10:	00050413          	mv	s0,a0
   1ee14:	958054e3          	blez	s8,1e75c <_svfiprintf_r+0x3c8>
   1ee18:	01000513          	li	a0,16
   1ee1c:	51855463          	bge	a0,s8,1f324 <_svfiprintf_r+0xf90>
   1ee20:	00006317          	auipc	t1,0x6
   1ee24:	32830313          	addi	t1,t1,808 # 25148 <zeroes.4467>
   1ee28:	01212a23          	sw	s2,20(sp)
   1ee2c:	01000693          	li	a3,16
   1ee30:	00700e13          	li	t3,7
   1ee34:	00030913          	mv	s2,t1
   1ee38:	00c0006f          	j	1ee44 <_svfiprintf_r+0xab0>
   1ee3c:	ff0c0c13          	addi	s8,s8,-16
   1ee40:	0586da63          	bge	a3,s8,1ee94 <_svfiprintf_r+0xb00>
   1ee44:	01078793          	addi	a5,a5,16
   1ee48:	00160613          	addi	a2,a2,1
   1ee4c:	01242023          	sw	s2,0(s0)
   1ee50:	00d42223          	sw	a3,4(s0)
   1ee54:	04f12423          	sw	a5,72(sp)
   1ee58:	04c12223          	sw	a2,68(sp)
   1ee5c:	00840413          	addi	s0,s0,8
   1ee60:	fcce5ee3          	bge	t3,a2,1ee3c <_svfiprintf_r+0xaa8>
   1ee64:	04010613          	addi	a2,sp,64
   1ee68:	00098593          	mv	a1,s3
   1ee6c:	000a0513          	mv	a0,s4
   1ee70:	b68ff0ef          	jal	ra,1e1d8 <__ssprint_r>
   1ee74:	ee051c63          	bnez	a0,1e56c <_svfiprintf_r+0x1d8>
   1ee78:	01000693          	li	a3,16
   1ee7c:	ff0c0c13          	addi	s8,s8,-16
   1ee80:	04812783          	lw	a5,72(sp)
   1ee84:	04412603          	lw	a2,68(sp)
   1ee88:	00048413          	mv	s0,s1
   1ee8c:	00700e13          	li	t3,7
   1ee90:	fb86cae3          	blt	a3,s8,1ee44 <_svfiprintf_r+0xab0>
   1ee94:	00090313          	mv	t1,s2
   1ee98:	01412903          	lw	s2,20(sp)
   1ee9c:	00160593          	addi	a1,a2,1
   1eea0:	00840613          	addi	a2,s0,8
   1eea4:	018787b3          	add	a5,a5,s8
   1eea8:	00642023          	sw	t1,0(s0)
   1eeac:	01842223          	sw	s8,4(s0)
   1eeb0:	04f12423          	sw	a5,72(sp)
   1eeb4:	04b12223          	sw	a1,68(sp)
   1eeb8:	00700693          	li	a3,7
   1eebc:	20b6c063          	blt	a3,a1,1f0bc <_svfiprintf_r+0xd28>
   1eec0:	00060413          	mv	s0,a2
   1eec4:	00158593          	addi	a1,a1,1
   1eec8:	00fd87b3          	add	a5,s11,a5
   1eecc:	00860693          	addi	a3,a2,8
   1eed0:	01742023          	sw	s7,0(s0)
   1eed4:	01b42223          	sw	s11,4(s0)
   1eed8:	04f12423          	sw	a5,72(sp)
   1eedc:	04b12223          	sw	a1,68(sp)
   1eee0:	00700613          	li	a2,7
   1eee4:	88b65ae3          	bge	a2,a1,1e778 <_svfiprintf_r+0x3e4>
   1eee8:	04010613          	addi	a2,sp,64
   1eeec:	00098593          	mv	a1,s3
   1eef0:	000a0513          	mv	a0,s4
   1eef4:	ae4ff0ef          	jal	ra,1e1d8 <__ssprint_r>
   1eef8:	e6051a63          	bnez	a0,1e56c <_svfiprintf_r+0x1d8>
   1eefc:	04812783          	lw	a5,72(sp)
   1ef00:	00048693          	mv	a3,s1
   1ef04:	875ff06f          	j	1e778 <_svfiprintf_r+0x3e4>
   1ef08:	04010613          	addi	a2,sp,64
   1ef0c:	00098593          	mv	a1,s3
   1ef10:	000a0513          	mv	a0,s4
   1ef14:	ac4ff0ef          	jal	ra,1e1d8 <__ssprint_r>
   1ef18:	880504e3          	beqz	a0,1e7a0 <_svfiprintf_r+0x40c>
   1ef1c:	e50ff06f          	j	1e56c <_svfiprintf_r+0x1d8>
   1ef20:	000c8b13          	mv	s6,s9
   1ef24:	cddff06f          	j	1ec00 <_svfiprintf_r+0x86c>
   1ef28:	01000593          	li	a1,16
   1ef2c:	00006317          	auipc	t1,0x6
   1ef30:	20c30313          	addi	t1,t1,524 # 25138 <blanks.4466>
   1ef34:	08d5dc63          	bge	a1,a3,1efcc <_svfiprintf_r+0xc38>
   1ef38:	03212623          	sw	s2,44(sp)
   1ef3c:	00040713          	mv	a4,s0
   1ef40:	01000e13          	li	t3,16
   1ef44:	00700f93          	li	t6,7
   1ef48:	01e12a23          	sw	t5,20(sp)
   1ef4c:	03d12423          	sw	t4,40(sp)
   1ef50:	00068413          	mv	s0,a3
   1ef54:	00030913          	mv	s2,t1
   1ef58:	00c0006f          	j	1ef64 <_svfiprintf_r+0xbd0>
   1ef5c:	ff040413          	addi	s0,s0,-16
   1ef60:	048e5a63          	bge	t3,s0,1efb4 <_svfiprintf_r+0xc20>
   1ef64:	01078793          	addi	a5,a5,16
   1ef68:	00160613          	addi	a2,a2,1
   1ef6c:	01272023          	sw	s2,0(a4)
   1ef70:	01c72223          	sw	t3,4(a4)
   1ef74:	04f12423          	sw	a5,72(sp)
   1ef78:	04c12223          	sw	a2,68(sp)
   1ef7c:	00870713          	addi	a4,a4,8
   1ef80:	fccfdee3          	bge	t6,a2,1ef5c <_svfiprintf_r+0xbc8>
   1ef84:	04010613          	addi	a2,sp,64
   1ef88:	00098593          	mv	a1,s3
   1ef8c:	000a0513          	mv	a0,s4
   1ef90:	a48ff0ef          	jal	ra,1e1d8 <__ssprint_r>
   1ef94:	dc051c63          	bnez	a0,1e56c <_svfiprintf_r+0x1d8>
   1ef98:	01000e13          	li	t3,16
   1ef9c:	ff040413          	addi	s0,s0,-16
   1efa0:	04812783          	lw	a5,72(sp)
   1efa4:	04412603          	lw	a2,68(sp)
   1efa8:	00048713          	mv	a4,s1
   1efac:	00700f93          	li	t6,7
   1efb0:	fa8e4ae3          	blt	t3,s0,1ef64 <_svfiprintf_r+0xbd0>
   1efb4:	00090313          	mv	t1,s2
   1efb8:	01412f03          	lw	t5,20(sp)
   1efbc:	02812e83          	lw	t4,40(sp)
   1efc0:	02c12903          	lw	s2,44(sp)
   1efc4:	00040693          	mv	a3,s0
   1efc8:	00070413          	mv	s0,a4
   1efcc:	00d787b3          	add	a5,a5,a3
   1efd0:	00160613          	addi	a2,a2,1
   1efd4:	00d42223          	sw	a3,4(s0)
   1efd8:	00642023          	sw	t1,0(s0)
   1efdc:	04f12423          	sw	a5,72(sp)
   1efe0:	04c12223          	sw	a2,68(sp)
   1efe4:	00700693          	li	a3,7
   1efe8:	00840413          	addi	s0,s0,8
   1efec:	ecc6de63          	bge	a3,a2,1e6c8 <_svfiprintf_r+0x334>
   1eff0:	04010613          	addi	a2,sp,64
   1eff4:	00098593          	mv	a1,s3
   1eff8:	000a0513          	mv	a0,s4
   1effc:	03d12423          	sw	t4,40(sp)
   1f000:	01e12a23          	sw	t5,20(sp)
   1f004:	9d4ff0ef          	jal	ra,1e1d8 <__ssprint_r>
   1f008:	d6051263          	bnez	a0,1e56c <_svfiprintf_r+0x1d8>
   1f00c:	04812783          	lw	a5,72(sp)
   1f010:	04412603          	lw	a2,68(sp)
   1f014:	00048413          	mv	s0,s1
   1f018:	02812e83          	lw	t4,40(sp)
   1f01c:	01412f03          	lw	t5,20(sp)
   1f020:	ea8ff06f          	j	1e6c8 <_svfiprintf_r+0x334>
   1f024:	04010613          	addi	a2,sp,64
   1f028:	00098593          	mv	a1,s3
   1f02c:	000a0513          	mv	a0,s4
   1f030:	03d12423          	sw	t4,40(sp)
   1f034:	01e12a23          	sw	t5,20(sp)
   1f038:	9a0ff0ef          	jal	ra,1e1d8 <__ssprint_r>
   1f03c:	d2051863          	bnez	a0,1e56c <_svfiprintf_r+0x1d8>
   1f040:	04412603          	lw	a2,68(sp)
   1f044:	04812783          	lw	a5,72(sp)
   1f048:	05410693          	addi	a3,sp,84
   1f04c:	00160593          	addi	a1,a2,1
   1f050:	00048413          	mv	s0,s1
   1f054:	02812e83          	lw	t4,40(sp)
   1f058:	01412f03          	lw	t5,20(sp)
   1f05c:	eb8ff06f          	j	1e714 <_svfiprintf_r+0x380>
   1f060:	04010613          	addi	a2,sp,64
   1f064:	00098593          	mv	a1,s3
   1f068:	000a0513          	mv	a0,s4
   1f06c:	01d12a23          	sw	t4,20(sp)
   1f070:	968ff0ef          	jal	ra,1e1d8 <__ssprint_r>
   1f074:	ce051c63          	bnez	a0,1e56c <_svfiprintf_r+0x1d8>
   1f078:	04412603          	lw	a2,68(sp)
   1f07c:	04812783          	lw	a5,72(sp)
   1f080:	05410693          	addi	a3,sp,84
   1f084:	00160593          	addi	a1,a2,1
   1f088:	00048413          	mv	s0,s1
   1f08c:	01412e83          	lw	t4,20(sp)
   1f090:	ebcff06f          	j	1e74c <_svfiprintf_r+0x3b8>
   1f094:	340c1c63          	bnez	s8,1f3ec <_svfiprintf_r+0x1058>
   1f098:	00000c13          	li	s8,0
   1f09c:	00000d93          	li	s11,0
   1f0a0:	0f010b93          	addi	s7,sp,240
   1f0a4:	d94ff06f          	j	1e638 <_svfiprintf_r+0x2a4>
   1f0a8:	200cf613          	andi	a2,s9,512
   1f0ac:	30061e63          	bnez	a2,1f3c8 <_svfiprintf_r+0x1034>
   1f0b0:	00078d93          	mv	s11,a5
   1f0b4:	00000313          	li	t1,0
   1f0b8:	d30ff06f          	j	1e5e8 <_svfiprintf_r+0x254>
   1f0bc:	04010613          	addi	a2,sp,64
   1f0c0:	00098593          	mv	a1,s3
   1f0c4:	000a0513          	mv	a0,s4
   1f0c8:	910ff0ef          	jal	ra,1e1d8 <__ssprint_r>
   1f0cc:	ca051063          	bnez	a0,1e56c <_svfiprintf_r+0x1d8>
   1f0d0:	04412583          	lw	a1,68(sp)
   1f0d4:	04812783          	lw	a5,72(sp)
   1f0d8:	05410693          	addi	a3,sp,84
   1f0dc:	00158593          	addi	a1,a1,1
   1f0e0:	00048413          	mv	s0,s1
   1f0e4:	e78ff06f          	j	1e75c <_svfiprintf_r+0x3c8>
   1f0e8:	000d0b13          	mv	s6,s10
   1f0ec:	bb8ff06f          	j	1e4a4 <_svfiprintf_r+0x110>
   1f0f0:	01812783          	lw	a5,24(sp)
   1f0f4:	000d4683          	lbu	a3,0(s10)
   1f0f8:	bc078463          	beqz	a5,1e4c0 <_svfiprintf_r+0x12c>
   1f0fc:	0007c783          	lbu	a5,0(a5)
   1f100:	bc078063          	beqz	a5,1e4c0 <_svfiprintf_r+0x12c>
   1f104:	400cec93          	ori	s9,s9,1024
   1f108:	bb8ff06f          	j	1e4c0 <_svfiprintf_r+0x12c>
   1f10c:	03000613          	li	a2,48
   1f110:	002cec93          	ori	s9,s9,2
   1f114:	02d10ea3          	sb	a3,61(sp)
   1f118:	02c10e23          	sb	a2,60(sp)
   1f11c:	bffcfb13          	andi	s6,s9,-1025
   1f120:	00200693          	li	a3,2
   1f124:	cdcff06f          	j	1e600 <_svfiprintf_r+0x26c>
   1f128:	00072783          	lw	a5,0(a4)
   1f12c:	00812703          	lw	a4,8(sp)
   1f130:	00d12623          	sw	a3,12(sp)
   1f134:	41f75613          	srai	a2,a4,0x1f
   1f138:	00e7a023          	sw	a4,0(a5)
   1f13c:	00c7a223          	sw	a2,4(a5)
   1f140:	af0ff06f          	j	1e430 <_svfiprintf_r+0x9c>
   1f144:	000b8513          	mv	a0,s7
   1f148:	cf5f90ef          	jal	ra,18e3c <strlen>
   1f14c:	00050d93          	mv	s11,a0
   1f150:	00000c13          	li	s8,0
   1f154:	ce4ff06f          	j	1e638 <_svfiprintf_r+0x2a4>
   1f158:	04000593          	li	a1,64
   1f15c:	d59f70ef          	jal	ra,16eb4 <_malloc_r>
   1f160:	00a9a023          	sw	a0,0(s3)
   1f164:	00a9a823          	sw	a0,16(s3)
   1f168:	2e050063          	beqz	a0,1f448 <_svfiprintf_r+0x10b4>
   1f16c:	04000793          	li	a5,64
   1f170:	00f9aa23          	sw	a5,20(s3)
   1f174:	a7cff06f          	j	1e3f0 <_svfiprintf_r+0x5c>
   1f178:	0f010b93          	addi	s7,sp,240
   1f17c:	400b7793          	andi	a5,s6,1024
   1f180:	01612a23          	sw	s6,20(sp)
   1f184:	03212423          	sw	s2,40(sp)
   1f188:	02812623          	sw	s0,44(sp)
   1f18c:	000b8913          	mv	s2,s7
   1f190:	00000c93          	li	s9,0
   1f194:	000d0b93          	mv	s7,s10
   1f198:	01812403          	lw	s0,24(sp)
   1f19c:	00098d13          	mv	s10,s3
   1f1a0:	00078b13          	mv	s6,a5
   1f1a4:	00030993          	mv	s3,t1
   1f1a8:	0240006f          	j	1f1cc <_svfiprintf_r+0xe38>
   1f1ac:	00a00613          	li	a2,10
   1f1b0:	00000693          	li	a3,0
   1f1b4:	000d8513          	mv	a0,s11
   1f1b8:	00098593          	mv	a1,s3
   1f1bc:	560000ef          	jal	ra,1f71c <__udivdi3>
   1f1c0:	16098a63          	beqz	s3,1f334 <_svfiprintf_r+0xfa0>
   1f1c4:	00050d93          	mv	s11,a0
   1f1c8:	00058993          	mv	s3,a1
   1f1cc:	00a00613          	li	a2,10
   1f1d0:	00000693          	li	a3,0
   1f1d4:	000d8513          	mv	a0,s11
   1f1d8:	00098593          	mv	a1,s3
   1f1dc:	315000ef          	jal	ra,1fcf0 <__umoddi3>
   1f1e0:	03050513          	addi	a0,a0,48
   1f1e4:	fea90fa3          	sb	a0,-1(s2)
   1f1e8:	001c8c93          	addi	s9,s9,1
   1f1ec:	fff90913          	addi	s2,s2,-1
   1f1f0:	fa0b0ee3          	beqz	s6,1f1ac <_svfiprintf_r+0xe18>
   1f1f4:	00044703          	lbu	a4,0(s0)
   1f1f8:	fb971ae3          	bne	a4,s9,1f1ac <_svfiprintf_r+0xe18>
   1f1fc:	0ff00793          	li	a5,255
   1f200:	fafc86e3          	beq	s9,a5,1f1ac <_svfiprintf_r+0xe18>
   1f204:	12099e63          	bnez	s3,1f340 <_svfiprintf_r+0xfac>
   1f208:	00900793          	li	a5,9
   1f20c:	13b7ea63          	bltu	a5,s11,1f340 <_svfiprintf_r+0xfac>
   1f210:	01412b03          	lw	s6,20(sp)
   1f214:	000d0993          	mv	s3,s10
   1f218:	0f010793          	addi	a5,sp,240
   1f21c:	000b8d13          	mv	s10,s7
   1f220:	00090b93          	mv	s7,s2
   1f224:	00812c23          	sw	s0,24(sp)
   1f228:	02812903          	lw	s2,40(sp)
   1f22c:	02c12403          	lw	s0,44(sp)
   1f230:	41778db3          	sub	s11,a5,s7
   1f234:	000b0c93          	mv	s9,s6
   1f238:	c00ff06f          	j	1e638 <_svfiprintf_r+0x2a4>
   1f23c:	001d4683          	lbu	a3,1(s10)
   1f240:	200cec93          	ori	s9,s9,512
   1f244:	001d0d13          	addi	s10,s10,1
   1f248:	a78ff06f          	j	1e4c0 <_svfiprintf_r+0x12c>
   1f24c:	001d4683          	lbu	a3,1(s10)
   1f250:	020cec93          	ori	s9,s9,32
   1f254:	001d0d13          	addi	s10,s10,1
   1f258:	a68ff06f          	j	1e4c0 <_svfiprintf_r+0x12c>
   1f25c:	04010613          	addi	a2,sp,64
   1f260:	00098593          	mv	a1,s3
   1f264:	000a0513          	mv	a0,s4
   1f268:	f71fe0ef          	jal	ra,1e1d8 <__ssprint_r>
   1f26c:	b0051063          	bnez	a0,1e56c <_svfiprintf_r+0x1d8>
   1f270:	04412603          	lw	a2,68(sp)
   1f274:	04812783          	lw	a5,72(sp)
   1f278:	05410693          	addi	a3,sp,84
   1f27c:	00160593          	addi	a1,a2,1
   1f280:	00048413          	mv	s0,s1
   1f284:	cd0ff06f          	j	1e754 <_svfiprintf_r+0x3c0>
   1f288:	00c12783          	lw	a5,12(sp)
   1f28c:	00812703          	lw	a4,8(sp)
   1f290:	0007a783          	lw	a5,0(a5)
   1f294:	00d12623          	sw	a3,12(sp)
   1f298:	00e7a023          	sw	a4,0(a5)
   1f29c:	994ff06f          	j	1e430 <_svfiprintf_r+0x9c>
   1f2a0:	00600793          	li	a5,6
   1f2a4:	000c0d93          	mv	s11,s8
   1f2a8:	0187f463          	bgeu	a5,s8,1f2b0 <_svfiprintf_r+0xf1c>
   1f2ac:	00600d93          	li	s11,6
   1f2b0:	000d8b13          	mv	s6,s11
   1f2b4:	00e12623          	sw	a4,12(sp)
   1f2b8:	00005b97          	auipc	s7,0x5
   1f2bc:	534b8b93          	addi	s7,s7,1332 # 247ec <zeroes.4505+0x48>
   1f2c0:	be0ff06f          	j	1e6a0 <_svfiprintf_r+0x30c>
   1f2c4:	200cf613          	andi	a2,s9,512
   1f2c8:	0e060463          	beqz	a2,1f3b0 <_svfiprintf_r+0x101c>
   1f2cc:	00d12623          	sw	a3,12(sp)
   1f2d0:	0ff7fd93          	andi	s11,a5,255
   1f2d4:	00000313          	li	t1,0
   1f2d8:	000c8b13          	mv	s6,s9
   1f2dc:	00100693          	li	a3,1
   1f2e0:	b20ff06f          	j	1e600 <_svfiprintf_r+0x26c>
   1f2e4:	200cf793          	andi	a5,s9,512
   1f2e8:	0a078663          	beqz	a5,1f394 <_svfiprintf_r+0x1000>
   1f2ec:	00c12783          	lw	a5,12(sp)
   1f2f0:	000c8b13          	mv	s6,s9
   1f2f4:	00d12623          	sw	a3,12(sp)
   1f2f8:	00078d83          	lb	s11,0(a5)
   1f2fc:	41fdd313          	srai	t1,s11,0x1f
   1f300:	00030693          	mv	a3,t1
   1f304:	dfcff06f          	j	1e900 <_svfiprintf_r+0x56c>
   1f308:	200cf613          	andi	a2,s9,512
   1f30c:	06060a63          	beqz	a2,1f380 <_svfiprintf_r+0xfec>
   1f310:	0ff7fd93          	andi	s11,a5,255
   1f314:	00000313          	li	t1,0
   1f318:	000c8813          	mv	a6,s9
   1f31c:	00d12623          	sw	a3,12(sp)
   1f320:	971ff06f          	j	1ec90 <_svfiprintf_r+0x8fc>
   1f324:	00068613          	mv	a2,a3
   1f328:	00006317          	auipc	t1,0x6
   1f32c:	e2030313          	addi	t1,t1,-480 # 25148 <zeroes.4467>
   1f330:	b75ff06f          	j	1eea4 <_svfiprintf_r+0xb10>
   1f334:	00900793          	li	a5,9
   1f338:	e9b7e6e3          	bltu	a5,s11,1f1c4 <_svfiprintf_r+0xe30>
   1f33c:	ed5ff06f          	j	1f210 <_svfiprintf_r+0xe7c>
   1f340:	02012783          	lw	a5,32(sp)
   1f344:	01c12583          	lw	a1,28(sp)
   1f348:	00000c93          	li	s9,0
   1f34c:	40f90933          	sub	s2,s2,a5
   1f350:	00078613          	mv	a2,a5
   1f354:	00090513          	mv	a0,s2
   1f358:	b71f90ef          	jal	ra,18ec8 <strncpy>
   1f35c:	00144703          	lbu	a4,1(s0)
   1f360:	00a00613          	li	a2,10
   1f364:	00000693          	li	a3,0
   1f368:	00e03733          	snez	a4,a4
   1f36c:	000d8513          	mv	a0,s11
   1f370:	00098593          	mv	a1,s3
   1f374:	00e40433          	add	s0,s0,a4
   1f378:	3a4000ef          	jal	ra,1f71c <__udivdi3>
   1f37c:	e49ff06f          	j	1f1c4 <_svfiprintf_r+0xe30>
   1f380:	00078d93          	mv	s11,a5
   1f384:	00000313          	li	t1,0
   1f388:	000c8813          	mv	a6,s9
   1f38c:	00d12623          	sw	a3,12(sp)
   1f390:	901ff06f          	j	1ec90 <_svfiprintf_r+0x8fc>
   1f394:	00c12783          	lw	a5,12(sp)
   1f398:	000c8b13          	mv	s6,s9
   1f39c:	00d12623          	sw	a3,12(sp)
   1f3a0:	0007ad83          	lw	s11,0(a5)
   1f3a4:	41fdd313          	srai	t1,s11,0x1f
   1f3a8:	00030693          	mv	a3,t1
   1f3ac:	d54ff06f          	j	1e900 <_svfiprintf_r+0x56c>
   1f3b0:	00d12623          	sw	a3,12(sp)
   1f3b4:	00078d93          	mv	s11,a5
   1f3b8:	00000313          	li	t1,0
   1f3bc:	000c8b13          	mv	s6,s9
   1f3c0:	00100693          	li	a3,1
   1f3c4:	a3cff06f          	j	1e600 <_svfiprintf_r+0x26c>
   1f3c8:	0ff7fd93          	andi	s11,a5,255
   1f3cc:	00000313          	li	t1,0
   1f3d0:	a18ff06f          	j	1e5e8 <_svfiprintf_r+0x254>
   1f3d4:	00c12783          	lw	a5,12(sp)
   1f3d8:	00812703          	lw	a4,8(sp)
   1f3dc:	00d12623          	sw	a3,12(sp)
   1f3e0:	0007a783          	lw	a5,0(a5)
   1f3e4:	00e79023          	sh	a4,0(a5)
   1f3e8:	848ff06f          	j	1e430 <_svfiprintf_r+0x9c>
   1f3ec:	000c8b13          	mv	s6,s9
   1f3f0:	d38ff06f          	j	1e928 <_svfiprintf_r+0x594>
   1f3f4:	000c0d93          	mv	s11,s8
   1f3f8:	00e12623          	sw	a4,12(sp)
   1f3fc:	00000c13          	li	s8,0
   1f400:	a38ff06f          	j	1e638 <_svfiprintf_r+0x2a4>
   1f404:	00068513          	mv	a0,a3
   1f408:	00058613          	mv	a2,a1
   1f40c:	00006317          	auipc	t1,0x6
   1f410:	d3c30313          	addi	t1,t1,-708 # 25148 <zeroes.4467>
   1f414:	9d5ff06f          	j	1ede8 <_svfiprintf_r+0xa54>
   1f418:	fff00793          	li	a5,-1
   1f41c:	00f12423          	sw	a5,8(sp)
   1f420:	958ff06f          	j	1e578 <_svfiprintf_r+0x1e4>
   1f424:	00c12703          	lw	a4,12(sp)
   1f428:	00072c03          	lw	s8,0(a4)
   1f42c:	00470713          	addi	a4,a4,4
   1f430:	000c5463          	bgez	s8,1f438 <_svfiprintf_r+0x10a4>
   1f434:	fff00c13          	li	s8,-1
   1f438:	001d4683          	lbu	a3,1(s10)
   1f43c:	00e12623          	sw	a4,12(sp)
   1f440:	00078d13          	mv	s10,a5
   1f444:	87cff06f          	j	1e4c0 <_svfiprintf_r+0x12c>
   1f448:	00c00793          	li	a5,12
   1f44c:	00fa2023          	sw	a5,0(s4)
   1f450:	fff00793          	li	a5,-1
   1f454:	00f12423          	sw	a5,8(sp)
   1f458:	920ff06f          	j	1e578 <_svfiprintf_r+0x1e4>
   1f45c:	000c8b13          	mv	s6,s9
   1f460:	c8cff06f          	j	1e8ec <_svfiprintf_r+0x558>
   1f464:	000c8813          	mv	a6,s9
   1f468:	b9cff06f          	j	1e804 <_svfiprintf_r+0x470>
   1f46c:	000c8b13          	mv	s6,s9
   1f470:	bbcff06f          	j	1e82c <_svfiprintf_r+0x498>

0001f474 <__swbuf_r>:
   1f474:	fe010113          	addi	sp,sp,-32
   1f478:	00812c23          	sw	s0,24(sp)
   1f47c:	00912a23          	sw	s1,20(sp)
   1f480:	01212823          	sw	s2,16(sp)
   1f484:	00112e23          	sw	ra,28(sp)
   1f488:	01312623          	sw	s3,12(sp)
   1f48c:	00050913          	mv	s2,a0
   1f490:	00058493          	mv	s1,a1
   1f494:	00060413          	mv	s0,a2
   1f498:	00050663          	beqz	a0,1f4a4 <__swbuf_r+0x30>
   1f49c:	03852783          	lw	a5,56(a0)
   1f4a0:	14078863          	beqz	a5,1f5f0 <__swbuf_r+0x17c>
   1f4a4:	00c41703          	lh	a4,12(s0)
   1f4a8:	01842783          	lw	a5,24(s0)
   1f4ac:	01071693          	slli	a3,a4,0x10
   1f4b0:	0106d693          	srli	a3,a3,0x10
   1f4b4:	00f42423          	sw	a5,8(s0)
   1f4b8:	0086f793          	andi	a5,a3,8
   1f4bc:	08078263          	beqz	a5,1f540 <__swbuf_r+0xcc>
   1f4c0:	01042783          	lw	a5,16(s0)
   1f4c4:	06078e63          	beqz	a5,1f540 <__swbuf_r+0xcc>
   1f4c8:	01269613          	slli	a2,a3,0x12
   1f4cc:	0ff4f993          	andi	s3,s1,255
   1f4d0:	0ff4f493          	andi	s1,s1,255
   1f4d4:	08065e63          	bgez	a2,1f570 <__swbuf_r+0xfc>
   1f4d8:	00042703          	lw	a4,0(s0)
   1f4dc:	01442683          	lw	a3,20(s0)
   1f4e0:	40f707b3          	sub	a5,a4,a5
   1f4e4:	0ad7de63          	bge	a5,a3,1f5a0 <__swbuf_r+0x12c>
   1f4e8:	00842683          	lw	a3,8(s0)
   1f4ec:	00170613          	addi	a2,a4,1
   1f4f0:	00c42023          	sw	a2,0(s0)
   1f4f4:	fff68693          	addi	a3,a3,-1
   1f4f8:	00d42423          	sw	a3,8(s0)
   1f4fc:	01370023          	sb	s3,0(a4)
   1f500:	01442703          	lw	a4,20(s0)
   1f504:	00178793          	addi	a5,a5,1
   1f508:	0cf70863          	beq	a4,a5,1f5d8 <__swbuf_r+0x164>
   1f50c:	00c45783          	lhu	a5,12(s0)
   1f510:	0017f793          	andi	a5,a5,1
   1f514:	00078663          	beqz	a5,1f520 <__swbuf_r+0xac>
   1f518:	00a00793          	li	a5,10
   1f51c:	0af48e63          	beq	s1,a5,1f5d8 <__swbuf_r+0x164>
   1f520:	01c12083          	lw	ra,28(sp)
   1f524:	01812403          	lw	s0,24(sp)
   1f528:	00048513          	mv	a0,s1
   1f52c:	01012903          	lw	s2,16(sp)
   1f530:	01412483          	lw	s1,20(sp)
   1f534:	00c12983          	lw	s3,12(sp)
   1f538:	02010113          	addi	sp,sp,32
   1f53c:	00008067          	ret
   1f540:	00040593          	mv	a1,s0
   1f544:	00090513          	mv	a0,s2
   1f548:	c1df30ef          	jal	ra,13164 <__swsetup_r>
   1f54c:	08051e63          	bnez	a0,1f5e8 <__swbuf_r+0x174>
   1f550:	00c41703          	lh	a4,12(s0)
   1f554:	0ff4f993          	andi	s3,s1,255
   1f558:	01042783          	lw	a5,16(s0)
   1f55c:	01071693          	slli	a3,a4,0x10
   1f560:	0106d693          	srli	a3,a3,0x10
   1f564:	01269613          	slli	a2,a3,0x12
   1f568:	0ff4f493          	andi	s1,s1,255
   1f56c:	f60646e3          	bltz	a2,1f4d8 <__swbuf_r+0x64>
   1f570:	06442683          	lw	a3,100(s0)
   1f574:	00002637          	lui	a2,0x2
   1f578:	00c76733          	or	a4,a4,a2
   1f57c:	ffffe637          	lui	a2,0xffffe
   1f580:	fff60613          	addi	a2,a2,-1 # ffffdfff <__global_pointer$+0xfffd6a8f>
   1f584:	00c6f6b3          	and	a3,a3,a2
   1f588:	00e41623          	sh	a4,12(s0)
   1f58c:	00042703          	lw	a4,0(s0)
   1f590:	06d42223          	sw	a3,100(s0)
   1f594:	01442683          	lw	a3,20(s0)
   1f598:	40f707b3          	sub	a5,a4,a5
   1f59c:	f4d7c6e3          	blt	a5,a3,1f4e8 <__swbuf_r+0x74>
   1f5a0:	00040593          	mv	a1,s0
   1f5a4:	00090513          	mv	a0,s2
   1f5a8:	938f40ef          	jal	ra,136e0 <_fflush_r>
   1f5ac:	02051e63          	bnez	a0,1f5e8 <__swbuf_r+0x174>
   1f5b0:	00042703          	lw	a4,0(s0)
   1f5b4:	00842683          	lw	a3,8(s0)
   1f5b8:	00100793          	li	a5,1
   1f5bc:	00170613          	addi	a2,a4,1
   1f5c0:	fff68693          	addi	a3,a3,-1
   1f5c4:	00c42023          	sw	a2,0(s0)
   1f5c8:	00d42423          	sw	a3,8(s0)
   1f5cc:	01370023          	sb	s3,0(a4)
   1f5d0:	01442703          	lw	a4,20(s0)
   1f5d4:	f2f71ce3          	bne	a4,a5,1f50c <__swbuf_r+0x98>
   1f5d8:	00040593          	mv	a1,s0
   1f5dc:	00090513          	mv	a0,s2
   1f5e0:	900f40ef          	jal	ra,136e0 <_fflush_r>
   1f5e4:	f2050ee3          	beqz	a0,1f520 <__swbuf_r+0xac>
   1f5e8:	fff00493          	li	s1,-1
   1f5ec:	f35ff06f          	j	1f520 <__swbuf_r+0xac>
   1f5f0:	ca8f40ef          	jal	ra,13a98 <__sinit>
   1f5f4:	eb1ff06f          	j	1f4a4 <__swbuf_r+0x30>

0001f5f8 <__swbuf>:
   1f5f8:	81c18793          	addi	a5,gp,-2020 # 26d8c <_impure_ptr>
   1f5fc:	00058613          	mv	a2,a1
   1f600:	00050593          	mv	a1,a0
   1f604:	0007a503          	lw	a0,0(a5)
   1f608:	e6dff06f          	j	1f474 <__swbuf_r>

0001f60c <_wcrtomb_r>:
   1f60c:	fe010113          	addi	sp,sp,-32
   1f610:	00812c23          	sw	s0,24(sp)
   1f614:	00912a23          	sw	s1,20(sp)
   1f618:	00007797          	auipc	a5,0x7
   1f61c:	1e078793          	addi	a5,a5,480 # 267f8 <__global_locale>
   1f620:	00112e23          	sw	ra,28(sp)
   1f624:	00050413          	mv	s0,a0
   1f628:	00068493          	mv	s1,a3
   1f62c:	0e07a783          	lw	a5,224(a5)
   1f630:	02058263          	beqz	a1,1f654 <_wcrtomb_r+0x48>
   1f634:	000780e7          	jalr	a5
   1f638:	fff00793          	li	a5,-1
   1f63c:	02f50663          	beq	a0,a5,1f668 <_wcrtomb_r+0x5c>
   1f640:	01c12083          	lw	ra,28(sp)
   1f644:	01812403          	lw	s0,24(sp)
   1f648:	01412483          	lw	s1,20(sp)
   1f64c:	02010113          	addi	sp,sp,32
   1f650:	00008067          	ret
   1f654:	00000613          	li	a2,0
   1f658:	00410593          	addi	a1,sp,4
   1f65c:	000780e7          	jalr	a5
   1f660:	fff00793          	li	a5,-1
   1f664:	fcf51ee3          	bne	a0,a5,1f640 <_wcrtomb_r+0x34>
   1f668:	0004a023          	sw	zero,0(s1)
   1f66c:	08a00793          	li	a5,138
   1f670:	00f42023          	sw	a5,0(s0)
   1f674:	01c12083          	lw	ra,28(sp)
   1f678:	01812403          	lw	s0,24(sp)
   1f67c:	01412483          	lw	s1,20(sp)
   1f680:	02010113          	addi	sp,sp,32
   1f684:	00008067          	ret

0001f688 <wcrtomb>:
   1f688:	fe010113          	addi	sp,sp,-32
   1f68c:	81c18793          	addi	a5,gp,-2020 # 26d8c <_impure_ptr>
   1f690:	00812c23          	sw	s0,24(sp)
   1f694:	00912a23          	sw	s1,20(sp)
   1f698:	0007a403          	lw	s0,0(a5)
   1f69c:	00112e23          	sw	ra,28(sp)
   1f6a0:	00007797          	auipc	a5,0x7
   1f6a4:	15878793          	addi	a5,a5,344 # 267f8 <__global_locale>
   1f6a8:	00060493          	mv	s1,a2
   1f6ac:	0e07a783          	lw	a5,224(a5)
   1f6b0:	00060693          	mv	a3,a2
   1f6b4:	02050863          	beqz	a0,1f6e4 <wcrtomb+0x5c>
   1f6b8:	00058613          	mv	a2,a1
   1f6bc:	00050593          	mv	a1,a0
   1f6c0:	00040513          	mv	a0,s0
   1f6c4:	000780e7          	jalr	a5
   1f6c8:	fff00793          	li	a5,-1
   1f6cc:	02f50863          	beq	a0,a5,1f6fc <wcrtomb+0x74>
   1f6d0:	01c12083          	lw	ra,28(sp)
   1f6d4:	01812403          	lw	s0,24(sp)
   1f6d8:	01412483          	lw	s1,20(sp)
   1f6dc:	02010113          	addi	sp,sp,32
   1f6e0:	00008067          	ret
   1f6e4:	00000613          	li	a2,0
   1f6e8:	00410593          	addi	a1,sp,4
   1f6ec:	00040513          	mv	a0,s0
   1f6f0:	000780e7          	jalr	a5
   1f6f4:	fff00793          	li	a5,-1
   1f6f8:	fcf51ce3          	bne	a0,a5,1f6d0 <wcrtomb+0x48>
   1f6fc:	0004a023          	sw	zero,0(s1)
   1f700:	08a00793          	li	a5,138
   1f704:	00f42023          	sw	a5,0(s0)
   1f708:	01c12083          	lw	ra,28(sp)
   1f70c:	01812403          	lw	s0,24(sp)
   1f710:	01412483          	lw	s1,20(sp)
   1f714:	02010113          	addi	sp,sp,32
   1f718:	00008067          	ret

0001f71c <__udivdi3>:
   1f71c:	fd010113          	addi	sp,sp,-48
   1f720:	02912223          	sw	s1,36(sp)
   1f724:	01612823          	sw	s6,16(sp)
   1f728:	02112623          	sw	ra,44(sp)
   1f72c:	02812423          	sw	s0,40(sp)
   1f730:	03212023          	sw	s2,32(sp)
   1f734:	01312e23          	sw	s3,28(sp)
   1f738:	01412c23          	sw	s4,24(sp)
   1f73c:	01512a23          	sw	s5,20(sp)
   1f740:	01712623          	sw	s7,12(sp)
   1f744:	01812423          	sw	s8,8(sp)
   1f748:	01912223          	sw	s9,4(sp)
   1f74c:	00050b13          	mv	s6,a0
   1f750:	00058493          	mv	s1,a1
   1f754:	38069c63          	bnez	a3,1faec <__udivdi3+0x3d0>
   1f758:	00060413          	mv	s0,a2
   1f75c:	00050993          	mv	s3,a0
   1f760:	00006917          	auipc	s2,0x6
   1f764:	aac90913          	addi	s2,s2,-1364 # 2520c <__clz_tab>
   1f768:	12c5f863          	bgeu	a1,a2,1f898 <__udivdi3+0x17c>
   1f76c:	000107b7          	lui	a5,0x10
   1f770:	00058a93          	mv	s5,a1
   1f774:	10f67863          	bgeu	a2,a5,1f884 <__udivdi3+0x168>
   1f778:	0ff00693          	li	a3,255
   1f77c:	00c6b6b3          	sltu	a3,a3,a2
   1f780:	00369693          	slli	a3,a3,0x3
   1f784:	00d657b3          	srl	a5,a2,a3
   1f788:	00f90933          	add	s2,s2,a5
   1f78c:	00094703          	lbu	a4,0(s2)
   1f790:	00d706b3          	add	a3,a4,a3
   1f794:	02000713          	li	a4,32
   1f798:	40d70733          	sub	a4,a4,a3
   1f79c:	00070c63          	beqz	a4,1f7b4 <__udivdi3+0x98>
   1f7a0:	00e494b3          	sll	s1,s1,a4
   1f7a4:	00db56b3          	srl	a3,s6,a3
   1f7a8:	00e61433          	sll	s0,a2,a4
   1f7ac:	0096eab3          	or	s5,a3,s1
   1f7b0:	00eb19b3          	sll	s3,s6,a4
   1f7b4:	01045b13          	srli	s6,s0,0x10
   1f7b8:	000b0593          	mv	a1,s6
   1f7bc:	000a8513          	mv	a0,s5
   1f7c0:	549040ef          	jal	ra,24508 <__umodsi3>
   1f7c4:	00050913          	mv	s2,a0
   1f7c8:	000b0593          	mv	a1,s6
   1f7cc:	01041b93          	slli	s7,s0,0x10
   1f7d0:	000a8513          	mv	a0,s5
   1f7d4:	4ed040ef          	jal	ra,244c0 <__udivsi3>
   1f7d8:	010bdb93          	srli	s7,s7,0x10
   1f7dc:	00050493          	mv	s1,a0
   1f7e0:	00050593          	mv	a1,a0
   1f7e4:	000b8513          	mv	a0,s7
   1f7e8:	4ad040ef          	jal	ra,24494 <__mulsi3>
   1f7ec:	01091913          	slli	s2,s2,0x10
   1f7f0:	0109d713          	srli	a4,s3,0x10
   1f7f4:	00e96733          	or	a4,s2,a4
   1f7f8:	00048a13          	mv	s4,s1
   1f7fc:	00a77e63          	bgeu	a4,a0,1f818 <__udivdi3+0xfc>
   1f800:	00870733          	add	a4,a4,s0
   1f804:	fff48a13          	addi	s4,s1,-1
   1f808:	00876863          	bltu	a4,s0,1f818 <__udivdi3+0xfc>
   1f80c:	00a77663          	bgeu	a4,a0,1f818 <__udivdi3+0xfc>
   1f810:	ffe48a13          	addi	s4,s1,-2
   1f814:	00870733          	add	a4,a4,s0
   1f818:	40a704b3          	sub	s1,a4,a0
   1f81c:	000b0593          	mv	a1,s6
   1f820:	00048513          	mv	a0,s1
   1f824:	4e5040ef          	jal	ra,24508 <__umodsi3>
   1f828:	00050913          	mv	s2,a0
   1f82c:	000b0593          	mv	a1,s6
   1f830:	00048513          	mv	a0,s1
   1f834:	48d040ef          	jal	ra,244c0 <__udivsi3>
   1f838:	01099993          	slli	s3,s3,0x10
   1f83c:	00050493          	mv	s1,a0
   1f840:	00050593          	mv	a1,a0
   1f844:	01091913          	slli	s2,s2,0x10
   1f848:	000b8513          	mv	a0,s7
   1f84c:	0109d993          	srli	s3,s3,0x10
   1f850:	445040ef          	jal	ra,24494 <__mulsi3>
   1f854:	013969b3          	or	s3,s2,s3
   1f858:	00048613          	mv	a2,s1
   1f85c:	00a9fc63          	bgeu	s3,a0,1f874 <__udivdi3+0x158>
   1f860:	013409b3          	add	s3,s0,s3
   1f864:	fff48613          	addi	a2,s1,-1
   1f868:	0089e663          	bltu	s3,s0,1f874 <__udivdi3+0x158>
   1f86c:	00a9f463          	bgeu	s3,a0,1f874 <__udivdi3+0x158>
   1f870:	ffe48613          	addi	a2,s1,-2
   1f874:	010a1793          	slli	a5,s4,0x10
   1f878:	00c7e7b3          	or	a5,a5,a2
   1f87c:	00000a13          	li	s4,0
   1f880:	1300006f          	j	1f9b0 <__udivdi3+0x294>
   1f884:	010007b7          	lui	a5,0x1000
   1f888:	01000693          	li	a3,16
   1f88c:	eef66ce3          	bltu	a2,a5,1f784 <__udivdi3+0x68>
   1f890:	01800693          	li	a3,24
   1f894:	ef1ff06f          	j	1f784 <__udivdi3+0x68>
   1f898:	00068a13          	mv	s4,a3
   1f89c:	00061a63          	bnez	a2,1f8b0 <__udivdi3+0x194>
   1f8a0:	00000593          	li	a1,0
   1f8a4:	00100513          	li	a0,1
   1f8a8:	419040ef          	jal	ra,244c0 <__udivsi3>
   1f8ac:	00050413          	mv	s0,a0
   1f8b0:	000107b7          	lui	a5,0x10
   1f8b4:	12f47c63          	bgeu	s0,a5,1f9ec <__udivdi3+0x2d0>
   1f8b8:	0ff00793          	li	a5,255
   1f8bc:	0087f463          	bgeu	a5,s0,1f8c4 <__udivdi3+0x1a8>
   1f8c0:	00800a13          	li	s4,8
   1f8c4:	014457b3          	srl	a5,s0,s4
   1f8c8:	00f90933          	add	s2,s2,a5
   1f8cc:	00094683          	lbu	a3,0(s2)
   1f8d0:	02000613          	li	a2,32
   1f8d4:	014686b3          	add	a3,a3,s4
   1f8d8:	40d60633          	sub	a2,a2,a3
   1f8dc:	12061263          	bnez	a2,1fa00 <__udivdi3+0x2e4>
   1f8e0:	408484b3          	sub	s1,s1,s0
   1f8e4:	00100a13          	li	s4,1
   1f8e8:	01045b13          	srli	s6,s0,0x10
   1f8ec:	000b0593          	mv	a1,s6
   1f8f0:	00048513          	mv	a0,s1
   1f8f4:	415040ef          	jal	ra,24508 <__umodsi3>
   1f8f8:	00050913          	mv	s2,a0
   1f8fc:	000b0593          	mv	a1,s6
   1f900:	00048513          	mv	a0,s1
   1f904:	01041b93          	slli	s7,s0,0x10
   1f908:	3b9040ef          	jal	ra,244c0 <__udivsi3>
   1f90c:	010bdb93          	srli	s7,s7,0x10
   1f910:	00050493          	mv	s1,a0
   1f914:	00050593          	mv	a1,a0
   1f918:	000b8513          	mv	a0,s7
   1f91c:	379040ef          	jal	ra,24494 <__mulsi3>
   1f920:	01091913          	slli	s2,s2,0x10
   1f924:	0109d713          	srli	a4,s3,0x10
   1f928:	00e96733          	or	a4,s2,a4
   1f92c:	00048a93          	mv	s5,s1
   1f930:	00a77e63          	bgeu	a4,a0,1f94c <__udivdi3+0x230>
   1f934:	00870733          	add	a4,a4,s0
   1f938:	fff48a93          	addi	s5,s1,-1
   1f93c:	00876863          	bltu	a4,s0,1f94c <__udivdi3+0x230>
   1f940:	00a77663          	bgeu	a4,a0,1f94c <__udivdi3+0x230>
   1f944:	ffe48a93          	addi	s5,s1,-2
   1f948:	00870733          	add	a4,a4,s0
   1f94c:	40a704b3          	sub	s1,a4,a0
   1f950:	000b0593          	mv	a1,s6
   1f954:	00048513          	mv	a0,s1
   1f958:	3b1040ef          	jal	ra,24508 <__umodsi3>
   1f95c:	00050913          	mv	s2,a0
   1f960:	000b0593          	mv	a1,s6
   1f964:	00048513          	mv	a0,s1
   1f968:	359040ef          	jal	ra,244c0 <__udivsi3>
   1f96c:	01099993          	slli	s3,s3,0x10
   1f970:	00050493          	mv	s1,a0
   1f974:	00050593          	mv	a1,a0
   1f978:	01091913          	slli	s2,s2,0x10
   1f97c:	000b8513          	mv	a0,s7
   1f980:	0109d993          	srli	s3,s3,0x10
   1f984:	311040ef          	jal	ra,24494 <__mulsi3>
   1f988:	013969b3          	or	s3,s2,s3
   1f98c:	00048613          	mv	a2,s1
   1f990:	00a9fc63          	bgeu	s3,a0,1f9a8 <__udivdi3+0x28c>
   1f994:	013409b3          	add	s3,s0,s3
   1f998:	fff48613          	addi	a2,s1,-1
   1f99c:	0089e663          	bltu	s3,s0,1f9a8 <__udivdi3+0x28c>
   1f9a0:	00a9f463          	bgeu	s3,a0,1f9a8 <__udivdi3+0x28c>
   1f9a4:	ffe48613          	addi	a2,s1,-2
   1f9a8:	010a9793          	slli	a5,s5,0x10
   1f9ac:	00c7e7b3          	or	a5,a5,a2
   1f9b0:	00078513          	mv	a0,a5
   1f9b4:	000a0593          	mv	a1,s4
   1f9b8:	02c12083          	lw	ra,44(sp)
   1f9bc:	02812403          	lw	s0,40(sp)
   1f9c0:	02412483          	lw	s1,36(sp)
   1f9c4:	02012903          	lw	s2,32(sp)
   1f9c8:	01c12983          	lw	s3,28(sp)
   1f9cc:	01812a03          	lw	s4,24(sp)
   1f9d0:	01412a83          	lw	s5,20(sp)
   1f9d4:	01012b03          	lw	s6,16(sp)
   1f9d8:	00c12b83          	lw	s7,12(sp)
   1f9dc:	00812c03          	lw	s8,8(sp)
   1f9e0:	00412c83          	lw	s9,4(sp)
   1f9e4:	03010113          	addi	sp,sp,48
   1f9e8:	00008067          	ret
   1f9ec:	010007b7          	lui	a5,0x1000
   1f9f0:	01000a13          	li	s4,16
   1f9f4:	ecf468e3          	bltu	s0,a5,1f8c4 <__udivdi3+0x1a8>
   1f9f8:	01800a13          	li	s4,24
   1f9fc:	ec9ff06f          	j	1f8c4 <__udivdi3+0x1a8>
   1fa00:	00c41433          	sll	s0,s0,a2
   1fa04:	00d4da33          	srl	s4,s1,a3
   1fa08:	00cb19b3          	sll	s3,s6,a2
   1fa0c:	00db56b3          	srl	a3,s6,a3
   1fa10:	01045b13          	srli	s6,s0,0x10
   1fa14:	00c494b3          	sll	s1,s1,a2
   1fa18:	000b0593          	mv	a1,s6
   1fa1c:	000a0513          	mv	a0,s4
   1fa20:	0096eab3          	or	s5,a3,s1
   1fa24:	2e5040ef          	jal	ra,24508 <__umodsi3>
   1fa28:	00050913          	mv	s2,a0
   1fa2c:	000b0593          	mv	a1,s6
   1fa30:	000a0513          	mv	a0,s4
   1fa34:	01041b93          	slli	s7,s0,0x10
   1fa38:	289040ef          	jal	ra,244c0 <__udivsi3>
   1fa3c:	010bdb93          	srli	s7,s7,0x10
   1fa40:	00050493          	mv	s1,a0
   1fa44:	00050593          	mv	a1,a0
   1fa48:	000b8513          	mv	a0,s7
   1fa4c:	249040ef          	jal	ra,24494 <__mulsi3>
   1fa50:	01091913          	slli	s2,s2,0x10
   1fa54:	010ad713          	srli	a4,s5,0x10
   1fa58:	00e96733          	or	a4,s2,a4
   1fa5c:	00048a13          	mv	s4,s1
   1fa60:	00a77e63          	bgeu	a4,a0,1fa7c <__udivdi3+0x360>
   1fa64:	00870733          	add	a4,a4,s0
   1fa68:	fff48a13          	addi	s4,s1,-1
   1fa6c:	00876863          	bltu	a4,s0,1fa7c <__udivdi3+0x360>
   1fa70:	00a77663          	bgeu	a4,a0,1fa7c <__udivdi3+0x360>
   1fa74:	ffe48a13          	addi	s4,s1,-2
   1fa78:	00870733          	add	a4,a4,s0
   1fa7c:	40a704b3          	sub	s1,a4,a0
   1fa80:	000b0593          	mv	a1,s6
   1fa84:	00048513          	mv	a0,s1
   1fa88:	281040ef          	jal	ra,24508 <__umodsi3>
   1fa8c:	00050913          	mv	s2,a0
   1fa90:	000b0593          	mv	a1,s6
   1fa94:	00048513          	mv	a0,s1
   1fa98:	229040ef          	jal	ra,244c0 <__udivsi3>
   1fa9c:	00050493          	mv	s1,a0
   1faa0:	00050593          	mv	a1,a0
   1faa4:	000b8513          	mv	a0,s7
   1faa8:	1ed040ef          	jal	ra,24494 <__mulsi3>
   1faac:	010a9693          	slli	a3,s5,0x10
   1fab0:	01091913          	slli	s2,s2,0x10
   1fab4:	0106d693          	srli	a3,a3,0x10
   1fab8:	00d967b3          	or	a5,s2,a3
   1fabc:	00048713          	mv	a4,s1
   1fac0:	00a7fe63          	bgeu	a5,a0,1fadc <__udivdi3+0x3c0>
   1fac4:	008787b3          	add	a5,a5,s0
   1fac8:	fff48713          	addi	a4,s1,-1
   1facc:	0087e863          	bltu	a5,s0,1fadc <__udivdi3+0x3c0>
   1fad0:	00a7f663          	bgeu	a5,a0,1fadc <__udivdi3+0x3c0>
   1fad4:	ffe48713          	addi	a4,s1,-2
   1fad8:	008787b3          	add	a5,a5,s0
   1fadc:	010a1a13          	slli	s4,s4,0x10
   1fae0:	40a784b3          	sub	s1,a5,a0
   1fae4:	00ea6a33          	or	s4,s4,a4
   1fae8:	e01ff06f          	j	1f8e8 <__udivdi3+0x1cc>
   1faec:	1ed5ec63          	bltu	a1,a3,1fce4 <__udivdi3+0x5c8>
   1faf0:	000107b7          	lui	a5,0x10
   1faf4:	04f6f463          	bgeu	a3,a5,1fb3c <__udivdi3+0x420>
   1faf8:	0ff00593          	li	a1,255
   1fafc:	00d5b533          	sltu	a0,a1,a3
   1fb00:	00351513          	slli	a0,a0,0x3
   1fb04:	00a6d733          	srl	a4,a3,a0
   1fb08:	00005797          	auipc	a5,0x5
   1fb0c:	70478793          	addi	a5,a5,1796 # 2520c <__clz_tab>
   1fb10:	00e787b3          	add	a5,a5,a4
   1fb14:	0007c583          	lbu	a1,0(a5)
   1fb18:	02000a13          	li	s4,32
   1fb1c:	00a585b3          	add	a1,a1,a0
   1fb20:	40ba0a33          	sub	s4,s4,a1
   1fb24:	020a1663          	bnez	s4,1fb50 <__udivdi3+0x434>
   1fb28:	00100793          	li	a5,1
   1fb2c:	e896e2e3          	bltu	a3,s1,1f9b0 <__udivdi3+0x294>
   1fb30:	00cb3633          	sltu	a2,s6,a2
   1fb34:	00164793          	xori	a5,a2,1
   1fb38:	e79ff06f          	j	1f9b0 <__udivdi3+0x294>
   1fb3c:	010007b7          	lui	a5,0x1000
   1fb40:	01000513          	li	a0,16
   1fb44:	fcf6e0e3          	bltu	a3,a5,1fb04 <__udivdi3+0x3e8>
   1fb48:	01800513          	li	a0,24
   1fb4c:	fb9ff06f          	j	1fb04 <__udivdi3+0x3e8>
   1fb50:	00b65ab3          	srl	s5,a2,a1
   1fb54:	014696b3          	sll	a3,a3,s4
   1fb58:	00daeab3          	or	s5,s5,a3
   1fb5c:	00b4d933          	srl	s2,s1,a1
   1fb60:	014497b3          	sll	a5,s1,s4
   1fb64:	00bb55b3          	srl	a1,s6,a1
   1fb68:	010adb93          	srli	s7,s5,0x10
   1fb6c:	00f5e4b3          	or	s1,a1,a5
   1fb70:	00090513          	mv	a0,s2
   1fb74:	000b8593          	mv	a1,s7
   1fb78:	014619b3          	sll	s3,a2,s4
   1fb7c:	18d040ef          	jal	ra,24508 <__umodsi3>
   1fb80:	00050413          	mv	s0,a0
   1fb84:	000b8593          	mv	a1,s7
   1fb88:	00090513          	mv	a0,s2
   1fb8c:	010a9c13          	slli	s8,s5,0x10
   1fb90:	131040ef          	jal	ra,244c0 <__udivsi3>
   1fb94:	010c5c13          	srli	s8,s8,0x10
   1fb98:	00050913          	mv	s2,a0
   1fb9c:	00050593          	mv	a1,a0
   1fba0:	000c0513          	mv	a0,s8
   1fba4:	0f1040ef          	jal	ra,24494 <__mulsi3>
   1fba8:	01041413          	slli	s0,s0,0x10
   1fbac:	0104d713          	srli	a4,s1,0x10
   1fbb0:	00e46733          	or	a4,s0,a4
   1fbb4:	00090c93          	mv	s9,s2
   1fbb8:	00a77e63          	bgeu	a4,a0,1fbd4 <__udivdi3+0x4b8>
   1fbbc:	01570733          	add	a4,a4,s5
   1fbc0:	fff90c93          	addi	s9,s2,-1
   1fbc4:	01576863          	bltu	a4,s5,1fbd4 <__udivdi3+0x4b8>
   1fbc8:	00a77663          	bgeu	a4,a0,1fbd4 <__udivdi3+0x4b8>
   1fbcc:	ffe90c93          	addi	s9,s2,-2
   1fbd0:	01570733          	add	a4,a4,s5
   1fbd4:	40a70933          	sub	s2,a4,a0
   1fbd8:	000b8593          	mv	a1,s7
   1fbdc:	00090513          	mv	a0,s2
   1fbe0:	129040ef          	jal	ra,24508 <__umodsi3>
   1fbe4:	00050413          	mv	s0,a0
   1fbe8:	000b8593          	mv	a1,s7
   1fbec:	00090513          	mv	a0,s2
   1fbf0:	0d1040ef          	jal	ra,244c0 <__udivsi3>
   1fbf4:	00050913          	mv	s2,a0
   1fbf8:	00050593          	mv	a1,a0
   1fbfc:	000c0513          	mv	a0,s8
   1fc00:	095040ef          	jal	ra,24494 <__mulsi3>
   1fc04:	01049793          	slli	a5,s1,0x10
   1fc08:	01041413          	slli	s0,s0,0x10
   1fc0c:	0107d793          	srli	a5,a5,0x10
   1fc10:	00f46733          	or	a4,s0,a5
   1fc14:	00090613          	mv	a2,s2
   1fc18:	00a77e63          	bgeu	a4,a0,1fc34 <__udivdi3+0x518>
   1fc1c:	01570733          	add	a4,a4,s5
   1fc20:	fff90613          	addi	a2,s2,-1
   1fc24:	01576863          	bltu	a4,s5,1fc34 <__udivdi3+0x518>
   1fc28:	00a77663          	bgeu	a4,a0,1fc34 <__udivdi3+0x518>
   1fc2c:	ffe90613          	addi	a2,s2,-2
   1fc30:	01570733          	add	a4,a4,s5
   1fc34:	010c9793          	slli	a5,s9,0x10
   1fc38:	00010e37          	lui	t3,0x10
   1fc3c:	00c7e7b3          	or	a5,a5,a2
   1fc40:	fffe0813          	addi	a6,t3,-1 # ffff <_start-0x1>
   1fc44:	0107f333          	and	t1,a5,a6
   1fc48:	0109f833          	and	a6,s3,a6
   1fc4c:	40a70733          	sub	a4,a4,a0
   1fc50:	0107de93          	srli	t4,a5,0x10
   1fc54:	0109d993          	srli	s3,s3,0x10
   1fc58:	00030513          	mv	a0,t1
   1fc5c:	00080593          	mv	a1,a6
   1fc60:	035040ef          	jal	ra,24494 <__mulsi3>
   1fc64:	00050893          	mv	a7,a0
   1fc68:	00098593          	mv	a1,s3
   1fc6c:	00030513          	mv	a0,t1
   1fc70:	025040ef          	jal	ra,24494 <__mulsi3>
   1fc74:	00050313          	mv	t1,a0
   1fc78:	00080593          	mv	a1,a6
   1fc7c:	000e8513          	mv	a0,t4
   1fc80:	015040ef          	jal	ra,24494 <__mulsi3>
   1fc84:	00050813          	mv	a6,a0
   1fc88:	00098593          	mv	a1,s3
   1fc8c:	000e8513          	mv	a0,t4
   1fc90:	005040ef          	jal	ra,24494 <__mulsi3>
   1fc94:	0108d693          	srli	a3,a7,0x10
   1fc98:	01030333          	add	t1,t1,a6
   1fc9c:	006686b3          	add	a3,a3,t1
   1fca0:	0106f463          	bgeu	a3,a6,1fca8 <__udivdi3+0x58c>
   1fca4:	01c50533          	add	a0,a0,t3
   1fca8:	0106d613          	srli	a2,a3,0x10
   1fcac:	00a60533          	add	a0,a2,a0
   1fcb0:	02a76663          	bltu	a4,a0,1fcdc <__udivdi3+0x5c0>
   1fcb4:	bca714e3          	bne	a4,a0,1f87c <__udivdi3+0x160>
   1fcb8:	00010737          	lui	a4,0x10
   1fcbc:	fff70713          	addi	a4,a4,-1 # ffff <_start-0x1>
   1fcc0:	00e6f6b3          	and	a3,a3,a4
   1fcc4:	01069693          	slli	a3,a3,0x10
   1fcc8:	00e8f8b3          	and	a7,a7,a4
   1fccc:	014b1633          	sll	a2,s6,s4
   1fcd0:	011686b3          	add	a3,a3,a7
   1fcd4:	00000a13          	li	s4,0
   1fcd8:	ccd67ce3          	bgeu	a2,a3,1f9b0 <__udivdi3+0x294>
   1fcdc:	fff78793          	addi	a5,a5,-1 # ffffff <__global_pointer$+0xfd8a8f>
   1fce0:	b9dff06f          	j	1f87c <__udivdi3+0x160>
   1fce4:	00000a13          	li	s4,0
   1fce8:	00000793          	li	a5,0
   1fcec:	cc5ff06f          	j	1f9b0 <__udivdi3+0x294>

0001fcf0 <__umoddi3>:
   1fcf0:	fd010113          	addi	sp,sp,-48
   1fcf4:	02812423          	sw	s0,40(sp)
   1fcf8:	02912223          	sw	s1,36(sp)
   1fcfc:	01312e23          	sw	s3,28(sp)
   1fd00:	01612823          	sw	s6,16(sp)
   1fd04:	02112623          	sw	ra,44(sp)
   1fd08:	03212023          	sw	s2,32(sp)
   1fd0c:	01412c23          	sw	s4,24(sp)
   1fd10:	01512a23          	sw	s5,20(sp)
   1fd14:	01712623          	sw	s7,12(sp)
   1fd18:	01812423          	sw	s8,8(sp)
   1fd1c:	01912223          	sw	s9,4(sp)
   1fd20:	01a12023          	sw	s10,0(sp)
   1fd24:	00050b13          	mv	s6,a0
   1fd28:	00058993          	mv	s3,a1
   1fd2c:	00050413          	mv	s0,a0
   1fd30:	00058493          	mv	s1,a1
   1fd34:	26069c63          	bnez	a3,1ffac <__umoddi3+0x2bc>
   1fd38:	00060913          	mv	s2,a2
   1fd3c:	00068a13          	mv	s4,a3
   1fd40:	00005a97          	auipc	s5,0x5
   1fd44:	4cca8a93          	addi	s5,s5,1228 # 2520c <__clz_tab>
   1fd48:	14c5f263          	bgeu	a1,a2,1fe8c <__umoddi3+0x19c>
   1fd4c:	000107b7          	lui	a5,0x10
   1fd50:	12f67463          	bgeu	a2,a5,1fe78 <__umoddi3+0x188>
   1fd54:	0ff00793          	li	a5,255
   1fd58:	00c7f463          	bgeu	a5,a2,1fd60 <__umoddi3+0x70>
   1fd5c:	00800a13          	li	s4,8
   1fd60:	014657b3          	srl	a5,a2,s4
   1fd64:	00fa8ab3          	add	s5,s5,a5
   1fd68:	000ac703          	lbu	a4,0(s5)
   1fd6c:	02000513          	li	a0,32
   1fd70:	01470733          	add	a4,a4,s4
   1fd74:	40e50a33          	sub	s4,a0,a4
   1fd78:	000a0c63          	beqz	s4,1fd90 <__umoddi3+0xa0>
   1fd7c:	014995b3          	sll	a1,s3,s4
   1fd80:	00eb5733          	srl	a4,s6,a4
   1fd84:	01461933          	sll	s2,a2,s4
   1fd88:	00b764b3          	or	s1,a4,a1
   1fd8c:	014b1433          	sll	s0,s6,s4
   1fd90:	01095a93          	srli	s5,s2,0x10
   1fd94:	000a8593          	mv	a1,s5
   1fd98:	00048513          	mv	a0,s1
   1fd9c:	76c040ef          	jal	ra,24508 <__umodsi3>
   1fda0:	00050993          	mv	s3,a0
   1fda4:	000a8593          	mv	a1,s5
   1fda8:	01091b13          	slli	s6,s2,0x10
   1fdac:	00048513          	mv	a0,s1
   1fdb0:	710040ef          	jal	ra,244c0 <__udivsi3>
   1fdb4:	010b5b13          	srli	s6,s6,0x10
   1fdb8:	00050593          	mv	a1,a0
   1fdbc:	000b0513          	mv	a0,s6
   1fdc0:	6d4040ef          	jal	ra,24494 <__mulsi3>
   1fdc4:	01099993          	slli	s3,s3,0x10
   1fdc8:	01045793          	srli	a5,s0,0x10
   1fdcc:	00f9e7b3          	or	a5,s3,a5
   1fdd0:	00a7fa63          	bgeu	a5,a0,1fde4 <__umoddi3+0xf4>
   1fdd4:	012787b3          	add	a5,a5,s2
   1fdd8:	0127e663          	bltu	a5,s2,1fde4 <__umoddi3+0xf4>
   1fddc:	00a7f463          	bgeu	a5,a0,1fde4 <__umoddi3+0xf4>
   1fde0:	012787b3          	add	a5,a5,s2
   1fde4:	40a784b3          	sub	s1,a5,a0
   1fde8:	000a8593          	mv	a1,s5
   1fdec:	00048513          	mv	a0,s1
   1fdf0:	718040ef          	jal	ra,24508 <__umodsi3>
   1fdf4:	00050993          	mv	s3,a0
   1fdf8:	000a8593          	mv	a1,s5
   1fdfc:	00048513          	mv	a0,s1
   1fe00:	6c0040ef          	jal	ra,244c0 <__udivsi3>
   1fe04:	01041413          	slli	s0,s0,0x10
   1fe08:	00050593          	mv	a1,a0
   1fe0c:	01099993          	slli	s3,s3,0x10
   1fe10:	000b0513          	mv	a0,s6
   1fe14:	01045413          	srli	s0,s0,0x10
   1fe18:	67c040ef          	jal	ra,24494 <__mulsi3>
   1fe1c:	0089e433          	or	s0,s3,s0
   1fe20:	00a47a63          	bgeu	s0,a0,1fe34 <__umoddi3+0x144>
   1fe24:	01240433          	add	s0,s0,s2
   1fe28:	01246663          	bltu	s0,s2,1fe34 <__umoddi3+0x144>
   1fe2c:	00a47463          	bgeu	s0,a0,1fe34 <__umoddi3+0x144>
   1fe30:	01240433          	add	s0,s0,s2
   1fe34:	40a40433          	sub	s0,s0,a0
   1fe38:	01445533          	srl	a0,s0,s4
   1fe3c:	00000593          	li	a1,0
   1fe40:	02c12083          	lw	ra,44(sp)
   1fe44:	02812403          	lw	s0,40(sp)
   1fe48:	02412483          	lw	s1,36(sp)
   1fe4c:	02012903          	lw	s2,32(sp)
   1fe50:	01c12983          	lw	s3,28(sp)
   1fe54:	01812a03          	lw	s4,24(sp)
   1fe58:	01412a83          	lw	s5,20(sp)
   1fe5c:	01012b03          	lw	s6,16(sp)
   1fe60:	00c12b83          	lw	s7,12(sp)
   1fe64:	00812c03          	lw	s8,8(sp)
   1fe68:	00412c83          	lw	s9,4(sp)
   1fe6c:	00012d03          	lw	s10,0(sp)
   1fe70:	03010113          	addi	sp,sp,48
   1fe74:	00008067          	ret
   1fe78:	010007b7          	lui	a5,0x1000
   1fe7c:	01000a13          	li	s4,16
   1fe80:	eef660e3          	bltu	a2,a5,1fd60 <__umoddi3+0x70>
   1fe84:	01800a13          	li	s4,24
   1fe88:	ed9ff06f          	j	1fd60 <__umoddi3+0x70>
   1fe8c:	00061a63          	bnez	a2,1fea0 <__umoddi3+0x1b0>
   1fe90:	00000593          	li	a1,0
   1fe94:	00100513          	li	a0,1
   1fe98:	628040ef          	jal	ra,244c0 <__udivsi3>
   1fe9c:	00050913          	mv	s2,a0
   1fea0:	000107b7          	lui	a5,0x10
   1fea4:	0ef97a63          	bgeu	s2,a5,1ff98 <__umoddi3+0x2a8>
   1fea8:	0ff00793          	li	a5,255
   1feac:	0127f463          	bgeu	a5,s2,1feb4 <__umoddi3+0x1c4>
   1feb0:	00800a13          	li	s4,8
   1feb4:	014957b3          	srl	a5,s2,s4
   1feb8:	00fa8ab3          	add	s5,s5,a5
   1febc:	000ac703          	lbu	a4,0(s5)
   1fec0:	02000513          	li	a0,32
   1fec4:	412984b3          	sub	s1,s3,s2
   1fec8:	01470733          	add	a4,a4,s4
   1fecc:	40e50a33          	sub	s4,a0,a4
   1fed0:	ec0a00e3          	beqz	s4,1fd90 <__umoddi3+0xa0>
   1fed4:	01491933          	sll	s2,s2,s4
   1fed8:	00e9dab3          	srl	s5,s3,a4
   1fedc:	014995b3          	sll	a1,s3,s4
   1fee0:	00eb5733          	srl	a4,s6,a4
   1fee4:	01095493          	srli	s1,s2,0x10
   1fee8:	00b76bb3          	or	s7,a4,a1
   1feec:	000a8513          	mv	a0,s5
   1fef0:	00048593          	mv	a1,s1
   1fef4:	614040ef          	jal	ra,24508 <__umodsi3>
   1fef8:	00050993          	mv	s3,a0
   1fefc:	00048593          	mv	a1,s1
   1ff00:	014b1433          	sll	s0,s6,s4
   1ff04:	000a8513          	mv	a0,s5
   1ff08:	01091b13          	slli	s6,s2,0x10
   1ff0c:	5b4040ef          	jal	ra,244c0 <__udivsi3>
   1ff10:	010b5b13          	srli	s6,s6,0x10
   1ff14:	00050593          	mv	a1,a0
   1ff18:	000b0513          	mv	a0,s6
   1ff1c:	578040ef          	jal	ra,24494 <__mulsi3>
   1ff20:	01099993          	slli	s3,s3,0x10
   1ff24:	010bd793          	srli	a5,s7,0x10
   1ff28:	00f9e7b3          	or	a5,s3,a5
   1ff2c:	00a7fa63          	bgeu	a5,a0,1ff40 <__umoddi3+0x250>
   1ff30:	012787b3          	add	a5,a5,s2
   1ff34:	0127e663          	bltu	a5,s2,1ff40 <__umoddi3+0x250>
   1ff38:	00a7f463          	bgeu	a5,a0,1ff40 <__umoddi3+0x250>
   1ff3c:	012787b3          	add	a5,a5,s2
   1ff40:	40a78ab3          	sub	s5,a5,a0
   1ff44:	00048593          	mv	a1,s1
   1ff48:	000a8513          	mv	a0,s5
   1ff4c:	5bc040ef          	jal	ra,24508 <__umodsi3>
   1ff50:	00050993          	mv	s3,a0
   1ff54:	00048593          	mv	a1,s1
   1ff58:	000a8513          	mv	a0,s5
   1ff5c:	564040ef          	jal	ra,244c0 <__udivsi3>
   1ff60:	00050593          	mv	a1,a0
   1ff64:	000b0513          	mv	a0,s6
   1ff68:	52c040ef          	jal	ra,24494 <__mulsi3>
   1ff6c:	010b9593          	slli	a1,s7,0x10
   1ff70:	01099993          	slli	s3,s3,0x10
   1ff74:	0105d593          	srli	a1,a1,0x10
   1ff78:	00b9e5b3          	or	a1,s3,a1
   1ff7c:	00a5fa63          	bgeu	a1,a0,1ff90 <__umoddi3+0x2a0>
   1ff80:	012585b3          	add	a1,a1,s2
   1ff84:	0125e663          	bltu	a1,s2,1ff90 <__umoddi3+0x2a0>
   1ff88:	00a5f463          	bgeu	a1,a0,1ff90 <__umoddi3+0x2a0>
   1ff8c:	012585b3          	add	a1,a1,s2
   1ff90:	40a584b3          	sub	s1,a1,a0
   1ff94:	dfdff06f          	j	1fd90 <__umoddi3+0xa0>
   1ff98:	010007b7          	lui	a5,0x1000
   1ff9c:	01000a13          	li	s4,16
   1ffa0:	f0f96ae3          	bltu	s2,a5,1feb4 <__umoddi3+0x1c4>
   1ffa4:	01800a13          	li	s4,24
   1ffa8:	f0dff06f          	j	1feb4 <__umoddi3+0x1c4>
   1ffac:	e8d5eae3          	bltu	a1,a3,1fe40 <__umoddi3+0x150>
   1ffb0:	000107b7          	lui	a5,0x10
   1ffb4:	04f6fc63          	bgeu	a3,a5,2000c <__umoddi3+0x31c>
   1ffb8:	0ff00a93          	li	s5,255
   1ffbc:	00dab533          	sltu	a0,s5,a3
   1ffc0:	00351513          	slli	a0,a0,0x3
   1ffc4:	00a6d733          	srl	a4,a3,a0
   1ffc8:	00005797          	auipc	a5,0x5
   1ffcc:	24478793          	addi	a5,a5,580 # 2520c <__clz_tab>
   1ffd0:	00e787b3          	add	a5,a5,a4
   1ffd4:	0007ca83          	lbu	s5,0(a5)
   1ffd8:	02000593          	li	a1,32
   1ffdc:	00aa8ab3          	add	s5,s5,a0
   1ffe0:	41558a33          	sub	s4,a1,s5
   1ffe4:	020a1e63          	bnez	s4,20020 <__umoddi3+0x330>
   1ffe8:	0136e463          	bltu	a3,s3,1fff0 <__umoddi3+0x300>
   1ffec:	00cb6a63          	bltu	s6,a2,20000 <__umoddi3+0x310>
   1fff0:	40cb0433          	sub	s0,s6,a2
   1fff4:	40d986b3          	sub	a3,s3,a3
   1fff8:	008b3b33          	sltu	s6,s6,s0
   1fffc:	416684b3          	sub	s1,a3,s6
   20000:	00040513          	mv	a0,s0
   20004:	00048593          	mv	a1,s1
   20008:	e39ff06f          	j	1fe40 <__umoddi3+0x150>
   2000c:	010007b7          	lui	a5,0x1000
   20010:	01000513          	li	a0,16
   20014:	faf6e8e3          	bltu	a3,a5,1ffc4 <__umoddi3+0x2d4>
   20018:	01800513          	li	a0,24
   2001c:	fa9ff06f          	j	1ffc4 <__umoddi3+0x2d4>
   20020:	014696b3          	sll	a3,a3,s4
   20024:	015657b3          	srl	a5,a2,s5
   20028:	00d7ebb3          	or	s7,a5,a3
   2002c:	0159d433          	srl	s0,s3,s5
   20030:	014995b3          	sll	a1,s3,s4
   20034:	015b54b3          	srl	s1,s6,s5
   20038:	010bdc13          	srli	s8,s7,0x10
   2003c:	00b4e4b3          	or	s1,s1,a1
   20040:	00040513          	mv	a0,s0
   20044:	000c0593          	mv	a1,s8
   20048:	01461d33          	sll	s10,a2,s4
   2004c:	4bc040ef          	jal	ra,24508 <__umodsi3>
   20050:	00050993          	mv	s3,a0
   20054:	000c0593          	mv	a1,s8
   20058:	00040513          	mv	a0,s0
   2005c:	010b9c93          	slli	s9,s7,0x10
   20060:	460040ef          	jal	ra,244c0 <__udivsi3>
   20064:	010cdc93          	srli	s9,s9,0x10
   20068:	00050413          	mv	s0,a0
   2006c:	00050593          	mv	a1,a0
   20070:	000c8513          	mv	a0,s9
   20074:	420040ef          	jal	ra,24494 <__mulsi3>
   20078:	01099993          	slli	s3,s3,0x10
   2007c:	0104d713          	srli	a4,s1,0x10
   20080:	00e9e733          	or	a4,s3,a4
   20084:	014b1b33          	sll	s6,s6,s4
   20088:	00040993          	mv	s3,s0
   2008c:	00a77e63          	bgeu	a4,a0,200a8 <__umoddi3+0x3b8>
   20090:	01770733          	add	a4,a4,s7
   20094:	fff40993          	addi	s3,s0,-1
   20098:	01776863          	bltu	a4,s7,200a8 <__umoddi3+0x3b8>
   2009c:	00a77663          	bgeu	a4,a0,200a8 <__umoddi3+0x3b8>
   200a0:	ffe40993          	addi	s3,s0,-2
   200a4:	01770733          	add	a4,a4,s7
   200a8:	40a70933          	sub	s2,a4,a0
   200ac:	000c0593          	mv	a1,s8
   200b0:	00090513          	mv	a0,s2
   200b4:	454040ef          	jal	ra,24508 <__umodsi3>
   200b8:	00050413          	mv	s0,a0
   200bc:	000c0593          	mv	a1,s8
   200c0:	00090513          	mv	a0,s2
   200c4:	3fc040ef          	jal	ra,244c0 <__udivsi3>
   200c8:	00050593          	mv	a1,a0
   200cc:	00050913          	mv	s2,a0
   200d0:	000c8513          	mv	a0,s9
   200d4:	3c0040ef          	jal	ra,24494 <__mulsi3>
   200d8:	01049593          	slli	a1,s1,0x10
   200dc:	01041413          	slli	s0,s0,0x10
   200e0:	0105d593          	srli	a1,a1,0x10
   200e4:	00b465b3          	or	a1,s0,a1
   200e8:	00090793          	mv	a5,s2
   200ec:	00a5fe63          	bgeu	a1,a0,20108 <__umoddi3+0x418>
   200f0:	017585b3          	add	a1,a1,s7
   200f4:	fff90793          	addi	a5,s2,-1
   200f8:	0175e863          	bltu	a1,s7,20108 <__umoddi3+0x418>
   200fc:	00a5f663          	bgeu	a1,a0,20108 <__umoddi3+0x418>
   20100:	ffe90793          	addi	a5,s2,-2
   20104:	017585b3          	add	a1,a1,s7
   20108:	00010e37          	lui	t3,0x10
   2010c:	01099993          	slli	s3,s3,0x10
   20110:	00f9e9b3          	or	s3,s3,a5
   20114:	fffe0813          	addi	a6,t3,-1 # ffff <_start-0x1>
   20118:	0109f733          	and	a4,s3,a6
   2011c:	010d7833          	and	a6,s10,a6
   20120:	40a584b3          	sub	s1,a1,a0
   20124:	0109d993          	srli	s3,s3,0x10
   20128:	010d5893          	srli	a7,s10,0x10
   2012c:	00070513          	mv	a0,a4
   20130:	00080593          	mv	a1,a6
   20134:	360040ef          	jal	ra,24494 <__mulsi3>
   20138:	00050793          	mv	a5,a0
   2013c:	00088593          	mv	a1,a7
   20140:	00070513          	mv	a0,a4
   20144:	350040ef          	jal	ra,24494 <__mulsi3>
   20148:	00050313          	mv	t1,a0
   2014c:	00080593          	mv	a1,a6
   20150:	00098513          	mv	a0,s3
   20154:	340040ef          	jal	ra,24494 <__mulsi3>
   20158:	00050813          	mv	a6,a0
   2015c:	00088593          	mv	a1,a7
   20160:	00098513          	mv	a0,s3
   20164:	330040ef          	jal	ra,24494 <__mulsi3>
   20168:	0107d713          	srli	a4,a5,0x10
   2016c:	01030333          	add	t1,t1,a6
   20170:	00670733          	add	a4,a4,t1
   20174:	01077463          	bgeu	a4,a6,2017c <__umoddi3+0x48c>
   20178:	01c50533          	add	a0,a0,t3
   2017c:	000106b7          	lui	a3,0x10
   20180:	fff68693          	addi	a3,a3,-1 # ffff <_start-0x1>
   20184:	01075593          	srli	a1,a4,0x10
   20188:	00d77733          	and	a4,a4,a3
   2018c:	01071713          	slli	a4,a4,0x10
   20190:	00d7f7b3          	and	a5,a5,a3
   20194:	00a585b3          	add	a1,a1,a0
   20198:	00f707b3          	add	a5,a4,a5
   2019c:	00b4e663          	bltu	s1,a1,201a8 <__umoddi3+0x4b8>
   201a0:	00b49e63          	bne	s1,a1,201bc <__umoddi3+0x4cc>
   201a4:	00fb7c63          	bgeu	s6,a5,201bc <__umoddi3+0x4cc>
   201a8:	41a78633          	sub	a2,a5,s10
   201ac:	00c7b7b3          	sltu	a5,a5,a2
   201b0:	017787b3          	add	a5,a5,s7
   201b4:	40f585b3          	sub	a1,a1,a5
   201b8:	00060793          	mv	a5,a2
   201bc:	40fb07b3          	sub	a5,s6,a5
   201c0:	00fb3b33          	sltu	s6,s6,a5
   201c4:	40b485b3          	sub	a1,s1,a1
   201c8:	416585b3          	sub	a1,a1,s6
   201cc:	01559433          	sll	s0,a1,s5
   201d0:	0147d7b3          	srl	a5,a5,s4
   201d4:	00f46533          	or	a0,s0,a5
   201d8:	0145d5b3          	srl	a1,a1,s4
   201dc:	c65ff06f          	j	1fe40 <__umoddi3+0x150>

000201e0 <__divdf3>:
   201e0:	fb010113          	addi	sp,sp,-80
   201e4:	03312e23          	sw	s3,60(sp)
   201e8:	0145d993          	srli	s3,a1,0x14
   201ec:	04912223          	sw	s1,68(sp)
   201f0:	05212023          	sw	s2,64(sp)
   201f4:	03512a23          	sw	s5,52(sp)
   201f8:	03612823          	sw	s6,48(sp)
   201fc:	03712623          	sw	s7,44(sp)
   20200:	00c59493          	slli	s1,a1,0xc
   20204:	04112623          	sw	ra,76(sp)
   20208:	04812423          	sw	s0,72(sp)
   2020c:	03412c23          	sw	s4,56(sp)
   20210:	03812423          	sw	s8,40(sp)
   20214:	03912223          	sw	s9,36(sp)
   20218:	03a12023          	sw	s10,32(sp)
   2021c:	01b12e23          	sw	s11,28(sp)
   20220:	7ff9f993          	andi	s3,s3,2047
   20224:	00050913          	mv	s2,a0
   20228:	00060b93          	mv	s7,a2
   2022c:	00068b13          	mv	s6,a3
   20230:	00c4d493          	srli	s1,s1,0xc
   20234:	01f5da93          	srli	s5,a1,0x1f
   20238:	0a098263          	beqz	s3,202dc <__divdf3+0xfc>
   2023c:	7ff00793          	li	a5,2047
   20240:	10f98063          	beq	s3,a5,20340 <__divdf3+0x160>
   20244:	01d55c93          	srli	s9,a0,0x1d
   20248:	00349493          	slli	s1,s1,0x3
   2024c:	009ce4b3          	or	s1,s9,s1
   20250:	00800cb7          	lui	s9,0x800
   20254:	0194ecb3          	or	s9,s1,s9
   20258:	00351413          	slli	s0,a0,0x3
   2025c:	c0198a13          	addi	s4,s3,-1023
   20260:	00000c13          	li	s8,0
   20264:	014b5513          	srli	a0,s6,0x14
   20268:	00cb1913          	slli	s2,s6,0xc
   2026c:	7ff57993          	andi	s3,a0,2047
   20270:	00c95913          	srli	s2,s2,0xc
   20274:	01fb5b13          	srli	s6,s6,0x1f
   20278:	10098263          	beqz	s3,2037c <__divdf3+0x19c>
   2027c:	7ff00793          	li	a5,2047
   20280:	16f98263          	beq	s3,a5,203e4 <__divdf3+0x204>
   20284:	00391513          	slli	a0,s2,0x3
   20288:	01dbd793          	srli	a5,s7,0x1d
   2028c:	00a7e533          	or	a0,a5,a0
   20290:	00800937          	lui	s2,0x800
   20294:	01256933          	or	s2,a0,s2
   20298:	003b9813          	slli	a6,s7,0x3
   2029c:	c0198513          	addi	a0,s3,-1023
   202a0:	00000793          	li	a5,0
   202a4:	002c1713          	slli	a4,s8,0x2
   202a8:	00f76733          	or	a4,a4,a5
   202ac:	fff70713          	addi	a4,a4,-1
   202b0:	00e00693          	li	a3,14
   202b4:	016ac4b3          	xor	s1,s5,s6
   202b8:	40aa09b3          	sub	s3,s4,a0
   202bc:	16e6e063          	bltu	a3,a4,2041c <__divdf3+0x23c>
   202c0:	00005697          	auipc	a3,0x5
   202c4:	e9868693          	addi	a3,a3,-360 # 25158 <zeroes.4467+0x10>
   202c8:	00271713          	slli	a4,a4,0x2
   202cc:	00d70733          	add	a4,a4,a3
   202d0:	00072703          	lw	a4,0(a4)
   202d4:	00d70733          	add	a4,a4,a3
   202d8:	00070067          	jr	a4
   202dc:	00a4ecb3          	or	s9,s1,a0
   202e0:	060c8e63          	beqz	s9,2035c <__divdf3+0x17c>
   202e4:	04048063          	beqz	s1,20324 <__divdf3+0x144>
   202e8:	00048513          	mv	a0,s1
   202ec:	280040ef          	jal	ra,2456c <__clzsi2>
   202f0:	ff550793          	addi	a5,a0,-11
   202f4:	01c00713          	li	a4,28
   202f8:	02f74c63          	blt	a4,a5,20330 <__divdf3+0x150>
   202fc:	01d00c93          	li	s9,29
   20300:	ff850413          	addi	s0,a0,-8
   20304:	40fc8cb3          	sub	s9,s9,a5
   20308:	008494b3          	sll	s1,s1,s0
   2030c:	01995cb3          	srl	s9,s2,s9
   20310:	009cecb3          	or	s9,s9,s1
   20314:	00891433          	sll	s0,s2,s0
   20318:	c0d00993          	li	s3,-1011
   2031c:	40a98a33          	sub	s4,s3,a0
   20320:	f41ff06f          	j	20260 <__divdf3+0x80>
   20324:	248040ef          	jal	ra,2456c <__clzsi2>
   20328:	02050513          	addi	a0,a0,32
   2032c:	fc5ff06f          	j	202f0 <__divdf3+0x110>
   20330:	fd850493          	addi	s1,a0,-40
   20334:	00991cb3          	sll	s9,s2,s1
   20338:	00000413          	li	s0,0
   2033c:	fddff06f          	j	20318 <__divdf3+0x138>
   20340:	00a4ecb3          	or	s9,s1,a0
   20344:	020c8463          	beqz	s9,2036c <__divdf3+0x18c>
   20348:	00050413          	mv	s0,a0
   2034c:	00048c93          	mv	s9,s1
   20350:	7ff00a13          	li	s4,2047
   20354:	00300c13          	li	s8,3
   20358:	f0dff06f          	j	20264 <__divdf3+0x84>
   2035c:	00000413          	li	s0,0
   20360:	00000a13          	li	s4,0
   20364:	00100c13          	li	s8,1
   20368:	efdff06f          	j	20264 <__divdf3+0x84>
   2036c:	00000413          	li	s0,0
   20370:	7ff00a13          	li	s4,2047
   20374:	00200c13          	li	s8,2
   20378:	eedff06f          	j	20264 <__divdf3+0x84>
   2037c:	01796833          	or	a6,s2,s7
   20380:	06080e63          	beqz	a6,203fc <__divdf3+0x21c>
   20384:	04090063          	beqz	s2,203c4 <__divdf3+0x1e4>
   20388:	00090513          	mv	a0,s2
   2038c:	1e0040ef          	jal	ra,2456c <__clzsi2>
   20390:	ff550793          	addi	a5,a0,-11
   20394:	01c00713          	li	a4,28
   20398:	02f74e63          	blt	a4,a5,203d4 <__divdf3+0x1f4>
   2039c:	01d00713          	li	a4,29
   203a0:	ff850813          	addi	a6,a0,-8
   203a4:	40f70733          	sub	a4,a4,a5
   203a8:	01091933          	sll	s2,s2,a6
   203ac:	00ebd733          	srl	a4,s7,a4
   203b0:	01276933          	or	s2,a4,s2
   203b4:	010b9833          	sll	a6,s7,a6
   203b8:	c0d00713          	li	a4,-1011
   203bc:	40a70533          	sub	a0,a4,a0
   203c0:	ee1ff06f          	j	202a0 <__divdf3+0xc0>
   203c4:	000b8513          	mv	a0,s7
   203c8:	1a4040ef          	jal	ra,2456c <__clzsi2>
   203cc:	02050513          	addi	a0,a0,32
   203d0:	fc1ff06f          	j	20390 <__divdf3+0x1b0>
   203d4:	fd850913          	addi	s2,a0,-40
   203d8:	012b9933          	sll	s2,s7,s2
   203dc:	00000813          	li	a6,0
   203e0:	fd9ff06f          	j	203b8 <__divdf3+0x1d8>
   203e4:	01796833          	or	a6,s2,s7
   203e8:	02080263          	beqz	a6,2040c <__divdf3+0x22c>
   203ec:	000b8813          	mv	a6,s7
   203f0:	7ff00513          	li	a0,2047
   203f4:	00300793          	li	a5,3
   203f8:	eadff06f          	j	202a4 <__divdf3+0xc4>
   203fc:	00000913          	li	s2,0
   20400:	00000513          	li	a0,0
   20404:	00100793          	li	a5,1
   20408:	e9dff06f          	j	202a4 <__divdf3+0xc4>
   2040c:	00000913          	li	s2,0
   20410:	7ff00513          	li	a0,2047
   20414:	00200793          	li	a5,2
   20418:	e8dff06f          	j	202a4 <__divdf3+0xc4>
   2041c:	01996663          	bltu	s2,s9,20428 <__divdf3+0x248>
   20420:	452c9263          	bne	s9,s2,20864 <__divdf3+0x684>
   20424:	45046063          	bltu	s0,a6,20864 <__divdf3+0x684>
   20428:	01fc9713          	slli	a4,s9,0x1f
   2042c:	00145793          	srli	a5,s0,0x1
   20430:	01f41d93          	slli	s11,s0,0x1f
   20434:	001cdc93          	srli	s9,s9,0x1
   20438:	00f76433          	or	s0,a4,a5
   2043c:	01885b93          	srli	s7,a6,0x18
   20440:	00891513          	slli	a0,s2,0x8
   20444:	00abebb3          	or	s7,s7,a0
   20448:	010bda93          	srli	s5,s7,0x10
   2044c:	000a8593          	mv	a1,s5
   20450:	010b9b13          	slli	s6,s7,0x10
   20454:	000c8513          	mv	a0,s9
   20458:	00881c13          	slli	s8,a6,0x8
   2045c:	010b5b13          	srli	s6,s6,0x10
   20460:	060040ef          	jal	ra,244c0 <__udivsi3>
   20464:	00050593          	mv	a1,a0
   20468:	00050d13          	mv	s10,a0
   2046c:	000b0513          	mv	a0,s6
   20470:	024040ef          	jal	ra,24494 <__mulsi3>
   20474:	00050913          	mv	s2,a0
   20478:	000a8593          	mv	a1,s5
   2047c:	000c8513          	mv	a0,s9
   20480:	088040ef          	jal	ra,24508 <__umodsi3>
   20484:	01051513          	slli	a0,a0,0x10
   20488:	01045793          	srli	a5,s0,0x10
   2048c:	00a7e533          	or	a0,a5,a0
   20490:	000d0a13          	mv	s4,s10
   20494:	01257e63          	bgeu	a0,s2,204b0 <__divdf3+0x2d0>
   20498:	01750533          	add	a0,a0,s7
   2049c:	fffd0a13          	addi	s4,s10,-1
   204a0:	01756863          	bltu	a0,s7,204b0 <__divdf3+0x2d0>
   204a4:	01257663          	bgeu	a0,s2,204b0 <__divdf3+0x2d0>
   204a8:	ffed0a13          	addi	s4,s10,-2
   204ac:	01750533          	add	a0,a0,s7
   204b0:	41250933          	sub	s2,a0,s2
   204b4:	000a8593          	mv	a1,s5
   204b8:	00090513          	mv	a0,s2
   204bc:	004040ef          	jal	ra,244c0 <__udivsi3>
   204c0:	00050593          	mv	a1,a0
   204c4:	00050d13          	mv	s10,a0
   204c8:	000b0513          	mv	a0,s6
   204cc:	7c9030ef          	jal	ra,24494 <__mulsi3>
   204d0:	00050c93          	mv	s9,a0
   204d4:	000a8593          	mv	a1,s5
   204d8:	00090513          	mv	a0,s2
   204dc:	02c040ef          	jal	ra,24508 <__umodsi3>
   204e0:	01041413          	slli	s0,s0,0x10
   204e4:	01051513          	slli	a0,a0,0x10
   204e8:	01045413          	srli	s0,s0,0x10
   204ec:	00a46433          	or	s0,s0,a0
   204f0:	000d0713          	mv	a4,s10
   204f4:	01947e63          	bgeu	s0,s9,20510 <__divdf3+0x330>
   204f8:	01740433          	add	s0,s0,s7
   204fc:	fffd0713          	addi	a4,s10,-1
   20500:	01746863          	bltu	s0,s7,20510 <__divdf3+0x330>
   20504:	01947663          	bgeu	s0,s9,20510 <__divdf3+0x330>
   20508:	ffed0713          	addi	a4,s10,-2
   2050c:	01740433          	add	s0,s0,s7
   20510:	010a1793          	slli	a5,s4,0x10
   20514:	00010e37          	lui	t3,0x10
   20518:	00e7e7b3          	or	a5,a5,a4
   2051c:	41940833          	sub	a6,s0,s9
   20520:	fffe0c93          	addi	s9,t3,-1 # ffff <_start-0x1>
   20524:	0197f333          	and	t1,a5,s9
   20528:	019c7cb3          	and	s9,s8,s9
   2052c:	0107d713          	srli	a4,a5,0x10
   20530:	010c5d13          	srli	s10,s8,0x10
   20534:	00030513          	mv	a0,t1
   20538:	000c8593          	mv	a1,s9
   2053c:	759030ef          	jal	ra,24494 <__mulsi3>
   20540:	00050893          	mv	a7,a0
   20544:	000d0593          	mv	a1,s10
   20548:	00030513          	mv	a0,t1
   2054c:	749030ef          	jal	ra,24494 <__mulsi3>
   20550:	00050313          	mv	t1,a0
   20554:	000c8593          	mv	a1,s9
   20558:	00070513          	mv	a0,a4
   2055c:	739030ef          	jal	ra,24494 <__mulsi3>
   20560:	00050e93          	mv	t4,a0
   20564:	000d0593          	mv	a1,s10
   20568:	00070513          	mv	a0,a4
   2056c:	729030ef          	jal	ra,24494 <__mulsi3>
   20570:	0108d713          	srli	a4,a7,0x10
   20574:	01d30333          	add	t1,t1,t4
   20578:	00670733          	add	a4,a4,t1
   2057c:	01d77463          	bgeu	a4,t4,20584 <__divdf3+0x3a4>
   20580:	01c50533          	add	a0,a0,t3
   20584:	01075413          	srli	s0,a4,0x10
   20588:	00a40433          	add	s0,s0,a0
   2058c:	00010537          	lui	a0,0x10
   20590:	fff50513          	addi	a0,a0,-1 # ffff <_start-0x1>
   20594:	00a77a33          	and	s4,a4,a0
   20598:	010a1a13          	slli	s4,s4,0x10
   2059c:	00a8f8b3          	and	a7,a7,a0
   205a0:	011a0a33          	add	s4,s4,a7
   205a4:	00886863          	bltu	a6,s0,205b4 <__divdf3+0x3d4>
   205a8:	00078913          	mv	s2,a5
   205ac:	04881463          	bne	a6,s0,205f4 <__divdf3+0x414>
   205b0:	054df263          	bgeu	s11,s4,205f4 <__divdf3+0x414>
   205b4:	018d8db3          	add	s11,s11,s8
   205b8:	018db733          	sltu	a4,s11,s8
   205bc:	01770733          	add	a4,a4,s7
   205c0:	00e80833          	add	a6,a6,a4
   205c4:	fff78913          	addi	s2,a5,-1 # ffffff <__global_pointer$+0xfd8a8f>
   205c8:	010be663          	bltu	s7,a6,205d4 <__divdf3+0x3f4>
   205cc:	030b9463          	bne	s7,a6,205f4 <__divdf3+0x414>
   205d0:	038de263          	bltu	s11,s8,205f4 <__divdf3+0x414>
   205d4:	00886663          	bltu	a6,s0,205e0 <__divdf3+0x400>
   205d8:	01041e63          	bne	s0,a6,205f4 <__divdf3+0x414>
   205dc:	014dfc63          	bgeu	s11,s4,205f4 <__divdf3+0x414>
   205e0:	018d8db3          	add	s11,s11,s8
   205e4:	ffe78913          	addi	s2,a5,-2
   205e8:	018db7b3          	sltu	a5,s11,s8
   205ec:	017787b3          	add	a5,a5,s7
   205f0:	00f80833          	add	a6,a6,a5
   205f4:	414d8a33          	sub	s4,s11,s4
   205f8:	40880433          	sub	s0,a6,s0
   205fc:	014db7b3          	sltu	a5,s11,s4
   20600:	40f40433          	sub	s0,s0,a5
   20604:	fff00813          	li	a6,-1
   20608:	1a8b8063          	beq	s7,s0,207a8 <__divdf3+0x5c8>
   2060c:	000a8593          	mv	a1,s5
   20610:	00040513          	mv	a0,s0
   20614:	6ad030ef          	jal	ra,244c0 <__udivsi3>
   20618:	00050593          	mv	a1,a0
   2061c:	00a12623          	sw	a0,12(sp)
   20620:	000b0513          	mv	a0,s6
   20624:	671030ef          	jal	ra,24494 <__mulsi3>
   20628:	00a12423          	sw	a0,8(sp)
   2062c:	000a8593          	mv	a1,s5
   20630:	00040513          	mv	a0,s0
   20634:	6d5030ef          	jal	ra,24508 <__umodsi3>
   20638:	00c12683          	lw	a3,12(sp)
   2063c:	00812703          	lw	a4,8(sp)
   20640:	01051513          	slli	a0,a0,0x10
   20644:	010a5793          	srli	a5,s4,0x10
   20648:	00a7e533          	or	a0,a5,a0
   2064c:	00068d93          	mv	s11,a3
   20650:	00e57e63          	bgeu	a0,a4,2066c <__divdf3+0x48c>
   20654:	01750533          	add	a0,a0,s7
   20658:	fff68d93          	addi	s11,a3,-1
   2065c:	01756863          	bltu	a0,s7,2066c <__divdf3+0x48c>
   20660:	00e57663          	bgeu	a0,a4,2066c <__divdf3+0x48c>
   20664:	ffe68d93          	addi	s11,a3,-2
   20668:	01750533          	add	a0,a0,s7
   2066c:	40e50433          	sub	s0,a0,a4
   20670:	000a8593          	mv	a1,s5
   20674:	00040513          	mv	a0,s0
   20678:	649030ef          	jal	ra,244c0 <__udivsi3>
   2067c:	00050593          	mv	a1,a0
   20680:	00a12423          	sw	a0,8(sp)
   20684:	000b0513          	mv	a0,s6
   20688:	60d030ef          	jal	ra,24494 <__mulsi3>
   2068c:	00050b13          	mv	s6,a0
   20690:	000a8593          	mv	a1,s5
   20694:	00040513          	mv	a0,s0
   20698:	671030ef          	jal	ra,24508 <__umodsi3>
   2069c:	010a1a13          	slli	s4,s4,0x10
   206a0:	00812703          	lw	a4,8(sp)
   206a4:	01051513          	slli	a0,a0,0x10
   206a8:	010a5a13          	srli	s4,s4,0x10
   206ac:	00aa6533          	or	a0,s4,a0
   206b0:	00070793          	mv	a5,a4
   206b4:	01657e63          	bgeu	a0,s6,206d0 <__divdf3+0x4f0>
   206b8:	01750533          	add	a0,a0,s7
   206bc:	fff70793          	addi	a5,a4,-1
   206c0:	01756863          	bltu	a0,s7,206d0 <__divdf3+0x4f0>
   206c4:	01657663          	bgeu	a0,s6,206d0 <__divdf3+0x4f0>
   206c8:	ffe70793          	addi	a5,a4,-2
   206cc:	01750533          	add	a0,a0,s7
   206d0:	010d9893          	slli	a7,s11,0x10
   206d4:	00f8e8b3          	or	a7,a7,a5
   206d8:	01089713          	slli	a4,a7,0x10
   206dc:	01075713          	srli	a4,a4,0x10
   206e0:	41650333          	sub	t1,a0,s6
   206e4:	0108d793          	srli	a5,a7,0x10
   206e8:	00070513          	mv	a0,a4
   206ec:	000c8593          	mv	a1,s9
   206f0:	5a5030ef          	jal	ra,24494 <__mulsi3>
   206f4:	00050813          	mv	a6,a0
   206f8:	000d0593          	mv	a1,s10
   206fc:	00070513          	mv	a0,a4
   20700:	595030ef          	jal	ra,24494 <__mulsi3>
   20704:	00050713          	mv	a4,a0
   20708:	000c8593          	mv	a1,s9
   2070c:	00078513          	mv	a0,a5
   20710:	585030ef          	jal	ra,24494 <__mulsi3>
   20714:	00050e13          	mv	t3,a0
   20718:	000d0593          	mv	a1,s10
   2071c:	00078513          	mv	a0,a5
   20720:	575030ef          	jal	ra,24494 <__mulsi3>
   20724:	01085793          	srli	a5,a6,0x10
   20728:	01c70733          	add	a4,a4,t3
   2072c:	00e787b3          	add	a5,a5,a4
   20730:	01c7f663          	bgeu	a5,t3,2073c <__divdf3+0x55c>
   20734:	00010737          	lui	a4,0x10
   20738:	00e50533          	add	a0,a0,a4
   2073c:	00010637          	lui	a2,0x10
   20740:	fff60613          	addi	a2,a2,-1 # ffff <_start-0x1>
   20744:	0107d693          	srli	a3,a5,0x10
   20748:	00c7f733          	and	a4,a5,a2
   2074c:	01071713          	slli	a4,a4,0x10
   20750:	00c87833          	and	a6,a6,a2
   20754:	00a686b3          	add	a3,a3,a0
   20758:	01070733          	add	a4,a4,a6
   2075c:	00d36863          	bltu	t1,a3,2076c <__divdf3+0x58c>
   20760:	24d31463          	bne	t1,a3,209a8 <__divdf3+0x7c8>
   20764:	00088813          	mv	a6,a7
   20768:	04070063          	beqz	a4,207a8 <__divdf3+0x5c8>
   2076c:	006b8533          	add	a0,s7,t1
   20770:	fff88813          	addi	a6,a7,-1
   20774:	03756463          	bltu	a0,s7,2079c <__divdf3+0x5bc>
   20778:	00d56663          	bltu	a0,a3,20784 <__divdf3+0x5a4>
   2077c:	22d51463          	bne	a0,a3,209a4 <__divdf3+0x7c4>
   20780:	02ec7063          	bgeu	s8,a4,207a0 <__divdf3+0x5c0>
   20784:	001c1793          	slli	a5,s8,0x1
   20788:	0187bc33          	sltu	s8,a5,s8
   2078c:	017c0bb3          	add	s7,s8,s7
   20790:	ffe88813          	addi	a6,a7,-2
   20794:	01750533          	add	a0,a0,s7
   20798:	00078c13          	mv	s8,a5
   2079c:	00d51463          	bne	a0,a3,207a4 <__divdf3+0x5c4>
   207a0:	00ec0463          	beq	s8,a4,207a8 <__divdf3+0x5c8>
   207a4:	00186813          	ori	a6,a6,1
   207a8:	3ff98713          	addi	a4,s3,1023
   207ac:	10e05a63          	blez	a4,208c0 <__divdf3+0x6e0>
   207b0:	00787793          	andi	a5,a6,7
   207b4:	02078063          	beqz	a5,207d4 <__divdf3+0x5f4>
   207b8:	00f87793          	andi	a5,a6,15
   207bc:	00400693          	li	a3,4
   207c0:	00d78a63          	beq	a5,a3,207d4 <__divdf3+0x5f4>
   207c4:	00480693          	addi	a3,a6,4
   207c8:	0106b833          	sltu	a6,a3,a6
   207cc:	01090933          	add	s2,s2,a6
   207d0:	00068813          	mv	a6,a3
   207d4:	00791793          	slli	a5,s2,0x7
   207d8:	0007da63          	bgez	a5,207ec <__divdf3+0x60c>
   207dc:	ff0007b7          	lui	a5,0xff000
   207e0:	fff78793          	addi	a5,a5,-1 # feffffff <__global_pointer$+0xfefd8a8f>
   207e4:	00f97933          	and	s2,s2,a5
   207e8:	40098713          	addi	a4,s3,1024
   207ec:	7fe00793          	li	a5,2046
   207f0:	18e7ca63          	blt	a5,a4,20984 <__divdf3+0x7a4>
   207f4:	00385813          	srli	a6,a6,0x3
   207f8:	01d91793          	slli	a5,s2,0x1d
   207fc:	0107e7b3          	or	a5,a5,a6
   20800:	00395513          	srli	a0,s2,0x3
   20804:	00c51513          	slli	a0,a0,0xc
   20808:	7ff77713          	andi	a4,a4,2047
   2080c:	01471713          	slli	a4,a4,0x14
   20810:	04c12083          	lw	ra,76(sp)
   20814:	04812403          	lw	s0,72(sp)
   20818:	00c55513          	srli	a0,a0,0xc
   2081c:	01f49493          	slli	s1,s1,0x1f
   20820:	00e56533          	or	a0,a0,a4
   20824:	00956733          	or	a4,a0,s1
   20828:	04012903          	lw	s2,64(sp)
   2082c:	04412483          	lw	s1,68(sp)
   20830:	03c12983          	lw	s3,60(sp)
   20834:	03812a03          	lw	s4,56(sp)
   20838:	03412a83          	lw	s5,52(sp)
   2083c:	03012b03          	lw	s6,48(sp)
   20840:	02c12b83          	lw	s7,44(sp)
   20844:	02812c03          	lw	s8,40(sp)
   20848:	02412c83          	lw	s9,36(sp)
   2084c:	02012d03          	lw	s10,32(sp)
   20850:	01c12d83          	lw	s11,28(sp)
   20854:	00078513          	mv	a0,a5
   20858:	00070593          	mv	a1,a4
   2085c:	05010113          	addi	sp,sp,80
   20860:	00008067          	ret
   20864:	fff98993          	addi	s3,s3,-1
   20868:	00000d93          	li	s11,0
   2086c:	bd1ff06f          	j	2043c <__divdf3+0x25c>
   20870:	000a8493          	mv	s1,s5
   20874:	000c8913          	mv	s2,s9
   20878:	00040813          	mv	a6,s0
   2087c:	000c0793          	mv	a5,s8
   20880:	00200713          	li	a4,2
   20884:	10e78063          	beq	a5,a4,20984 <__divdf3+0x7a4>
   20888:	00300713          	li	a4,3
   2088c:	0ee78263          	beq	a5,a4,20970 <__divdf3+0x790>
   20890:	00100713          	li	a4,1
   20894:	f0e79ae3          	bne	a5,a4,207a8 <__divdf3+0x5c8>
   20898:	00000513          	li	a0,0
   2089c:	00000793          	li	a5,0
   208a0:	0940006f          	j	20934 <__divdf3+0x754>
   208a4:	000b0493          	mv	s1,s6
   208a8:	fd9ff06f          	j	20880 <__divdf3+0x6a0>
   208ac:	00080937          	lui	s2,0x80
   208b0:	00000813          	li	a6,0
   208b4:	00000493          	li	s1,0
   208b8:	00300793          	li	a5,3
   208bc:	fc5ff06f          	j	20880 <__divdf3+0x6a0>
   208c0:	00100513          	li	a0,1
   208c4:	40e50533          	sub	a0,a0,a4
   208c8:	03800793          	li	a5,56
   208cc:	fca7c6e3          	blt	a5,a0,20898 <__divdf3+0x6b8>
   208d0:	01f00793          	li	a5,31
   208d4:	06a7c463          	blt	a5,a0,2093c <__divdf3+0x75c>
   208d8:	41e98993          	addi	s3,s3,1054
   208dc:	013917b3          	sll	a5,s2,s3
   208e0:	00a85733          	srl	a4,a6,a0
   208e4:	013819b3          	sll	s3,a6,s3
   208e8:	00e7e7b3          	or	a5,a5,a4
   208ec:	013039b3          	snez	s3,s3
   208f0:	0137e7b3          	or	a5,a5,s3
   208f4:	00a95533          	srl	a0,s2,a0
   208f8:	0077f713          	andi	a4,a5,7
   208fc:	02070063          	beqz	a4,2091c <__divdf3+0x73c>
   20900:	00f7f713          	andi	a4,a5,15
   20904:	00400693          	li	a3,4
   20908:	00d70a63          	beq	a4,a3,2091c <__divdf3+0x73c>
   2090c:	00478713          	addi	a4,a5,4
   20910:	00f737b3          	sltu	a5,a4,a5
   20914:	00f50533          	add	a0,a0,a5
   20918:	00070793          	mv	a5,a4
   2091c:	00851713          	slli	a4,a0,0x8
   20920:	06074a63          	bltz	a4,20994 <__divdf3+0x7b4>
   20924:	01d51713          	slli	a4,a0,0x1d
   20928:	0037d793          	srli	a5,a5,0x3
   2092c:	00f767b3          	or	a5,a4,a5
   20930:	00355513          	srli	a0,a0,0x3
   20934:	00000713          	li	a4,0
   20938:	ecdff06f          	j	20804 <__divdf3+0x624>
   2093c:	fe100793          	li	a5,-31
   20940:	40e787b3          	sub	a5,a5,a4
   20944:	02000693          	li	a3,32
   20948:	00f957b3          	srl	a5,s2,a5
   2094c:	00000713          	li	a4,0
   20950:	00d50663          	beq	a0,a3,2095c <__divdf3+0x77c>
   20954:	43e98993          	addi	s3,s3,1086
   20958:	01391733          	sll	a4,s2,s3
   2095c:	01076833          	or	a6,a4,a6
   20960:	01003833          	snez	a6,a6
   20964:	0107e7b3          	or	a5,a5,a6
   20968:	00000513          	li	a0,0
   2096c:	f8dff06f          	j	208f8 <__divdf3+0x718>
   20970:	00080537          	lui	a0,0x80
   20974:	00000793          	li	a5,0
   20978:	7ff00713          	li	a4,2047
   2097c:	00000493          	li	s1,0
   20980:	e85ff06f          	j	20804 <__divdf3+0x624>
   20984:	00000513          	li	a0,0
   20988:	00000793          	li	a5,0
   2098c:	7ff00713          	li	a4,2047
   20990:	e75ff06f          	j	20804 <__divdf3+0x624>
   20994:	00000513          	li	a0,0
   20998:	00000793          	li	a5,0
   2099c:	00100713          	li	a4,1
   209a0:	e65ff06f          	j	20804 <__divdf3+0x624>
   209a4:	00080893          	mv	a7,a6
   209a8:	00088813          	mv	a6,a7
   209ac:	df9ff06f          	j	207a4 <__divdf3+0x5c4>

000209b0 <__muldf3>:
   209b0:	fd010113          	addi	sp,sp,-48
   209b4:	01312e23          	sw	s3,28(sp)
   209b8:	0145d993          	srli	s3,a1,0x14
   209bc:	02812423          	sw	s0,40(sp)
   209c0:	02912223          	sw	s1,36(sp)
   209c4:	01412c23          	sw	s4,24(sp)
   209c8:	01512a23          	sw	s5,20(sp)
   209cc:	01612823          	sw	s6,16(sp)
   209d0:	00c59493          	slli	s1,a1,0xc
   209d4:	02112623          	sw	ra,44(sp)
   209d8:	03212023          	sw	s2,32(sp)
   209dc:	01712623          	sw	s7,12(sp)
   209e0:	7ff9f993          	andi	s3,s3,2047
   209e4:	00050413          	mv	s0,a0
   209e8:	00060b13          	mv	s6,a2
   209ec:	00068a93          	mv	s5,a3
   209f0:	00c4d493          	srli	s1,s1,0xc
   209f4:	01f5da13          	srli	s4,a1,0x1f
   209f8:	0a098463          	beqz	s3,20aa0 <__muldf3+0xf0>
   209fc:	7ff00793          	li	a5,2047
   20a00:	10f98263          	beq	s3,a5,20b04 <__muldf3+0x154>
   20a04:	01d55793          	srli	a5,a0,0x1d
   20a08:	00349493          	slli	s1,s1,0x3
   20a0c:	0097e4b3          	or	s1,a5,s1
   20a10:	008007b7          	lui	a5,0x800
   20a14:	00f4e4b3          	or	s1,s1,a5
   20a18:	00351913          	slli	s2,a0,0x3
   20a1c:	c0198993          	addi	s3,s3,-1023
   20a20:	00000b93          	li	s7,0
   20a24:	014ad513          	srli	a0,s5,0x14
   20a28:	00ca9413          	slli	s0,s5,0xc
   20a2c:	7ff57513          	andi	a0,a0,2047
   20a30:	00c45413          	srli	s0,s0,0xc
   20a34:	01fada93          	srli	s5,s5,0x1f
   20a38:	10050263          	beqz	a0,20b3c <__muldf3+0x18c>
   20a3c:	7ff00793          	li	a5,2047
   20a40:	16f50263          	beq	a0,a5,20ba4 <__muldf3+0x1f4>
   20a44:	01db5793          	srli	a5,s6,0x1d
   20a48:	00341413          	slli	s0,s0,0x3
   20a4c:	0087e433          	or	s0,a5,s0
   20a50:	008007b7          	lui	a5,0x800
   20a54:	00f46433          	or	s0,s0,a5
   20a58:	c0150513          	addi	a0,a0,-1023 # 7fc01 <__global_pointer$+0x58691>
   20a5c:	003b1793          	slli	a5,s6,0x3
   20a60:	00000713          	li	a4,0
   20a64:	002b9693          	slli	a3,s7,0x2
   20a68:	00e6e6b3          	or	a3,a3,a4
   20a6c:	00a989b3          	add	s3,s3,a0
   20a70:	fff68693          	addi	a3,a3,-1
   20a74:	00e00613          	li	a2,14
   20a78:	015a4833          	xor	a6,s4,s5
   20a7c:	00198893          	addi	a7,s3,1
   20a80:	14d66e63          	bltu	a2,a3,20bdc <__muldf3+0x22c>
   20a84:	00004617          	auipc	a2,0x4
   20a88:	71060613          	addi	a2,a2,1808 # 25194 <zeroes.4467+0x4c>
   20a8c:	00269693          	slli	a3,a3,0x2
   20a90:	00c686b3          	add	a3,a3,a2
   20a94:	0006a683          	lw	a3,0(a3)
   20a98:	00c686b3          	add	a3,a3,a2
   20a9c:	00068067          	jr	a3
   20aa0:	00a4e933          	or	s2,s1,a0
   20aa4:	06090c63          	beqz	s2,20b1c <__muldf3+0x16c>
   20aa8:	04048063          	beqz	s1,20ae8 <__muldf3+0x138>
   20aac:	00048513          	mv	a0,s1
   20ab0:	2bd030ef          	jal	ra,2456c <__clzsi2>
   20ab4:	ff550713          	addi	a4,a0,-11
   20ab8:	01c00793          	li	a5,28
   20abc:	02e7cc63          	blt	a5,a4,20af4 <__muldf3+0x144>
   20ac0:	01d00793          	li	a5,29
   20ac4:	ff850913          	addi	s2,a0,-8
   20ac8:	40e787b3          	sub	a5,a5,a4
   20acc:	012494b3          	sll	s1,s1,s2
   20ad0:	00f457b3          	srl	a5,s0,a5
   20ad4:	0097e4b3          	or	s1,a5,s1
   20ad8:	01241933          	sll	s2,s0,s2
   20adc:	c0d00993          	li	s3,-1011
   20ae0:	40a989b3          	sub	s3,s3,a0
   20ae4:	f3dff06f          	j	20a20 <__muldf3+0x70>
   20ae8:	285030ef          	jal	ra,2456c <__clzsi2>
   20aec:	02050513          	addi	a0,a0,32
   20af0:	fc5ff06f          	j	20ab4 <__muldf3+0x104>
   20af4:	fd850493          	addi	s1,a0,-40
   20af8:	009414b3          	sll	s1,s0,s1
   20afc:	00000913          	li	s2,0
   20b00:	fddff06f          	j	20adc <__muldf3+0x12c>
   20b04:	00a4e933          	or	s2,s1,a0
   20b08:	02090263          	beqz	s2,20b2c <__muldf3+0x17c>
   20b0c:	00050913          	mv	s2,a0
   20b10:	7ff00993          	li	s3,2047
   20b14:	00300b93          	li	s7,3
   20b18:	f0dff06f          	j	20a24 <__muldf3+0x74>
   20b1c:	00000493          	li	s1,0
   20b20:	00000993          	li	s3,0
   20b24:	00100b93          	li	s7,1
   20b28:	efdff06f          	j	20a24 <__muldf3+0x74>
   20b2c:	00000493          	li	s1,0
   20b30:	7ff00993          	li	s3,2047
   20b34:	00200b93          	li	s7,2
   20b38:	eedff06f          	j	20a24 <__muldf3+0x74>
   20b3c:	016467b3          	or	a5,s0,s6
   20b40:	06078e63          	beqz	a5,20bbc <__muldf3+0x20c>
   20b44:	04040063          	beqz	s0,20b84 <__muldf3+0x1d4>
   20b48:	00040513          	mv	a0,s0
   20b4c:	221030ef          	jal	ra,2456c <__clzsi2>
   20b50:	ff550693          	addi	a3,a0,-11
   20b54:	01c00793          	li	a5,28
   20b58:	02d7ce63          	blt	a5,a3,20b94 <__muldf3+0x1e4>
   20b5c:	01d00713          	li	a4,29
   20b60:	ff850793          	addi	a5,a0,-8
   20b64:	40d70733          	sub	a4,a4,a3
   20b68:	00f41433          	sll	s0,s0,a5
   20b6c:	00eb5733          	srl	a4,s6,a4
   20b70:	00876433          	or	s0,a4,s0
   20b74:	00fb17b3          	sll	a5,s6,a5
   20b78:	c0d00713          	li	a4,-1011
   20b7c:	40a70533          	sub	a0,a4,a0
   20b80:	ee1ff06f          	j	20a60 <__muldf3+0xb0>
   20b84:	000b0513          	mv	a0,s6
   20b88:	1e5030ef          	jal	ra,2456c <__clzsi2>
   20b8c:	02050513          	addi	a0,a0,32
   20b90:	fc1ff06f          	j	20b50 <__muldf3+0x1a0>
   20b94:	fd850413          	addi	s0,a0,-40
   20b98:	008b1433          	sll	s0,s6,s0
   20b9c:	00000793          	li	a5,0
   20ba0:	fd9ff06f          	j	20b78 <__muldf3+0x1c8>
   20ba4:	016467b3          	or	a5,s0,s6
   20ba8:	02078263          	beqz	a5,20bcc <__muldf3+0x21c>
   20bac:	000b0793          	mv	a5,s6
   20bb0:	7ff00513          	li	a0,2047
   20bb4:	00300713          	li	a4,3
   20bb8:	eadff06f          	j	20a64 <__muldf3+0xb4>
   20bbc:	00000413          	li	s0,0
   20bc0:	00000513          	li	a0,0
   20bc4:	00100713          	li	a4,1
   20bc8:	e9dff06f          	j	20a64 <__muldf3+0xb4>
   20bcc:	00000413          	li	s0,0
   20bd0:	7ff00513          	li	a0,2047
   20bd4:	00200713          	li	a4,2
   20bd8:	e8dff06f          	j	20a64 <__muldf3+0xb4>
   20bdc:	000102b7          	lui	t0,0x10
   20be0:	fff28313          	addi	t1,t0,-1 # ffff <_start-0x1>
   20be4:	01095f13          	srli	t5,s2,0x10
   20be8:	0107df93          	srli	t6,a5,0x10
   20bec:	00697933          	and	s2,s2,t1
   20bf0:	0067f7b3          	and	a5,a5,t1
   20bf4:	00090513          	mv	a0,s2
   20bf8:	00078593          	mv	a1,a5
   20bfc:	099030ef          	jal	ra,24494 <__mulsi3>
   20c00:	00050e93          	mv	t4,a0
   20c04:	000f8593          	mv	a1,t6
   20c08:	00090513          	mv	a0,s2
   20c0c:	089030ef          	jal	ra,24494 <__mulsi3>
   20c10:	00050e13          	mv	t3,a0
   20c14:	00078593          	mv	a1,a5
   20c18:	000f0513          	mv	a0,t5
   20c1c:	079030ef          	jal	ra,24494 <__mulsi3>
   20c20:	00050a13          	mv	s4,a0
   20c24:	000f8593          	mv	a1,t6
   20c28:	000f0513          	mv	a0,t5
   20c2c:	069030ef          	jal	ra,24494 <__mulsi3>
   20c30:	010ed713          	srli	a4,t4,0x10
   20c34:	014e0e33          	add	t3,t3,s4
   20c38:	01c70733          	add	a4,a4,t3
   20c3c:	00050393          	mv	t2,a0
   20c40:	01477463          	bgeu	a4,s4,20c48 <__muldf3+0x298>
   20c44:	005503b3          	add	t2,a0,t0
   20c48:	00677e33          	and	t3,a4,t1
   20c4c:	006efeb3          	and	t4,t4,t1
   20c50:	01045a13          	srli	s4,s0,0x10
   20c54:	010e1e13          	slli	t3,t3,0x10
   20c58:	00647433          	and	s0,s0,t1
   20c5c:	01075293          	srli	t0,a4,0x10
   20c60:	01de0e33          	add	t3,t3,t4
   20c64:	00090513          	mv	a0,s2
   20c68:	00040593          	mv	a1,s0
   20c6c:	029030ef          	jal	ra,24494 <__mulsi3>
   20c70:	00050e93          	mv	t4,a0
   20c74:	000a0593          	mv	a1,s4
   20c78:	00090513          	mv	a0,s2
   20c7c:	019030ef          	jal	ra,24494 <__mulsi3>
   20c80:	00050713          	mv	a4,a0
   20c84:	00040593          	mv	a1,s0
   20c88:	000f0513          	mv	a0,t5
   20c8c:	009030ef          	jal	ra,24494 <__mulsi3>
   20c90:	00050313          	mv	t1,a0
   20c94:	000a0593          	mv	a1,s4
   20c98:	000f0513          	mv	a0,t5
   20c9c:	7f8030ef          	jal	ra,24494 <__mulsi3>
   20ca0:	010ed693          	srli	a3,t4,0x10
   20ca4:	00670733          	add	a4,a4,t1
   20ca8:	00e686b3          	add	a3,a3,a4
   20cac:	0066f663          	bgeu	a3,t1,20cb8 <__muldf3+0x308>
   20cb0:	00010737          	lui	a4,0x10
   20cb4:	00e50533          	add	a0,a0,a4
   20cb8:	00010ab7          	lui	s5,0x10
   20cbc:	fffa8613          	addi	a2,s5,-1 # ffff <_start-0x1>
   20cc0:	0106d713          	srli	a4,a3,0x10
   20cc4:	00c6f6b3          	and	a3,a3,a2
   20cc8:	01069693          	slli	a3,a3,0x10
   20ccc:	00cefeb3          	and	t4,t4,a2
   20cd0:	00a70f33          	add	t5,a4,a0
   20cd4:	01d68eb3          	add	t4,a3,t4
   20cd8:	0104d713          	srli	a4,s1,0x10
   20cdc:	00c4f4b3          	and	s1,s1,a2
   20ce0:	01d282b3          	add	t0,t0,t4
   20ce4:	00048513          	mv	a0,s1
   20ce8:	00078593          	mv	a1,a5
   20cec:	7a8030ef          	jal	ra,24494 <__mulsi3>
   20cf0:	00050913          	mv	s2,a0
   20cf4:	000f8593          	mv	a1,t6
   20cf8:	00048513          	mv	a0,s1
   20cfc:	798030ef          	jal	ra,24494 <__mulsi3>
   20d00:	00050313          	mv	t1,a0
   20d04:	00078593          	mv	a1,a5
   20d08:	00070513          	mv	a0,a4
   20d0c:	788030ef          	jal	ra,24494 <__mulsi3>
   20d10:	00050b13          	mv	s6,a0
   20d14:	000f8593          	mv	a1,t6
   20d18:	00070513          	mv	a0,a4
   20d1c:	778030ef          	jal	ra,24494 <__mulsi3>
   20d20:	01095793          	srli	a5,s2,0x10
   20d24:	01630333          	add	t1,t1,s6
   20d28:	006787b3          	add	a5,a5,t1
   20d2c:	0167f463          	bgeu	a5,s6,20d34 <__muldf3+0x384>
   20d30:	01550533          	add	a0,a0,s5
   20d34:	00010ab7          	lui	s5,0x10
   20d38:	fffa8693          	addi	a3,s5,-1 # ffff <_start-0x1>
   20d3c:	00d7f333          	and	t1,a5,a3
   20d40:	0107d613          	srli	a2,a5,0x10
   20d44:	00d97933          	and	s2,s2,a3
   20d48:	01031313          	slli	t1,t1,0x10
   20d4c:	00a60fb3          	add	t6,a2,a0
   20d50:	01230333          	add	t1,t1,s2
   20d54:	00048513          	mv	a0,s1
   20d58:	00040593          	mv	a1,s0
   20d5c:	738030ef          	jal	ra,24494 <__mulsi3>
   20d60:	00050793          	mv	a5,a0
   20d64:	000a0593          	mv	a1,s4
   20d68:	00048513          	mv	a0,s1
   20d6c:	728030ef          	jal	ra,24494 <__mulsi3>
   20d70:	00050493          	mv	s1,a0
   20d74:	00040593          	mv	a1,s0
   20d78:	00070513          	mv	a0,a4
   20d7c:	718030ef          	jal	ra,24494 <__mulsi3>
   20d80:	00050913          	mv	s2,a0
   20d84:	000a0593          	mv	a1,s4
   20d88:	00070513          	mv	a0,a4
   20d8c:	708030ef          	jal	ra,24494 <__mulsi3>
   20d90:	0107d693          	srli	a3,a5,0x10
   20d94:	012484b3          	add	s1,s1,s2
   20d98:	009686b3          	add	a3,a3,s1
   20d9c:	0126f463          	bgeu	a3,s2,20da4 <__muldf3+0x3f4>
   20da0:	01550533          	add	a0,a0,s5
   20da4:	00010637          	lui	a2,0x10
   20da8:	fff60613          	addi	a2,a2,-1 # ffff <_start-0x1>
   20dac:	00c6f733          	and	a4,a3,a2
   20db0:	00c7f7b3          	and	a5,a5,a2
   20db4:	01071713          	slli	a4,a4,0x10
   20db8:	007282b3          	add	t0,t0,t2
   20dbc:	00f70733          	add	a4,a4,a5
   20dc0:	01d2beb3          	sltu	t4,t0,t4
   20dc4:	01e70733          	add	a4,a4,t5
   20dc8:	01d70433          	add	s0,a4,t4
   20dcc:	006282b3          	add	t0,t0,t1
   20dd0:	01f40633          	add	a2,s0,t6
   20dd4:	0062b333          	sltu	t1,t0,t1
   20dd8:	006605b3          	add	a1,a2,t1
   20ddc:	01e73733          	sltu	a4,a4,t5
   20de0:	01d43433          	sltu	s0,s0,t4
   20de4:	00876433          	or	s0,a4,s0
   20de8:	0106d693          	srli	a3,a3,0x10
   20dec:	01f63633          	sltu	a2,a2,t6
   20df0:	0065b333          	sltu	t1,a1,t1
   20df4:	00d40433          	add	s0,s0,a3
   20df8:	00666333          	or	t1,a2,t1
   20dfc:	00640433          	add	s0,s0,t1
   20e00:	00929793          	slli	a5,t0,0x9
   20e04:	00a40433          	add	s0,s0,a0
   20e08:	01c7e7b3          	or	a5,a5,t3
   20e0c:	00941413          	slli	s0,s0,0x9
   20e10:	0175d513          	srli	a0,a1,0x17
   20e14:	00f037b3          	snez	a5,a5
   20e18:	0172de13          	srli	t3,t0,0x17
   20e1c:	00959713          	slli	a4,a1,0x9
   20e20:	00a46433          	or	s0,s0,a0
   20e24:	01c7e7b3          	or	a5,a5,t3
   20e28:	00e7e7b3          	or	a5,a5,a4
   20e2c:	00741713          	slli	a4,s0,0x7
   20e30:	10075263          	bgez	a4,20f34 <__muldf3+0x584>
   20e34:	0017d713          	srli	a4,a5,0x1
   20e38:	0017f793          	andi	a5,a5,1
   20e3c:	00f767b3          	or	a5,a4,a5
   20e40:	01f41713          	slli	a4,s0,0x1f
   20e44:	00e7e7b3          	or	a5,a5,a4
   20e48:	00145413          	srli	s0,s0,0x1
   20e4c:	3ff88693          	addi	a3,a7,1023
   20e50:	0ed05663          	blez	a3,20f3c <__muldf3+0x58c>
   20e54:	0077f713          	andi	a4,a5,7
   20e58:	02070063          	beqz	a4,20e78 <__muldf3+0x4c8>
   20e5c:	00f7f713          	andi	a4,a5,15
   20e60:	00400613          	li	a2,4
   20e64:	00c70a63          	beq	a4,a2,20e78 <__muldf3+0x4c8>
   20e68:	00478713          	addi	a4,a5,4 # 800004 <__global_pointer$+0x7d8a94>
   20e6c:	00f737b3          	sltu	a5,a4,a5
   20e70:	00f40433          	add	s0,s0,a5
   20e74:	00070793          	mv	a5,a4
   20e78:	00741713          	slli	a4,s0,0x7
   20e7c:	00075a63          	bgez	a4,20e90 <__muldf3+0x4e0>
   20e80:	ff000737          	lui	a4,0xff000
   20e84:	fff70713          	addi	a4,a4,-1 # feffffff <__global_pointer$+0xfefd8a8f>
   20e88:	00e47433          	and	s0,s0,a4
   20e8c:	40088693          	addi	a3,a7,1024
   20e90:	7fe00713          	li	a4,2046
   20e94:	16d74663          	blt	a4,a3,21000 <__muldf3+0x650>
   20e98:	0037d713          	srli	a4,a5,0x3
   20e9c:	01d41793          	slli	a5,s0,0x1d
   20ea0:	00e7e7b3          	or	a5,a5,a4
   20ea4:	00345413          	srli	s0,s0,0x3
   20ea8:	00c41413          	slli	s0,s0,0xc
   20eac:	7ff6f713          	andi	a4,a3,2047
   20eb0:	01471713          	slli	a4,a4,0x14
   20eb4:	00c45413          	srli	s0,s0,0xc
   20eb8:	00e46433          	or	s0,s0,a4
   20ebc:	01f81813          	slli	a6,a6,0x1f
   20ec0:	01046733          	or	a4,s0,a6
   20ec4:	02c12083          	lw	ra,44(sp)
   20ec8:	02812403          	lw	s0,40(sp)
   20ecc:	02412483          	lw	s1,36(sp)
   20ed0:	02012903          	lw	s2,32(sp)
   20ed4:	01c12983          	lw	s3,28(sp)
   20ed8:	01812a03          	lw	s4,24(sp)
   20edc:	01412a83          	lw	s5,20(sp)
   20ee0:	01012b03          	lw	s6,16(sp)
   20ee4:	00c12b83          	lw	s7,12(sp)
   20ee8:	00078513          	mv	a0,a5
   20eec:	00070593          	mv	a1,a4
   20ef0:	03010113          	addi	sp,sp,48
   20ef4:	00008067          	ret
   20ef8:	000a0813          	mv	a6,s4
   20efc:	00048413          	mv	s0,s1
   20f00:	00090793          	mv	a5,s2
   20f04:	000b8713          	mv	a4,s7
   20f08:	00200693          	li	a3,2
   20f0c:	0ed70a63          	beq	a4,a3,21000 <__muldf3+0x650>
   20f10:	00300693          	li	a3,3
   20f14:	0cd70c63          	beq	a4,a3,20fec <__muldf3+0x63c>
   20f18:	00100693          	li	a3,1
   20f1c:	f2d718e3          	bne	a4,a3,20e4c <__muldf3+0x49c>
   20f20:	00000413          	li	s0,0
   20f24:	00000793          	li	a5,0
   20f28:	0880006f          	j	20fb0 <__muldf3+0x600>
   20f2c:	000a8813          	mv	a6,s5
   20f30:	fd9ff06f          	j	20f08 <__muldf3+0x558>
   20f34:	00098893          	mv	a7,s3
   20f38:	f15ff06f          	j	20e4c <__muldf3+0x49c>
   20f3c:	00100613          	li	a2,1
   20f40:	40d60633          	sub	a2,a2,a3
   20f44:	03800713          	li	a4,56
   20f48:	fcc74ce3          	blt	a4,a2,20f20 <__muldf3+0x570>
   20f4c:	01f00713          	li	a4,31
   20f50:	06c74463          	blt	a4,a2,20fb8 <__muldf3+0x608>
   20f54:	41e88893          	addi	a7,a7,1054
   20f58:	01141733          	sll	a4,s0,a7
   20f5c:	00c7d6b3          	srl	a3,a5,a2
   20f60:	011797b3          	sll	a5,a5,a7
   20f64:	00d76733          	or	a4,a4,a3
   20f68:	00f037b3          	snez	a5,a5
   20f6c:	00f767b3          	or	a5,a4,a5
   20f70:	00c45433          	srl	s0,s0,a2
   20f74:	0077f713          	andi	a4,a5,7
   20f78:	02070063          	beqz	a4,20f98 <__muldf3+0x5e8>
   20f7c:	00f7f713          	andi	a4,a5,15
   20f80:	00400693          	li	a3,4
   20f84:	00d70a63          	beq	a4,a3,20f98 <__muldf3+0x5e8>
   20f88:	00478713          	addi	a4,a5,4
   20f8c:	00f737b3          	sltu	a5,a4,a5
   20f90:	00f40433          	add	s0,s0,a5
   20f94:	00070793          	mv	a5,a4
   20f98:	00841713          	slli	a4,s0,0x8
   20f9c:	06074a63          	bltz	a4,21010 <__muldf3+0x660>
   20fa0:	01d41713          	slli	a4,s0,0x1d
   20fa4:	0037d793          	srli	a5,a5,0x3
   20fa8:	00f767b3          	or	a5,a4,a5
   20fac:	00345413          	srli	s0,s0,0x3
   20fb0:	00000693          	li	a3,0
   20fb4:	ef5ff06f          	j	20ea8 <__muldf3+0x4f8>
   20fb8:	fe100713          	li	a4,-31
   20fbc:	40d70733          	sub	a4,a4,a3
   20fc0:	02000593          	li	a1,32
   20fc4:	00e45733          	srl	a4,s0,a4
   20fc8:	00000693          	li	a3,0
   20fcc:	00b60663          	beq	a2,a1,20fd8 <__muldf3+0x628>
   20fd0:	43e88893          	addi	a7,a7,1086
   20fd4:	011416b3          	sll	a3,s0,a7
   20fd8:	00f6e7b3          	or	a5,a3,a5
   20fdc:	00f037b3          	snez	a5,a5
   20fe0:	00f767b3          	or	a5,a4,a5
   20fe4:	00000413          	li	s0,0
   20fe8:	f8dff06f          	j	20f74 <__muldf3+0x5c4>
   20fec:	00080437          	lui	s0,0x80
   20ff0:	00000793          	li	a5,0
   20ff4:	7ff00693          	li	a3,2047
   20ff8:	00000813          	li	a6,0
   20ffc:	eadff06f          	j	20ea8 <__muldf3+0x4f8>
   21000:	00000413          	li	s0,0
   21004:	00000793          	li	a5,0
   21008:	7ff00693          	li	a3,2047
   2100c:	e9dff06f          	j	20ea8 <__muldf3+0x4f8>
   21010:	00000413          	li	s0,0
   21014:	00000793          	li	a5,0
   21018:	00100693          	li	a3,1
   2101c:	e8dff06f          	j	20ea8 <__muldf3+0x4f8>

00021020 <__eqtf2>:
   21020:	00c52783          	lw	a5,12(a0)
   21024:	0005af03          	lw	t5,0(a1)
   21028:	0045af83          	lw	t6,4(a1)
   2102c:	0085a283          	lw	t0,8(a1)
   21030:	00c5a583          	lw	a1,12(a1)
   21034:	00008737          	lui	a4,0x8
   21038:	0107d693          	srli	a3,a5,0x10
   2103c:	fff70713          	addi	a4,a4,-1 # 7fff <_start-0x8001>
   21040:	01079813          	slli	a6,a5,0x10
   21044:	01059e93          	slli	t4,a1,0x10
   21048:	01f7d613          	srli	a2,a5,0x1f
   2104c:	00e6f6b3          	and	a3,a3,a4
   21050:	0105d793          	srli	a5,a1,0x10
   21054:	ff010113          	addi	sp,sp,-16
   21058:	00052883          	lw	a7,0(a0)
   2105c:	00452303          	lw	t1,4(a0)
   21060:	00852e03          	lw	t3,8(a0)
   21064:	01085813          	srli	a6,a6,0x10
   21068:	010ede93          	srli	t4,t4,0x10
   2106c:	00e7f7b3          	and	a5,a5,a4
   21070:	01f5d593          	srli	a1,a1,0x1f
   21074:	02e69063          	bne	a3,a4,21094 <__eqtf2+0x74>
   21078:	0068e733          	or	a4,a7,t1
   2107c:	01c76733          	or	a4,a4,t3
   21080:	01076733          	or	a4,a4,a6
   21084:	00100513          	li	a0,1
   21088:	04071a63          	bnez	a4,210dc <__eqtf2+0xbc>
   2108c:	04d79863          	bne	a5,a3,210dc <__eqtf2+0xbc>
   21090:	0080006f          	j	21098 <__eqtf2+0x78>
   21094:	00e79c63          	bne	a5,a4,210ac <__eqtf2+0x8c>
   21098:	01ff6733          	or	a4,t5,t6
   2109c:	00576733          	or	a4,a4,t0
   210a0:	01d76733          	or	a4,a4,t4
   210a4:	00100513          	li	a0,1
   210a8:	02071a63          	bnez	a4,210dc <__eqtf2+0xbc>
   210ac:	00100513          	li	a0,1
   210b0:	02d79663          	bne	a5,a3,210dc <__eqtf2+0xbc>
   210b4:	03e89463          	bne	a7,t5,210dc <__eqtf2+0xbc>
   210b8:	03f31263          	bne	t1,t6,210dc <__eqtf2+0xbc>
   210bc:	025e1063          	bne	t3,t0,210dc <__eqtf2+0xbc>
   210c0:	01d81e63          	bne	a6,t4,210dc <__eqtf2+0xbc>
   210c4:	02b60063          	beq	a2,a1,210e4 <__eqtf2+0xc4>
   210c8:	00079a63          	bnez	a5,210dc <__eqtf2+0xbc>
   210cc:	0068e533          	or	a0,a7,t1
   210d0:	01c56533          	or	a0,a0,t3
   210d4:	01056533          	or	a0,a0,a6
   210d8:	00a03533          	snez	a0,a0
   210dc:	01010113          	addi	sp,sp,16
   210e0:	00008067          	ret
   210e4:	00000513          	li	a0,0
   210e8:	ff5ff06f          	j	210dc <__eqtf2+0xbc>

000210ec <__getf2>:
   210ec:	00052f83          	lw	t6,0(a0)
   210f0:	00452803          	lw	a6,4(a0)
   210f4:	00852e03          	lw	t3,8(a0)
   210f8:	00c52503          	lw	a0,12(a0)
   210fc:	00c5a603          	lw	a2,12(a1)
   21100:	000087b7          	lui	a5,0x8
   21104:	01055693          	srli	a3,a0,0x10
   21108:	fff78793          	addi	a5,a5,-1 # 7fff <_start-0x8001>
   2110c:	01061313          	slli	t1,a2,0x10
   21110:	01065713          	srli	a4,a2,0x10
   21114:	0005a283          	lw	t0,0(a1)
   21118:	0045a883          	lw	a7,4(a1)
   2111c:	0085ae83          	lw	t4,8(a1)
   21120:	00f6f6b3          	and	a3,a3,a5
   21124:	01051593          	slli	a1,a0,0x10
   21128:	ff010113          	addi	sp,sp,-16
   2112c:	0105d593          	srli	a1,a1,0x10
   21130:	01f55513          	srli	a0,a0,0x1f
   21134:	01035313          	srli	t1,t1,0x10
   21138:	00f77733          	and	a4,a4,a5
   2113c:	01f65613          	srli	a2,a2,0x1f
   21140:	00f69e63          	bne	a3,a5,2115c <__getf2+0x70>
   21144:	01f867b3          	or	a5,a6,t6
   21148:	01c7e7b3          	or	a5,a5,t3
   2114c:	00b7e7b3          	or	a5,a5,a1
   21150:	0c078863          	beqz	a5,21220 <__getf2+0x134>
   21154:	ffe00513          	li	a0,-2
   21158:	0600006f          	j	211b8 <__getf2+0xcc>
   2115c:	00f71a63          	bne	a4,a5,21170 <__getf2+0x84>
   21160:	0058e7b3          	or	a5,a7,t0
   21164:	01d7e7b3          	or	a5,a5,t4
   21168:	0067e7b3          	or	a5,a5,t1
   2116c:	fe0794e3          	bnez	a5,21154 <__getf2+0x68>
   21170:	0a069a63          	bnez	a3,21224 <__getf2+0x138>
   21174:	01f867b3          	or	a5,a6,t6
   21178:	01c7e7b3          	or	a5,a5,t3
   2117c:	00b7e7b3          	or	a5,a5,a1
   21180:	0017b793          	seqz	a5,a5
   21184:	00071a63          	bnez	a4,21198 <__getf2+0xac>
   21188:	0058ef33          	or	t5,a7,t0
   2118c:	01df6f33          	or	t5,t5,t4
   21190:	006f6f33          	or	t5,t5,t1
   21194:	060f0a63          	beqz	t5,21208 <__getf2+0x11c>
   21198:	00079a63          	bnez	a5,211ac <__getf2+0xc0>
   2119c:	02c50263          	beq	a0,a2,211c0 <__getf2+0xd4>
   211a0:	06050063          	beqz	a0,21200 <__getf2+0x114>
   211a4:	fff00513          	li	a0,-1
   211a8:	0100006f          	j	211b8 <__getf2+0xcc>
   211ac:	fff00513          	li	a0,-1
   211b0:	00060463          	beqz	a2,211b8 <__getf2+0xcc>
   211b4:	00060513          	mv	a0,a2
   211b8:	01010113          	addi	sp,sp,16
   211bc:	00008067          	ret
   211c0:	fed740e3          	blt	a4,a3,211a0 <__getf2+0xb4>
   211c4:	00e6d663          	bge	a3,a4,211d0 <__getf2+0xe4>
   211c8:	fe0518e3          	bnez	a0,211b8 <__getf2+0xcc>
   211cc:	fd9ff06f          	j	211a4 <__getf2+0xb8>
   211d0:	fcb368e3          	bltu	t1,a1,211a0 <__getf2+0xb4>
   211d4:	02659e63          	bne	a1,t1,21210 <__getf2+0x124>
   211d8:	fdcee4e3          	bltu	t4,t3,211a0 <__getf2+0xb4>
   211dc:	03ce9e63          	bne	t4,t3,21218 <__getf2+0x12c>
   211e0:	fd08e0e3          	bltu	a7,a6,211a0 <__getf2+0xb4>
   211e4:	01089463          	bne	a7,a6,211ec <__getf2+0x100>
   211e8:	fbf2ece3          	bltu	t0,t6,211a0 <__getf2+0xb4>
   211ec:	fd186ee3          	bltu	a6,a7,211c8 <__getf2+0xdc>
   211f0:	01089463          	bne	a7,a6,211f8 <__getf2+0x10c>
   211f4:	fc5feae3          	bltu	t6,t0,211c8 <__getf2+0xdc>
   211f8:	00000513          	li	a0,0
   211fc:	fbdff06f          	j	211b8 <__getf2+0xcc>
   21200:	00100513          	li	a0,1
   21204:	fb5ff06f          	j	211b8 <__getf2+0xcc>
   21208:	fe0798e3          	bnez	a5,211f8 <__getf2+0x10c>
   2120c:	f95ff06f          	j	211a0 <__getf2+0xb4>
   21210:	fa65ece3          	bltu	a1,t1,211c8 <__getf2+0xdc>
   21214:	fe5ff06f          	j	211f8 <__getf2+0x10c>
   21218:	fbde68e3          	bltu	t3,t4,211c8 <__getf2+0xdc>
   2121c:	fddff06f          	j	211f8 <__getf2+0x10c>
   21220:	f4d700e3          	beq	a4,a3,21160 <__getf2+0x74>
   21224:	f6071ce3          	bnez	a4,2119c <__getf2+0xb0>
   21228:	00000793          	li	a5,0
   2122c:	f5dff06f          	j	21188 <__getf2+0x9c>

00021230 <__letf2>:
   21230:	00052f83          	lw	t6,0(a0)
   21234:	00452803          	lw	a6,4(a0)
   21238:	00852e03          	lw	t3,8(a0)
   2123c:	00c52503          	lw	a0,12(a0)
   21240:	00c5a603          	lw	a2,12(a1)
   21244:	000087b7          	lui	a5,0x8
   21248:	01055693          	srli	a3,a0,0x10
   2124c:	fff78793          	addi	a5,a5,-1 # 7fff <_start-0x8001>
   21250:	01061313          	slli	t1,a2,0x10
   21254:	01065713          	srli	a4,a2,0x10
   21258:	0005a283          	lw	t0,0(a1)
   2125c:	0045a883          	lw	a7,4(a1)
   21260:	0085ae83          	lw	t4,8(a1)
   21264:	00f6f6b3          	and	a3,a3,a5
   21268:	01051593          	slli	a1,a0,0x10
   2126c:	ff010113          	addi	sp,sp,-16
   21270:	0105d593          	srli	a1,a1,0x10
   21274:	01f55513          	srli	a0,a0,0x1f
   21278:	01035313          	srli	t1,t1,0x10
   2127c:	00f77733          	and	a4,a4,a5
   21280:	01f65613          	srli	a2,a2,0x1f
   21284:	00f69e63          	bne	a3,a5,212a0 <__letf2+0x70>
   21288:	01f867b3          	or	a5,a6,t6
   2128c:	01c7e7b3          	or	a5,a5,t3
   21290:	00b7e7b3          	or	a5,a5,a1
   21294:	0c078863          	beqz	a5,21364 <__letf2+0x134>
   21298:	00200513          	li	a0,2
   2129c:	0600006f          	j	212fc <__letf2+0xcc>
   212a0:	00f71a63          	bne	a4,a5,212b4 <__letf2+0x84>
   212a4:	0058e7b3          	or	a5,a7,t0
   212a8:	01d7e7b3          	or	a5,a5,t4
   212ac:	0067e7b3          	or	a5,a5,t1
   212b0:	fe0794e3          	bnez	a5,21298 <__letf2+0x68>
   212b4:	0a069a63          	bnez	a3,21368 <__letf2+0x138>
   212b8:	01f867b3          	or	a5,a6,t6
   212bc:	01c7e7b3          	or	a5,a5,t3
   212c0:	00b7e7b3          	or	a5,a5,a1
   212c4:	0017b793          	seqz	a5,a5
   212c8:	00071a63          	bnez	a4,212dc <__letf2+0xac>
   212cc:	0058ef33          	or	t5,a7,t0
   212d0:	01df6f33          	or	t5,t5,t4
   212d4:	006f6f33          	or	t5,t5,t1
   212d8:	060f0a63          	beqz	t5,2134c <__letf2+0x11c>
   212dc:	00079a63          	bnez	a5,212f0 <__letf2+0xc0>
   212e0:	02c50263          	beq	a0,a2,21304 <__letf2+0xd4>
   212e4:	06050063          	beqz	a0,21344 <__letf2+0x114>
   212e8:	fff00513          	li	a0,-1
   212ec:	0100006f          	j	212fc <__letf2+0xcc>
   212f0:	fff00513          	li	a0,-1
   212f4:	00060463          	beqz	a2,212fc <__letf2+0xcc>
   212f8:	00060513          	mv	a0,a2
   212fc:	01010113          	addi	sp,sp,16
   21300:	00008067          	ret
   21304:	fed740e3          	blt	a4,a3,212e4 <__letf2+0xb4>
   21308:	00e6d663          	bge	a3,a4,21314 <__letf2+0xe4>
   2130c:	fe0518e3          	bnez	a0,212fc <__letf2+0xcc>
   21310:	fd9ff06f          	j	212e8 <__letf2+0xb8>
   21314:	fcb368e3          	bltu	t1,a1,212e4 <__letf2+0xb4>
   21318:	02659e63          	bne	a1,t1,21354 <__letf2+0x124>
   2131c:	fdcee4e3          	bltu	t4,t3,212e4 <__letf2+0xb4>
   21320:	03ce9e63          	bne	t4,t3,2135c <__letf2+0x12c>
   21324:	fd08e0e3          	bltu	a7,a6,212e4 <__letf2+0xb4>
   21328:	01089463          	bne	a7,a6,21330 <__letf2+0x100>
   2132c:	fbf2ece3          	bltu	t0,t6,212e4 <__letf2+0xb4>
   21330:	fd186ee3          	bltu	a6,a7,2130c <__letf2+0xdc>
   21334:	01089463          	bne	a7,a6,2133c <__letf2+0x10c>
   21338:	fc5feae3          	bltu	t6,t0,2130c <__letf2+0xdc>
   2133c:	00000513          	li	a0,0
   21340:	fbdff06f          	j	212fc <__letf2+0xcc>
   21344:	00100513          	li	a0,1
   21348:	fb5ff06f          	j	212fc <__letf2+0xcc>
   2134c:	fe0798e3          	bnez	a5,2133c <__letf2+0x10c>
   21350:	f95ff06f          	j	212e4 <__letf2+0xb4>
   21354:	fa65ece3          	bltu	a1,t1,2130c <__letf2+0xdc>
   21358:	fe5ff06f          	j	2133c <__letf2+0x10c>
   2135c:	fbde68e3          	bltu	t3,t4,2130c <__letf2+0xdc>
   21360:	fddff06f          	j	2133c <__letf2+0x10c>
   21364:	f4d700e3          	beq	a4,a3,212a4 <__letf2+0x74>
   21368:	f6071ce3          	bnez	a4,212e0 <__letf2+0xb0>
   2136c:	00000793          	li	a5,0
   21370:	f5dff06f          	j	212cc <__letf2+0x9c>

00021374 <__multf3>:
   21374:	f6010113          	addi	sp,sp,-160
   21378:	09412423          	sw	s4,136(sp)
   2137c:	00c5aa03          	lw	s4,12(a1)
   21380:	0005a683          	lw	a3,0(a1)
   21384:	0045a783          	lw	a5,4(a1)
   21388:	08812c23          	sw	s0,152(sp)
   2138c:	00050413          	mv	s0,a0
   21390:	0085a503          	lw	a0,8(a1)
   21394:	010a1713          	slli	a4,s4,0x10
   21398:	08912a23          	sw	s1,148(sp)
   2139c:	09312623          	sw	s3,140(sp)
   213a0:	09512223          	sw	s5,132(sp)
   213a4:	09612023          	sw	s6,128(sp)
   213a8:	00062483          	lw	s1,0(a2)
   213ac:	00462b03          	lw	s6,4(a2)
   213b0:	00862a83          	lw	s5,8(a2)
   213b4:	00c62983          	lw	s3,12(a2)
   213b8:	00008637          	lui	a2,0x8
   213bc:	09212823          	sw	s2,144(sp)
   213c0:	01075713          	srli	a4,a4,0x10
   213c4:	010a5913          	srli	s2,s4,0x10
   213c8:	fff60613          	addi	a2,a2,-1 # 7fff <_start-0x8001>
   213cc:	05412623          	sw	s4,76(sp)
   213d0:	08112e23          	sw	ra,156(sp)
   213d4:	07712e23          	sw	s7,124(sp)
   213d8:	07812c23          	sw	s8,120(sp)
   213dc:	07912a23          	sw	s9,116(sp)
   213e0:	07a12823          	sw	s10,112(sp)
   213e4:	07b12623          	sw	s11,108(sp)
   213e8:	04d12023          	sw	a3,64(sp)
   213ec:	04f12223          	sw	a5,68(sp)
   213f0:	04a12423          	sw	a0,72(sp)
   213f4:	00d12823          	sw	a3,16(sp)
   213f8:	00f12a23          	sw	a5,20(sp)
   213fc:	00a12c23          	sw	a0,24(sp)
   21400:	00e12e23          	sw	a4,28(sp)
   21404:	00c97933          	and	s2,s2,a2
   21408:	01fa5a13          	srli	s4,s4,0x1f
   2140c:	12090663          	beqz	s2,21538 <__multf3+0x1c4>
   21410:	24c90263          	beq	s2,a2,21654 <__multf3+0x2e0>
   21414:	000107b7          	lui	a5,0x10
   21418:	00f767b3          	or	a5,a4,a5
   2141c:	00f12e23          	sw	a5,28(sp)
   21420:	01010613          	addi	a2,sp,16
   21424:	01c10793          	addi	a5,sp,28
   21428:	0007a703          	lw	a4,0(a5) # 10000 <_start>
   2142c:	ffc7a683          	lw	a3,-4(a5)
   21430:	ffc78793          	addi	a5,a5,-4
   21434:	00371713          	slli	a4,a4,0x3
   21438:	01d6d693          	srli	a3,a3,0x1d
   2143c:	00d76733          	or	a4,a4,a3
   21440:	00e7a223          	sw	a4,4(a5)
   21444:	fef612e3          	bne	a2,a5,21428 <__multf3+0xb4>
   21448:	01012783          	lw	a5,16(sp)
   2144c:	ffffc537          	lui	a0,0xffffc
   21450:	00150513          	addi	a0,a0,1 # ffffc001 <__global_pointer$+0xfffd4a91>
   21454:	00379793          	slli	a5,a5,0x3
   21458:	00f12823          	sw	a5,16(sp)
   2145c:	00a90933          	add	s2,s2,a0
   21460:	00000c13          	li	s8,0
   21464:	01099513          	slli	a0,s3,0x10
   21468:	00008737          	lui	a4,0x8
   2146c:	0109d793          	srli	a5,s3,0x10
   21470:	01055513          	srli	a0,a0,0x10
   21474:	fff70713          	addi	a4,a4,-1 # 7fff <_start-0x8001>
   21478:	05312623          	sw	s3,76(sp)
   2147c:	04912023          	sw	s1,64(sp)
   21480:	05612223          	sw	s6,68(sp)
   21484:	05512423          	sw	s5,72(sp)
   21488:	02912023          	sw	s1,32(sp)
   2148c:	03612223          	sw	s6,36(sp)
   21490:	03512423          	sw	s5,40(sp)
   21494:	02a12623          	sw	a0,44(sp)
   21498:	00e7f7b3          	and	a5,a5,a4
   2149c:	01f9d993          	srli	s3,s3,0x1f
   214a0:	1c078e63          	beqz	a5,2167c <__multf3+0x308>
   214a4:	2ee78a63          	beq	a5,a4,21798 <__multf3+0x424>
   214a8:	00010ab7          	lui	s5,0x10
   214ac:	01556ab3          	or	s5,a0,s5
   214b0:	03512623          	sw	s5,44(sp)
   214b4:	02010593          	addi	a1,sp,32
   214b8:	02c10713          	addi	a4,sp,44
   214bc:	00072683          	lw	a3,0(a4)
   214c0:	ffc72603          	lw	a2,-4(a4)
   214c4:	ffc70713          	addi	a4,a4,-4
   214c8:	00369693          	slli	a3,a3,0x3
   214cc:	01d65613          	srli	a2,a2,0x1d
   214d0:	00c6e6b3          	or	a3,a3,a2
   214d4:	00d72223          	sw	a3,4(a4)
   214d8:	fee592e3          	bne	a1,a4,214bc <__multf3+0x148>
   214dc:	02012703          	lw	a4,32(sp)
   214e0:	ffffc537          	lui	a0,0xffffc
   214e4:	00150513          	addi	a0,a0,1 # ffffc001 <__global_pointer$+0xfffd4a91>
   214e8:	00371713          	slli	a4,a4,0x3
   214ec:	02e12023          	sw	a4,32(sp)
   214f0:	00a787b3          	add	a5,a5,a0
   214f4:	00000713          	li	a4,0
   214f8:	00f907b3          	add	a5,s2,a5
   214fc:	00f12423          	sw	a5,8(sp)
   21500:	00178b93          	addi	s7,a5,1
   21504:	002c1793          	slli	a5,s8,0x2
   21508:	00e7e7b3          	or	a5,a5,a4
   2150c:	fff78793          	addi	a5,a5,-1
   21510:	00e00693          	li	a3,14
   21514:	013a44b3          	xor	s1,s4,s3
   21518:	2af6e463          	bltu	a3,a5,217c0 <__multf3+0x44c>
   2151c:	00004697          	auipc	a3,0x4
   21520:	cb468693          	addi	a3,a3,-844 # 251d0 <zeroes.4467+0x88>
   21524:	00279793          	slli	a5,a5,0x2
   21528:	00d787b3          	add	a5,a5,a3
   2152c:	0007a783          	lw	a5,0(a5)
   21530:	00d787b3          	add	a5,a5,a3
   21534:	00078067          	jr	a5
   21538:	00d7e633          	or	a2,a5,a3
   2153c:	00a66633          	or	a2,a2,a0
   21540:	00e66633          	or	a2,a2,a4
   21544:	12060663          	beqz	a2,21670 <__multf3+0x2fc>
   21548:	06070063          	beqz	a4,215a8 <__multf3+0x234>
   2154c:	00070513          	mv	a0,a4
   21550:	01c030ef          	jal	ra,2456c <__clzsi2>
   21554:	ff450693          	addi	a3,a0,-12
   21558:	4056d713          	srai	a4,a3,0x5
   2155c:	01f6f693          	andi	a3,a3,31
   21560:	40e007b3          	neg	a5,a4
   21564:	06068c63          	beqz	a3,215dc <__multf3+0x268>
   21568:	00279793          	slli	a5,a5,0x2
   2156c:	01010313          	addi	t1,sp,16
   21570:	00c78793          	addi	a5,a5,12
   21574:	02000813          	li	a6,32
   21578:	00f307b3          	add	a5,t1,a5
   2157c:	00271593          	slli	a1,a4,0x2
   21580:	40d80833          	sub	a6,a6,a3
   21584:	08f31263          	bne	t1,a5,21608 <__multf3+0x294>
   21588:	fff70793          	addi	a5,a4,-1
   2158c:	06010713          	addi	a4,sp,96
   21590:	00b705b3          	add	a1,a4,a1
   21594:	01012703          	lw	a4,16(sp)
   21598:	00d716b3          	sll	a3,a4,a3
   2159c:	fad5a823          	sw	a3,-80(a1)
   215a0:	fff00693          	li	a3,-1
   215a4:	09c0006f          	j	21640 <__multf3+0x2cc>
   215a8:	00050863          	beqz	a0,215b8 <__multf3+0x244>
   215ac:	7c1020ef          	jal	ra,2456c <__clzsi2>
   215b0:	02050513          	addi	a0,a0,32
   215b4:	fa1ff06f          	j	21554 <__multf3+0x1e0>
   215b8:	00078a63          	beqz	a5,215cc <__multf3+0x258>
   215bc:	00078513          	mv	a0,a5
   215c0:	7ad020ef          	jal	ra,2456c <__clzsi2>
   215c4:	04050513          	addi	a0,a0,64
   215c8:	f8dff06f          	j	21554 <__multf3+0x1e0>
   215cc:	00068513          	mv	a0,a3
   215d0:	79d020ef          	jal	ra,2456c <__clzsi2>
   215d4:	06050513          	addi	a0,a0,96
   215d8:	f7dff06f          	j	21554 <__multf3+0x1e0>
   215dc:	01c10693          	addi	a3,sp,28
   215e0:	00279793          	slli	a5,a5,0x2
   215e4:	00300613          	li	a2,3
   215e8:	00f685b3          	add	a1,a3,a5
   215ec:	0005a583          	lw	a1,0(a1)
   215f0:	fff60613          	addi	a2,a2,-1
   215f4:	ffc68693          	addi	a3,a3,-4
   215f8:	00b6a223          	sw	a1,4(a3)
   215fc:	fee656e3          	bge	a2,a4,215e8 <__multf3+0x274>
   21600:	fff70793          	addi	a5,a4,-1
   21604:	f9dff06f          	j	215a0 <__multf3+0x22c>
   21608:	ffc7a603          	lw	a2,-4(a5)
   2160c:	0007a883          	lw	a7,0(a5)
   21610:	00b78e33          	add	t3,a5,a1
   21614:	01065633          	srl	a2,a2,a6
   21618:	00d898b3          	sll	a7,a7,a3
   2161c:	01166633          	or	a2,a2,a7
   21620:	00ce2023          	sw	a2,0(t3)
   21624:	ffc78793          	addi	a5,a5,-4
   21628:	f5dff06f          	j	21584 <__multf3+0x210>
   2162c:	00279713          	slli	a4,a5,0x2
   21630:	01010613          	addi	a2,sp,16
   21634:	00e60733          	add	a4,a2,a4
   21638:	00072023          	sw	zero,0(a4)
   2163c:	fff78793          	addi	a5,a5,-1
   21640:	fed796e3          	bne	a5,a3,2162c <__multf3+0x2b8>
   21644:	ffffc937          	lui	s2,0xffffc
   21648:	01190913          	addi	s2,s2,17 # ffffc011 <__global_pointer$+0xfffd4aa1>
   2164c:	40a90933          	sub	s2,s2,a0
   21650:	e11ff06f          	j	21460 <__multf3+0xec>
   21654:	00d7e7b3          	or	a5,a5,a3
   21658:	00a7e7b3          	or	a5,a5,a0
   2165c:	00e7e7b3          	or	a5,a5,a4
   21660:	00300c13          	li	s8,3
   21664:	e00790e3          	bnez	a5,21464 <__multf3+0xf0>
   21668:	00200c13          	li	s8,2
   2166c:	df9ff06f          	j	21464 <__multf3+0xf0>
   21670:	00000913          	li	s2,0
   21674:	00100c13          	li	s8,1
   21678:	dedff06f          	j	21464 <__multf3+0xf0>
   2167c:	0164e7b3          	or	a5,s1,s6
   21680:	0157e7b3          	or	a5,a5,s5
   21684:	00a7e7b3          	or	a5,a5,a0
   21688:	12078663          	beqz	a5,217b4 <__multf3+0x440>
   2168c:	04050e63          	beqz	a0,216e8 <__multf3+0x374>
   21690:	6dd020ef          	jal	ra,2456c <__clzsi2>
   21694:	ff450613          	addi	a2,a0,-12
   21698:	40565693          	srai	a3,a2,0x5
   2169c:	01f67613          	andi	a2,a2,31
   216a0:	40d00733          	neg	a4,a3
   216a4:	06060e63          	beqz	a2,21720 <__multf3+0x3ac>
   216a8:	00271713          	slli	a4,a4,0x2
   216ac:	02010313          	addi	t1,sp,32
   216b0:	00c70713          	addi	a4,a4,12
   216b4:	02000793          	li	a5,32
   216b8:	00e30733          	add	a4,t1,a4
   216bc:	00269813          	slli	a6,a3,0x2
   216c0:	40c787b3          	sub	a5,a5,a2
   216c4:	08e31463          	bne	t1,a4,2174c <__multf3+0x3d8>
   216c8:	06010793          	addi	a5,sp,96
   216cc:	01078833          	add	a6,a5,a6
   216d0:	02012783          	lw	a5,32(sp)
   216d4:	fff68713          	addi	a4,a3,-1
   216d8:	00c79633          	sll	a2,a5,a2
   216dc:	fcc82023          	sw	a2,-64(a6)
   216e0:	fff00693          	li	a3,-1
   216e4:	0a00006f          	j	21784 <__multf3+0x410>
   216e8:	000a8a63          	beqz	s5,216fc <__multf3+0x388>
   216ec:	000a8513          	mv	a0,s5
   216f0:	67d020ef          	jal	ra,2456c <__clzsi2>
   216f4:	02050513          	addi	a0,a0,32
   216f8:	f9dff06f          	j	21694 <__multf3+0x320>
   216fc:	000b0a63          	beqz	s6,21710 <__multf3+0x39c>
   21700:	000b0513          	mv	a0,s6
   21704:	669020ef          	jal	ra,2456c <__clzsi2>
   21708:	04050513          	addi	a0,a0,64
   2170c:	f89ff06f          	j	21694 <__multf3+0x320>
   21710:	00048513          	mv	a0,s1
   21714:	659020ef          	jal	ra,2456c <__clzsi2>
   21718:	06050513          	addi	a0,a0,96
   2171c:	f79ff06f          	j	21694 <__multf3+0x320>
   21720:	02c10613          	addi	a2,sp,44
   21724:	00271713          	slli	a4,a4,0x2
   21728:	00300793          	li	a5,3
   2172c:	00e605b3          	add	a1,a2,a4
   21730:	0005a583          	lw	a1,0(a1)
   21734:	fff78793          	addi	a5,a5,-1
   21738:	ffc60613          	addi	a2,a2,-4
   2173c:	00b62223          	sw	a1,4(a2)
   21740:	fed7d6e3          	bge	a5,a3,2172c <__multf3+0x3b8>
   21744:	fff68713          	addi	a4,a3,-1
   21748:	f99ff06f          	j	216e0 <__multf3+0x36c>
   2174c:	ffc72583          	lw	a1,-4(a4)
   21750:	00072883          	lw	a7,0(a4)
   21754:	01070e33          	add	t3,a4,a6
   21758:	00f5d5b3          	srl	a1,a1,a5
   2175c:	00c898b3          	sll	a7,a7,a2
   21760:	0115e5b3          	or	a1,a1,a7
   21764:	00be2023          	sw	a1,0(t3)
   21768:	ffc70713          	addi	a4,a4,-4
   2176c:	f59ff06f          	j	216c4 <__multf3+0x350>
   21770:	00271793          	slli	a5,a4,0x2
   21774:	02010613          	addi	a2,sp,32
   21778:	00f607b3          	add	a5,a2,a5
   2177c:	0007a023          	sw	zero,0(a5)
   21780:	fff70713          	addi	a4,a4,-1
   21784:	fed716e3          	bne	a4,a3,21770 <__multf3+0x3fc>
   21788:	ffffc7b7          	lui	a5,0xffffc
   2178c:	01178793          	addi	a5,a5,17 # ffffc011 <__global_pointer$+0xfffd4aa1>
   21790:	40a787b3          	sub	a5,a5,a0
   21794:	d61ff06f          	j	214f4 <__multf3+0x180>
   21798:	0164e4b3          	or	s1,s1,s6
   2179c:	0154eab3          	or	s5,s1,s5
   217a0:	00aaeab3          	or	s5,s5,a0
   217a4:	00300713          	li	a4,3
   217a8:	d40a98e3          	bnez	s5,214f8 <__multf3+0x184>
   217ac:	00200713          	li	a4,2
   217b0:	d49ff06f          	j	214f8 <__multf3+0x184>
   217b4:	00000793          	li	a5,0
   217b8:	00100713          	li	a4,1
   217bc:	d3dff06f          	j	214f8 <__multf3+0x184>
   217c0:	01012283          	lw	t0,16(sp)
   217c4:	02012f83          	lw	t6,32(sp)
   217c8:	00010337          	lui	t1,0x10
   217cc:	fff30793          	addi	a5,t1,-1 # ffff <_start-0x1>
   217d0:	00f2f8b3          	and	a7,t0,a5
   217d4:	00fff7b3          	and	a5,t6,a5
   217d8:	0102de13          	srli	t3,t0,0x10
   217dc:	010fd713          	srli	a4,t6,0x10
   217e0:	00088513          	mv	a0,a7
   217e4:	00078593          	mv	a1,a5
   217e8:	4ad020ef          	jal	ra,24494 <__mulsi3>
   217ec:	00050813          	mv	a6,a0
   217f0:	00070593          	mv	a1,a4
   217f4:	00088513          	mv	a0,a7
   217f8:	49d020ef          	jal	ra,24494 <__mulsi3>
   217fc:	00050893          	mv	a7,a0
   21800:	00078593          	mv	a1,a5
   21804:	000e0513          	mv	a0,t3
   21808:	48d020ef          	jal	ra,24494 <__mulsi3>
   2180c:	00050793          	mv	a5,a0
   21810:	00070593          	mv	a1,a4
   21814:	000e0513          	mv	a0,t3
   21818:	47d020ef          	jal	ra,24494 <__mulsi3>
   2181c:	01085713          	srli	a4,a6,0x10
   21820:	00f888b3          	add	a7,a7,a5
   21824:	01170733          	add	a4,a4,a7
   21828:	00f77463          	bgeu	a4,a5,21830 <__multf3+0x4bc>
   2182c:	00650533          	add	a0,a0,t1
   21830:	01075793          	srli	a5,a4,0x10
   21834:	00a787b3          	add	a5,a5,a0
   21838:	00010e37          	lui	t3,0x10
   2183c:	02412e83          	lw	t4,36(sp)
   21840:	04f12223          	sw	a5,68(sp)
   21844:	fffe0793          	addi	a5,t3,-1 # ffff <_start-0x1>
   21848:	00f77733          	and	a4,a4,a5
   2184c:	00f87833          	and	a6,a6,a5
   21850:	01071713          	slli	a4,a4,0x10
   21854:	01070733          	add	a4,a4,a6
   21858:	00feff33          	and	t5,t4,a5
   2185c:	00f2f833          	and	a6,t0,a5
   21860:	04e12023          	sw	a4,64(sp)
   21864:	0102d313          	srli	t1,t0,0x10
   21868:	010ed713          	srli	a4,t4,0x10
   2186c:	00080513          	mv	a0,a6
   21870:	000f0593          	mv	a1,t5
   21874:	421020ef          	jal	ra,24494 <__mulsi3>
   21878:	00050893          	mv	a7,a0
   2187c:	00070593          	mv	a1,a4
   21880:	00080513          	mv	a0,a6
   21884:	411020ef          	jal	ra,24494 <__mulsi3>
   21888:	00050813          	mv	a6,a0
   2188c:	000f0593          	mv	a1,t5
   21890:	00030513          	mv	a0,t1
   21894:	401020ef          	jal	ra,24494 <__mulsi3>
   21898:	00050f13          	mv	t5,a0
   2189c:	00070593          	mv	a1,a4
   218a0:	00030513          	mv	a0,t1
   218a4:	3f1020ef          	jal	ra,24494 <__mulsi3>
   218a8:	0108d713          	srli	a4,a7,0x10
   218ac:	01e80833          	add	a6,a6,t5
   218b0:	01070733          	add	a4,a4,a6
   218b4:	00050c13          	mv	s8,a0
   218b8:	01e77463          	bgeu	a4,t5,218c0 <__multf3+0x54c>
   218bc:	01c50c33          	add	s8,a0,t3
   218c0:	01412f03          	lw	t5,20(sp)
   218c4:	00f77833          	and	a6,a4,a5
   218c8:	00f8f8b3          	and	a7,a7,a5
   218cc:	01081813          	slli	a6,a6,0x10
   218d0:	01075693          	srli	a3,a4,0x10
   218d4:	01180833          	add	a6,a6,a7
   218d8:	00ff78b3          	and	a7,t5,a5
   218dc:	00fff7b3          	and	a5,t6,a5
   218e0:	00d12623          	sw	a3,12(sp)
   218e4:	010f5393          	srli	t2,t5,0x10
   218e8:	010fd713          	srli	a4,t6,0x10
   218ec:	00088513          	mv	a0,a7
   218f0:	00078593          	mv	a1,a5
   218f4:	3a1020ef          	jal	ra,24494 <__mulsi3>
   218f8:	00050313          	mv	t1,a0
   218fc:	00070593          	mv	a1,a4
   21900:	00088513          	mv	a0,a7
   21904:	391020ef          	jal	ra,24494 <__mulsi3>
   21908:	00050893          	mv	a7,a0
   2190c:	00078593          	mv	a1,a5
   21910:	00038513          	mv	a0,t2
   21914:	381020ef          	jal	ra,24494 <__mulsi3>
   21918:	00050e13          	mv	t3,a0
   2191c:	00070593          	mv	a1,a4
   21920:	00038513          	mv	a0,t2
   21924:	371020ef          	jal	ra,24494 <__mulsi3>
   21928:	01035793          	srli	a5,t1,0x10
   2192c:	01c888b3          	add	a7,a7,t3
   21930:	011787b3          	add	a5,a5,a7
   21934:	01c7f663          	bgeu	a5,t3,21940 <__multf3+0x5cc>
   21938:	00010737          	lui	a4,0x10
   2193c:	00e50533          	add	a0,a0,a4
   21940:	000103b7          	lui	t2,0x10
   21944:	fff38713          	addi	a4,t2,-1 # ffff <_start-0x1>
   21948:	00e7f8b3          	and	a7,a5,a4
   2194c:	0107da13          	srli	s4,a5,0x10
   21950:	00aa0a33          	add	s4,s4,a0
   21954:	00ef77b3          	and	a5,t5,a4
   21958:	00e37533          	and	a0,t1,a4
   2195c:	01089893          	slli	a7,a7,0x10
   21960:	00eef733          	and	a4,t4,a4
   21964:	00a888b3          	add	a7,a7,a0
   21968:	010f5913          	srli	s2,t5,0x10
   2196c:	010ede13          	srli	t3,t4,0x10
   21970:	00078513          	mv	a0,a5
   21974:	00070593          	mv	a1,a4
   21978:	31d020ef          	jal	ra,24494 <__mulsi3>
   2197c:	00050313          	mv	t1,a0
   21980:	000e0593          	mv	a1,t3
   21984:	00078513          	mv	a0,a5
   21988:	30d020ef          	jal	ra,24494 <__mulsi3>
   2198c:	00050993          	mv	s3,a0
   21990:	00070593          	mv	a1,a4
   21994:	00090513          	mv	a0,s2
   21998:	2fd020ef          	jal	ra,24494 <__mulsi3>
   2199c:	00050713          	mv	a4,a0
   219a0:	000e0593          	mv	a1,t3
   219a4:	00090513          	mv	a0,s2
   219a8:	2ed020ef          	jal	ra,24494 <__mulsi3>
   219ac:	01035793          	srli	a5,t1,0x10
   219b0:	00e989b3          	add	s3,s3,a4
   219b4:	013787b3          	add	a5,a5,s3
   219b8:	00e7f463          	bgeu	a5,a4,219c0 <__multf3+0x64c>
   219bc:	00750533          	add	a0,a0,t2
   219c0:	000103b7          	lui	t2,0x10
   219c4:	fff38593          	addi	a1,t2,-1 # ffff <_start-0x1>
   219c8:	00b7f733          	and	a4,a5,a1
   219cc:	00b37333          	and	t1,t1,a1
   219d0:	01071713          	slli	a4,a4,0x10
   219d4:	00670733          	add	a4,a4,t1
   219d8:	02812303          	lw	t1,40(sp)
   219dc:	0107d993          	srli	s3,a5,0x10
   219e0:	00b2f7b3          	and	a5,t0,a1
   219e4:	00b37ab3          	and	s5,t1,a1
   219e8:	00a989b3          	add	s3,s3,a0
   219ec:	0102d913          	srli	s2,t0,0x10
   219f0:	01035b13          	srli	s6,t1,0x10
   219f4:	00078513          	mv	a0,a5
   219f8:	000a8593          	mv	a1,s5
   219fc:	299020ef          	jal	ra,24494 <__mulsi3>
   21a00:	00050e13          	mv	t3,a0
   21a04:	000b0593          	mv	a1,s6
   21a08:	00078513          	mv	a0,a5
   21a0c:	289020ef          	jal	ra,24494 <__mulsi3>
   21a10:	00050793          	mv	a5,a0
   21a14:	000a8593          	mv	a1,s5
   21a18:	00090513          	mv	a0,s2
   21a1c:	279020ef          	jal	ra,24494 <__mulsi3>
   21a20:	00050a93          	mv	s5,a0
   21a24:	000b0593          	mv	a1,s6
   21a28:	00090513          	mv	a0,s2
   21a2c:	269020ef          	jal	ra,24494 <__mulsi3>
   21a30:	010e5693          	srli	a3,t3,0x10
   21a34:	015787b3          	add	a5,a5,s5
   21a38:	00f686b3          	add	a3,a3,a5
   21a3c:	0156f463          	bgeu	a3,s5,21a44 <__multf3+0x6d0>
   21a40:	00750533          	add	a0,a0,t2
   21a44:	00010d37          	lui	s10,0x10
   21a48:	fffd0393          	addi	t2,s10,-1 # ffff <_start-0x1>
   21a4c:	0076f7b3          	and	a5,a3,t2
   21a50:	007e7e33          	and	t3,t3,t2
   21a54:	01079793          	slli	a5,a5,0x10
   21a58:	01c787b3          	add	a5,a5,t3
   21a5c:	01812e03          	lw	t3,24(sp)
   21a60:	0106d913          	srli	s2,a3,0x10
   21a64:	00a90933          	add	s2,s2,a0
   21a68:	007e7cb3          	and	s9,t3,t2
   21a6c:	007ff3b3          	and	t2,t6,t2
   21a70:	010e5d93          	srli	s11,t3,0x10
   21a74:	010fdb13          	srli	s6,t6,0x10
   21a78:	000c8513          	mv	a0,s9
   21a7c:	00038593          	mv	a1,t2
   21a80:	215020ef          	jal	ra,24494 <__mulsi3>
   21a84:	00050a93          	mv	s5,a0
   21a88:	000b0593          	mv	a1,s6
   21a8c:	000c8513          	mv	a0,s9
   21a90:	205020ef          	jal	ra,24494 <__mulsi3>
   21a94:	00050c93          	mv	s9,a0
   21a98:	00038593          	mv	a1,t2
   21a9c:	000d8513          	mv	a0,s11
   21aa0:	1f5020ef          	jal	ra,24494 <__mulsi3>
   21aa4:	00050393          	mv	t2,a0
   21aa8:	000b0593          	mv	a1,s6
   21aac:	000d8513          	mv	a0,s11
   21ab0:	1e5020ef          	jal	ra,24494 <__mulsi3>
   21ab4:	010ad613          	srli	a2,s5,0x10
   21ab8:	007c8cb3          	add	s9,s9,t2
   21abc:	01960cb3          	add	s9,a2,s9
   21ac0:	007cf463          	bgeu	s9,t2,21ac8 <__multf3+0x754>
   21ac4:	01a50533          	add	a0,a0,s10
   21ac8:	04412603          	lw	a2,68(sp)
   21acc:	010cd693          	srli	a3,s9,0x10
   21ad0:	00a686b3          	add	a3,a3,a0
   21ad4:	00c12503          	lw	a0,12(sp)
   21ad8:	00c80633          	add	a2,a6,a2
   21adc:	010630b3          	sltu	ra,a2,a6
   21ae0:	00150833          	add	a6,a0,ra
   21ae4:	000103b7          	lui	t2,0x10
   21ae8:	fff38593          	addi	a1,t2,-1 # ffff <_start-0x1>
   21aec:	01880c33          	add	s8,a6,s8
   21af0:	01160633          	add	a2,a2,a7
   21af4:	011638b3          	sltu	a7,a2,a7
   21af8:	014c0533          	add	a0,s8,s4
   21afc:	00bcfcb3          	and	s9,s9,a1
   21b00:	01150833          	add	a6,a0,a7
   21b04:	00bafab3          	and	s5,s5,a1
   21b08:	010c9c93          	slli	s9,s9,0x10
   21b0c:	015c8cb3          	add	s9,s9,s5
   21b10:	01453533          	sltu	a0,a0,s4
   21b14:	00e80ab3          	add	s5,a6,a4
   21b18:	01183833          	sltu	a6,a6,a7
   21b1c:	001c3c33          	sltu	s8,s8,ra
   21b20:	01056833          	or	a6,a0,a6
   21b24:	01880833          	add	a6,a6,s8
   21b28:	00eab733          	sltu	a4,s5,a4
   21b2c:	01380833          	add	a6,a6,s3
   21b30:	00e800b3          	add	ra,a6,a4
   21b34:	00fa8ab3          	add	s5,s5,a5
   21b38:	01208533          	add	a0,ra,s2
   21b3c:	00fab7b3          	sltu	a5,s5,a5
   21b40:	00f508b3          	add	a7,a0,a5
   21b44:	019a8ab3          	add	s5,s5,s9
   21b48:	04c12223          	sw	a2,68(sp)
   21b4c:	05512423          	sw	s5,72(sp)
   21b50:	00d88633          	add	a2,a7,a3
   21b54:	019abab3          	sltu	s5,s5,s9
   21b58:	01560a33          	add	s4,a2,s5
   21b5c:	00f8b7b3          	sltu	a5,a7,a5
   21b60:	01383833          	sltu	a6,a6,s3
   21b64:	00e0b733          	sltu	a4,ra,a4
   21b68:	01253533          	sltu	a0,a0,s2
   21b6c:	00f56533          	or	a0,a0,a5
   21b70:	00e86833          	or	a6,a6,a4
   21b74:	00d636b3          	sltu	a3,a2,a3
   21b78:	015a3ab3          	sltu	s5,s4,s5
   21b7c:	00a80833          	add	a6,a6,a0
   21b80:	0156eab3          	or	s5,a3,s5
   21b84:	01580ab3          	add	s5,a6,s5
   21b88:	02c12803          	lw	a6,44(sp)
   21b8c:	0102d913          	srli	s2,t0,0x10
   21b90:	00b2f2b3          	and	t0,t0,a1
   21b94:	00b877b3          	and	a5,a6,a1
   21b98:	05412623          	sw	s4,76(sp)
   21b9c:	05512823          	sw	s5,80(sp)
   21ba0:	01085893          	srli	a7,a6,0x10
   21ba4:	00028513          	mv	a0,t0
   21ba8:	00078593          	mv	a1,a5
   21bac:	0e9020ef          	jal	ra,24494 <__mulsi3>
   21bb0:	00050c93          	mv	s9,a0
   21bb4:	00088593          	mv	a1,a7
   21bb8:	00028513          	mv	a0,t0
   21bbc:	0d9020ef          	jal	ra,24494 <__mulsi3>
   21bc0:	00050713          	mv	a4,a0
   21bc4:	00078593          	mv	a1,a5
   21bc8:	00090513          	mv	a0,s2
   21bcc:	0c9020ef          	jal	ra,24494 <__mulsi3>
   21bd0:	00050793          	mv	a5,a0
   21bd4:	00088593          	mv	a1,a7
   21bd8:	00090513          	mv	a0,s2
   21bdc:	0b9020ef          	jal	ra,24494 <__mulsi3>
   21be0:	010cd613          	srli	a2,s9,0x10
   21be4:	00f70733          	add	a4,a4,a5
   21be8:	00e60633          	add	a2,a2,a4
   21bec:	00f67463          	bgeu	a2,a5,21bf4 <__multf3+0x880>
   21bf0:	00750533          	add	a0,a0,t2
   21bf4:	01c12883          	lw	a7,28(sp)
   21bf8:	00010737          	lui	a4,0x10
   21bfc:	fff70793          	addi	a5,a4,-1 # ffff <_start-0x1>
   21c00:	01065a13          	srli	s4,a2,0x10
   21c04:	00f67633          	and	a2,a2,a5
   21c08:	01061613          	slli	a2,a2,0x10
   21c0c:	00fcfcb3          	and	s9,s9,a5
   21c10:	010fd293          	srli	t0,t6,0x10
   21c14:	00f8f933          	and	s2,a7,a5
   21c18:	00ffffb3          	and	t6,t6,a5
   21c1c:	00aa0a33          	add	s4,s4,a0
   21c20:	01960cb3          	add	s9,a2,s9
   21c24:	0108d393          	srli	t2,a7,0x10
   21c28:	00090513          	mv	a0,s2
   21c2c:	000f8593          	mv	a1,t6
   21c30:	065020ef          	jal	ra,24494 <__mulsi3>
   21c34:	00050b13          	mv	s6,a0
   21c38:	00028593          	mv	a1,t0
   21c3c:	00090513          	mv	a0,s2
   21c40:	055020ef          	jal	ra,24494 <__mulsi3>
   21c44:	00050793          	mv	a5,a0
   21c48:	000f8593          	mv	a1,t6
   21c4c:	00038513          	mv	a0,t2
   21c50:	045020ef          	jal	ra,24494 <__mulsi3>
   21c54:	00050f93          	mv	t6,a0
   21c58:	00028593          	mv	a1,t0
   21c5c:	00038513          	mv	a0,t2
   21c60:	035020ef          	jal	ra,24494 <__mulsi3>
   21c64:	010b5693          	srli	a3,s6,0x10
   21c68:	01f787b3          	add	a5,a5,t6
   21c6c:	00f686b3          	add	a3,a3,a5
   21c70:	01f6f463          	bgeu	a3,t6,21c78 <__multf3+0x904>
   21c74:	00e50533          	add	a0,a0,a4
   21c78:	000102b7          	lui	t0,0x10
   21c7c:	fff28793          	addi	a5,t0,-1 # ffff <_start-0x1>
   21c80:	0106d993          	srli	s3,a3,0x10
   21c84:	00f6f6b3          	and	a3,a3,a5
   21c88:	00ff7733          	and	a4,t5,a5
   21c8c:	01069693          	slli	a3,a3,0x10
   21c90:	00fb7b33          	and	s6,s6,a5
   21c94:	00f377b3          	and	a5,t1,a5
   21c98:	00a989b3          	add	s3,s3,a0
   21c9c:	01668b33          	add	s6,a3,s6
   21ca0:	010f5913          	srli	s2,t5,0x10
   21ca4:	01035393          	srli	t2,t1,0x10
   21ca8:	00070513          	mv	a0,a4
   21cac:	00078593          	mv	a1,a5
   21cb0:	7e4020ef          	jal	ra,24494 <__mulsi3>
   21cb4:	00050f93          	mv	t6,a0
   21cb8:	00038593          	mv	a1,t2
   21cbc:	00070513          	mv	a0,a4
   21cc0:	7d4020ef          	jal	ra,24494 <__mulsi3>
   21cc4:	00050713          	mv	a4,a0
   21cc8:	00078593          	mv	a1,a5
   21ccc:	00090513          	mv	a0,s2
   21cd0:	7c4020ef          	jal	ra,24494 <__mulsi3>
   21cd4:	00050a93          	mv	s5,a0
   21cd8:	00038593          	mv	a1,t2
   21cdc:	00090513          	mv	a0,s2
   21ce0:	7b4020ef          	jal	ra,24494 <__mulsi3>
   21ce4:	010fd793          	srli	a5,t6,0x10
   21ce8:	01570733          	add	a4,a4,s5
   21cec:	00e787b3          	add	a5,a5,a4
   21cf0:	0157f463          	bgeu	a5,s5,21cf8 <__multf3+0x984>
   21cf4:	00550533          	add	a0,a0,t0
   21cf8:	000103b7          	lui	t2,0x10
   21cfc:	fff38693          	addi	a3,t2,-1 # ffff <_start-0x1>
   21d00:	00d7f733          	and	a4,a5,a3
   21d04:	0107d913          	srli	s2,a5,0x10
   21d08:	00dfffb3          	and	t6,t6,a3
   21d0c:	00de72b3          	and	t0,t3,a3
   21d10:	00defab3          	and	s5,t4,a3
   21d14:	01071713          	slli	a4,a4,0x10
   21d18:	00a90933          	add	s2,s2,a0
   21d1c:	01f70733          	add	a4,a4,t6
   21d20:	010e5793          	srli	a5,t3,0x10
   21d24:	010edc13          	srli	s8,t4,0x10
   21d28:	00028513          	mv	a0,t0
   21d2c:	000a8593          	mv	a1,s5
   21d30:	764020ef          	jal	ra,24494 <__mulsi3>
   21d34:	00050f93          	mv	t6,a0
   21d38:	000c0593          	mv	a1,s8
   21d3c:	00028513          	mv	a0,t0
   21d40:	754020ef          	jal	ra,24494 <__mulsi3>
   21d44:	00050293          	mv	t0,a0
   21d48:	000a8593          	mv	a1,s5
   21d4c:	00078513          	mv	a0,a5
   21d50:	744020ef          	jal	ra,24494 <__mulsi3>
   21d54:	00050a93          	mv	s5,a0
   21d58:	000c0593          	mv	a1,s8
   21d5c:	00078513          	mv	a0,a5
   21d60:	734020ef          	jal	ra,24494 <__mulsi3>
   21d64:	015286b3          	add	a3,t0,s5
   21d68:	010fd293          	srli	t0,t6,0x10
   21d6c:	005686b3          	add	a3,a3,t0
   21d70:	0156f463          	bgeu	a3,s5,21d78 <__multf3+0xa04>
   21d74:	00750533          	add	a0,a0,t2
   21d78:	00010ab7          	lui	s5,0x10
   21d7c:	fffa8393          	addi	t2,s5,-1 # ffff <_start-0x1>
   21d80:	0076f7b3          	and	a5,a3,t2
   21d84:	007ff2b3          	and	t0,t6,t2
   21d88:	01079793          	slli	a5,a5,0x10
   21d8c:	005782b3          	add	t0,a5,t0
   21d90:	04c12783          	lw	a5,76(sp)
   21d94:	05012f83          	lw	t6,80(sp)
   21d98:	0106dc13          	srli	s8,a3,0x10
   21d9c:	00fc87b3          	add	a5,s9,a5
   21da0:	0197b633          	sltu	a2,a5,s9
   21da4:	01fa0fb3          	add	t6,s4,t6
   21da8:	00cf8db3          	add	s11,t6,a2
   21dac:	016787b3          	add	a5,a5,s6
   21db0:	0167b6b3          	sltu	a3,a5,s6
   21db4:	013d8b33          	add	s6,s11,s3
   21db8:	00db0d33          	add	s10,s6,a3
   21dbc:	00e787b3          	add	a5,a5,a4
   21dc0:	00e7b733          	sltu	a4,a5,a4
   21dc4:	012d05b3          	add	a1,s10,s2
   21dc8:	00e58cb3          	add	s9,a1,a4
   21dcc:	00ac0c33          	add	s8,s8,a0
   21dd0:	005787b3          	add	a5,a5,t0
   21dd4:	04f12623          	sw	a5,76(sp)
   21dd8:	014fbfb3          	sltu	t6,t6,s4
   21ddc:	0057b7b3          	sltu	a5,a5,t0
   21de0:	00cdb633          	sltu	a2,s11,a2
   21de4:	018c82b3          	add	t0,s9,s8
   21de8:	013b39b3          	sltu	s3,s6,s3
   21dec:	00dd36b3          	sltu	a3,s10,a3
   21df0:	00f280b3          	add	ra,t0,a5
   21df4:	00ecb733          	sltu	a4,s9,a4
   21df8:	00cfefb3          	or	t6,t6,a2
   21dfc:	00d9e9b3          	or	s3,s3,a3
   21e00:	0125b5b3          	sltu	a1,a1,s2
   21e04:	0182bc33          	sltu	s8,t0,s8
   21e08:	013f8fb3          	add	t6,t6,s3
   21e0c:	00e5e5b3          	or	a1,a1,a4
   21e10:	00f0b7b3          	sltu	a5,ra,a5
   21e14:	00bf85b3          	add	a1,t6,a1
   21e18:	00fc67b3          	or	a5,s8,a5
   21e1c:	00f587b3          	add	a5,a1,a5
   21e20:	007e7733          	and	a4,t3,t2
   21e24:	007373b3          	and	t2,t1,t2
   21e28:	04f12a23          	sw	a5,84(sp)
   21e2c:	04112823          	sw	ra,80(sp)
   21e30:	010e5293          	srli	t0,t3,0x10
   21e34:	01035793          	srli	a5,t1,0x10
   21e38:	00070513          	mv	a0,a4
   21e3c:	00038593          	mv	a1,t2
   21e40:	654020ef          	jal	ra,24494 <__mulsi3>
   21e44:	00050f93          	mv	t6,a0
   21e48:	00078593          	mv	a1,a5
   21e4c:	00070513          	mv	a0,a4
   21e50:	644020ef          	jal	ra,24494 <__mulsi3>
   21e54:	00050713          	mv	a4,a0
   21e58:	00038593          	mv	a1,t2
   21e5c:	00028513          	mv	a0,t0
   21e60:	634020ef          	jal	ra,24494 <__mulsi3>
   21e64:	00050393          	mv	t2,a0
   21e68:	00078593          	mv	a1,a5
   21e6c:	00028513          	mv	a0,t0
   21e70:	624020ef          	jal	ra,24494 <__mulsi3>
   21e74:	010fd613          	srli	a2,t6,0x10
   21e78:	00770733          	add	a4,a4,t2
   21e7c:	00e60633          	add	a2,a2,a4
   21e80:	00767463          	bgeu	a2,t2,21e88 <__multf3+0xb14>
   21e84:	01550533          	add	a0,a0,s5
   21e88:	000102b7          	lui	t0,0x10
   21e8c:	fff28793          	addi	a5,t0,-1 # ffff <_start-0x1>
   21e90:	01065713          	srli	a4,a2,0x10
   21e94:	00f67633          	and	a2,a2,a5
   21e98:	00a709b3          	add	s3,a4,a0
   21e9c:	01061613          	slli	a2,a2,0x10
   21ea0:	00fff733          	and	a4,t6,a5
   21ea4:	010f5913          	srli	s2,t5,0x10
   21ea8:	00f87fb3          	and	t6,a6,a5
   21eac:	00ff7f33          	and	t5,t5,a5
   21eb0:	00e60733          	add	a4,a2,a4
   21eb4:	01085393          	srli	t2,a6,0x10
   21eb8:	000f0513          	mv	a0,t5
   21ebc:	000f8593          	mv	a1,t6
   21ec0:	5d4020ef          	jal	ra,24494 <__mulsi3>
   21ec4:	00050a13          	mv	s4,a0
   21ec8:	00038593          	mv	a1,t2
   21ecc:	000f0513          	mv	a0,t5
   21ed0:	5c4020ef          	jal	ra,24494 <__mulsi3>
   21ed4:	00050793          	mv	a5,a0
   21ed8:	000f8593          	mv	a1,t6
   21edc:	00090513          	mv	a0,s2
   21ee0:	5b4020ef          	jal	ra,24494 <__mulsi3>
   21ee4:	00050f93          	mv	t6,a0
   21ee8:	00038593          	mv	a1,t2
   21eec:	00090513          	mv	a0,s2
   21ef0:	5a4020ef          	jal	ra,24494 <__mulsi3>
   21ef4:	01f786b3          	add	a3,a5,t6
   21ef8:	010a5793          	srli	a5,s4,0x10
   21efc:	00f686b3          	add	a3,a3,a5
   21f00:	01f6f463          	bgeu	a3,t6,21f08 <__multf3+0xb94>
   21f04:	00550533          	add	a0,a0,t0
   21f08:	00010f37          	lui	t5,0x10
   21f0c:	ffff0613          	addi	a2,t5,-1 # ffff <_start-0x1>
   21f10:	0106d913          	srli	s2,a3,0x10
   21f14:	00c6f6b3          	and	a3,a3,a2
   21f18:	01069693          	slli	a3,a3,0x10
   21f1c:	00ca7a33          	and	s4,s4,a2
   21f20:	010ed393          	srli	t2,t4,0x10
   21f24:	00c8f2b3          	and	t0,a7,a2
   21f28:	00cefeb3          	and	t4,t4,a2
   21f2c:	00a90933          	add	s2,s2,a0
   21f30:	01468a33          	add	s4,a3,s4
   21f34:	0108d793          	srli	a5,a7,0x10
   21f38:	00028513          	mv	a0,t0
   21f3c:	000e8593          	mv	a1,t4
   21f40:	554020ef          	jal	ra,24494 <__mulsi3>
   21f44:	00050f93          	mv	t6,a0
   21f48:	00038593          	mv	a1,t2
   21f4c:	00028513          	mv	a0,t0
   21f50:	544020ef          	jal	ra,24494 <__mulsi3>
   21f54:	00050293          	mv	t0,a0
   21f58:	000e8593          	mv	a1,t4
   21f5c:	00078513          	mv	a0,a5
   21f60:	534020ef          	jal	ra,24494 <__mulsi3>
   21f64:	00050e93          	mv	t4,a0
   21f68:	00038593          	mv	a1,t2
   21f6c:	00078513          	mv	a0,a5
   21f70:	524020ef          	jal	ra,24494 <__mulsi3>
   21f74:	010fd693          	srli	a3,t6,0x10
   21f78:	01d282b3          	add	t0,t0,t4
   21f7c:	005686b3          	add	a3,a3,t0
   21f80:	01d6f463          	bgeu	a3,t4,21f88 <__multf3+0xc14>
   21f84:	01e50533          	add	a0,a0,t5
   21f88:	00010eb7          	lui	t4,0x10
   21f8c:	fffe8793          	addi	a5,t4,-1 # ffff <_start-0x1>
   21f90:	00f6f5b3          	and	a1,a3,a5
   21f94:	0106d393          	srli	t2,a3,0x10
   21f98:	01059593          	slli	a1,a1,0x10
   21f9c:	00ffffb3          	and	t6,t6,a5
   21fa0:	010e5a93          	srli	s5,t3,0x10
   21fa4:	00fe7e33          	and	t3,t3,a5
   21fa8:	00f877b3          	and	a5,a6,a5
   21fac:	00a383b3          	add	t2,t2,a0
   21fb0:	01f58fb3          	add	t6,a1,t6
   21fb4:	01085293          	srli	t0,a6,0x10
   21fb8:	000e0513          	mv	a0,t3
   21fbc:	00078593          	mv	a1,a5
   21fc0:	4d4020ef          	jal	ra,24494 <__mulsi3>
   21fc4:	00050f13          	mv	t5,a0
   21fc8:	00028593          	mv	a1,t0
   21fcc:	000e0513          	mv	a0,t3
   21fd0:	4c4020ef          	jal	ra,24494 <__mulsi3>
   21fd4:	00050e13          	mv	t3,a0
   21fd8:	00078593          	mv	a1,a5
   21fdc:	000a8513          	mv	a0,s5
   21fe0:	4b4020ef          	jal	ra,24494 <__mulsi3>
   21fe4:	00050793          	mv	a5,a0
   21fe8:	00028593          	mv	a1,t0
   21fec:	000a8513          	mv	a0,s5
   21ff0:	4a4020ef          	jal	ra,24494 <__mulsi3>
   21ff4:	010f5693          	srli	a3,t5,0x10
   21ff8:	00fe0e33          	add	t3,t3,a5
   21ffc:	01c686b3          	add	a3,a3,t3
   22000:	00f6f463          	bgeu	a3,a5,22008 <__multf3+0xc94>
   22004:	01d50533          	add	a0,a0,t4
   22008:	00010eb7          	lui	t4,0x10
   2200c:	fffe8613          	addi	a2,t4,-1 # ffff <_start-0x1>
   22010:	00c6fe33          	and	t3,a3,a2
   22014:	00cf7f33          	and	t5,t5,a2
   22018:	010e1e13          	slli	t3,t3,0x10
   2201c:	0106d793          	srli	a5,a3,0x10
   22020:	01ee0e33          	add	t3,t3,t5
   22024:	01035b13          	srli	s6,t1,0x10
   22028:	00c8ff33          	and	t5,a7,a2
   2202c:	00c37333          	and	t1,t1,a2
   22030:	00a782b3          	add	t0,a5,a0
   22034:	00030593          	mv	a1,t1
   22038:	0108d793          	srli	a5,a7,0x10
   2203c:	000f0513          	mv	a0,t5
   22040:	454020ef          	jal	ra,24494 <__mulsi3>
   22044:	00050a93          	mv	s5,a0
   22048:	000b0593          	mv	a1,s6
   2204c:	000f0513          	mv	a0,t5
   22050:	444020ef          	jal	ra,24494 <__mulsi3>
   22054:	00050f13          	mv	t5,a0
   22058:	00030593          	mv	a1,t1
   2205c:	00078513          	mv	a0,a5
   22060:	434020ef          	jal	ra,24494 <__mulsi3>
   22064:	00050313          	mv	t1,a0
   22068:	000b0593          	mv	a1,s6
   2206c:	00078513          	mv	a0,a5
   22070:	424020ef          	jal	ra,24494 <__mulsi3>
   22074:	010ad693          	srli	a3,s5,0x10
   22078:	006f0f33          	add	t5,t5,t1
   2207c:	01e686b3          	add	a3,a3,t5
   22080:	0066f463          	bgeu	a3,t1,22088 <__multf3+0xd14>
   22084:	01d50533          	add	a0,a0,t4
   22088:	05012583          	lw	a1,80(sp)
   2208c:	00010eb7          	lui	t4,0x10
   22090:	fffe8313          	addi	t1,t4,-1 # ffff <_start-0x1>
   22094:	00b705b3          	add	a1,a4,a1
   22098:	00e5b633          	sltu	a2,a1,a4
   2209c:	05412703          	lw	a4,84(sp)
   220a0:	0066ff33          	and	t5,a3,t1
   220a4:	006afab3          	and	s5,s5,t1
   220a8:	00e98733          	add	a4,s3,a4
   220ac:	00c70cb3          	add	s9,a4,a2
   220b0:	014585b3          	add	a1,a1,s4
   220b4:	010f1f13          	slli	t5,t5,0x10
   220b8:	0106d793          	srli	a5,a3,0x10
   220bc:	015f0f33          	add	t5,t5,s5
   220c0:	0145b6b3          	sltu	a3,a1,s4
   220c4:	012c8ab3          	add	s5,s9,s2
   220c8:	00da8c33          	add	s8,s5,a3
   220cc:	01f585b3          	add	a1,a1,t6
   220d0:	007c0a33          	add	s4,s8,t2
   220d4:	00dc36b3          	sltu	a3,s8,a3
   220d8:	04b12823          	sw	a1,80(sp)
   220dc:	01373733          	sltu	a4,a4,s3
   220e0:	01f5b5b3          	sltu	a1,a1,t6
   220e4:	00ccb633          	sltu	a2,s9,a2
   220e8:	012ab933          	sltu	s2,s5,s2
   220ec:	00ba0b33          	add	s6,s4,a1
   220f0:	00a78533          	add	a0,a5,a0
   220f4:	00c76733          	or	a4,a4,a2
   220f8:	00d967b3          	or	a5,s2,a3
   220fc:	00f70733          	add	a4,a4,a5
   22100:	007a33b3          	sltu	t2,s4,t2
   22104:	00bb37b3          	sltu	a5,s6,a1
   22108:	00f3e7b3          	or	a5,t2,a5
   2210c:	01cb0fb3          	add	t6,s6,t3
   22110:	00f70733          	add	a4,a4,a5
   22114:	005707b3          	add	a5,a4,t0
   22118:	01cfbe33          	sltu	t3,t6,t3
   2211c:	01c786b3          	add	a3,a5,t3
   22120:	01ef8fb3          	add	t6,t6,t5
   22124:	00a68733          	add	a4,a3,a0
   22128:	01efbf33          	sltu	t5,t6,t5
   2212c:	05f12a23          	sw	t6,84(sp)
   22130:	01e70fb3          	add	t6,a4,t5
   22134:	00a73533          	sltu	a0,a4,a0
   22138:	0057b7b3          	sltu	a5,a5,t0
   2213c:	01c6be33          	sltu	t3,a3,t3
   22140:	01efbf33          	sltu	t5,t6,t5
   22144:	01e56f33          	or	t5,a0,t5
   22148:	01c7e7b3          	or	a5,a5,t3
   2214c:	01e787b3          	add	a5,a5,t5
   22150:	04f12e23          	sw	a5,92(sp)
   22154:	0108df13          	srli	t5,a7,0x10
   22158:	01085793          	srli	a5,a6,0x10
   2215c:	0068f8b3          	and	a7,a7,t1
   22160:	00687833          	and	a6,a6,t1
   22164:	05f12c23          	sw	t6,88(sp)
   22168:	00088513          	mv	a0,a7
   2216c:	00080593          	mv	a1,a6
   22170:	324020ef          	jal	ra,24494 <__mulsi3>
   22174:	00050e13          	mv	t3,a0
   22178:	00078593          	mv	a1,a5
   2217c:	00088513          	mv	a0,a7
   22180:	314020ef          	jal	ra,24494 <__mulsi3>
   22184:	00050713          	mv	a4,a0
   22188:	00080593          	mv	a1,a6
   2218c:	000f0513          	mv	a0,t5
   22190:	304020ef          	jal	ra,24494 <__mulsi3>
   22194:	00050813          	mv	a6,a0
   22198:	00078593          	mv	a1,a5
   2219c:	000f0513          	mv	a0,t5
   221a0:	2f4020ef          	jal	ra,24494 <__mulsi3>
   221a4:	010e5793          	srli	a5,t3,0x10
   221a8:	01070733          	add	a4,a4,a6
   221ac:	00e787b3          	add	a5,a5,a4
   221b0:	0107f463          	bgeu	a5,a6,221b8 <__multf3+0xe44>
   221b4:	01d50533          	add	a0,a0,t4
   221b8:	0067f733          	and	a4,a5,t1
   221bc:	01071713          	slli	a4,a4,0x10
   221c0:	006e7333          	and	t1,t3,t1
   221c4:	00670333          	add	t1,a4,t1
   221c8:	05812703          	lw	a4,88(sp)
   221cc:	05c12683          	lw	a3,92(sp)
   221d0:	0107d793          	srli	a5,a5,0x10
   221d4:	00e30733          	add	a4,t1,a4
   221d8:	00673333          	sltu	t1,a4,t1
   221dc:	00d787b3          	add	a5,a5,a3
   221e0:	006787b3          	add	a5,a5,t1
   221e4:	00a787b3          	add	a5,a5,a0
   221e8:	04f12e23          	sw	a5,92(sp)
   221ec:	04e12c23          	sw	a4,88(sp)
   221f0:	04012783          	lw	a5,64(sp)
   221f4:	04412703          	lw	a4,68(sp)
   221f8:	05010593          	addi	a1,sp,80
   221fc:	00e7e7b3          	or	a5,a5,a4
   22200:	04812703          	lw	a4,72(sp)
   22204:	00e7e733          	or	a4,a5,a4
   22208:	04c12783          	lw	a5,76(sp)
   2220c:	00d79793          	slli	a5,a5,0xd
   22210:	00e7e7b3          	or	a5,a5,a4
   22214:	04010713          	addi	a4,sp,64
   22218:	00c72683          	lw	a3,12(a4)
   2221c:	01072603          	lw	a2,16(a4)
   22220:	00470713          	addi	a4,a4,4
   22224:	0136d693          	srli	a3,a3,0x13
   22228:	00d61613          	slli	a2,a2,0xd
   2222c:	00c6e6b3          	or	a3,a3,a2
   22230:	fed72e23          	sw	a3,-4(a4)
   22234:	fee592e3          	bne	a1,a4,22218 <__multf3+0xea4>
   22238:	04012703          	lw	a4,64(sp)
   2223c:	04812683          	lw	a3,72(sp)
   22240:	00f037b3          	snez	a5,a5
   22244:	00e7e7b3          	or	a5,a5,a4
   22248:	02d12c23          	sw	a3,56(sp)
   2224c:	04c12703          	lw	a4,76(sp)
   22250:	04412683          	lw	a3,68(sp)
   22254:	02f12823          	sw	a5,48(sp)
   22258:	02e12e23          	sw	a4,60(sp)
   2225c:	02d12a23          	sw	a3,52(sp)
   22260:	00b71693          	slli	a3,a4,0xb
   22264:	2206d063          	bgez	a3,22484 <__multf3+0x1110>
   22268:	01f79793          	slli	a5,a5,0x1f
   2226c:	03010713          	addi	a4,sp,48
   22270:	03c10593          	addi	a1,sp,60
   22274:	00072683          	lw	a3,0(a4)
   22278:	00472603          	lw	a2,4(a4)
   2227c:	00470713          	addi	a4,a4,4
   22280:	0016d693          	srli	a3,a3,0x1
   22284:	01f61613          	slli	a2,a2,0x1f
   22288:	00c6e6b3          	or	a3,a3,a2
   2228c:	fed72e23          	sw	a3,-4(a4)
   22290:	fee592e3          	bne	a1,a4,22274 <__multf3+0xf00>
   22294:	03c12703          	lw	a4,60(sp)
   22298:	00f037b3          	snez	a5,a5
   2229c:	00175713          	srli	a4,a4,0x1
   222a0:	02e12e23          	sw	a4,60(sp)
   222a4:	03012703          	lw	a4,48(sp)
   222a8:	00f767b3          	or	a5,a4,a5
   222ac:	02f12823          	sw	a5,48(sp)
   222b0:	000047b7          	lui	a5,0x4
   222b4:	fff78793          	addi	a5,a5,-1 # 3fff <_start-0xc001>
   222b8:	00fb87b3          	add	a5,s7,a5
   222bc:	1ef05463          	blez	a5,224a4 <__multf3+0x1130>
   222c0:	03012703          	lw	a4,48(sp)
   222c4:	00777693          	andi	a3,a4,7
   222c8:	04068463          	beqz	a3,22310 <__multf3+0xf9c>
   222cc:	00f77693          	andi	a3,a4,15
   222d0:	00400613          	li	a2,4
   222d4:	02c68e63          	beq	a3,a2,22310 <__multf3+0xf9c>
   222d8:	03412683          	lw	a3,52(sp)
   222dc:	00470713          	addi	a4,a4,4
   222e0:	02e12823          	sw	a4,48(sp)
   222e4:	00473713          	sltiu	a4,a4,4
   222e8:	00d706b3          	add	a3,a4,a3
   222ec:	00e6b733          	sltu	a4,a3,a4
   222f0:	02d12a23          	sw	a3,52(sp)
   222f4:	03812683          	lw	a3,56(sp)
   222f8:	00d706b3          	add	a3,a4,a3
   222fc:	02d12c23          	sw	a3,56(sp)
   22300:	00e6b6b3          	sltu	a3,a3,a4
   22304:	03c12703          	lw	a4,60(sp)
   22308:	00e686b3          	add	a3,a3,a4
   2230c:	02d12e23          	sw	a3,60(sp)
   22310:	03c12703          	lw	a4,60(sp)
   22314:	00b71693          	slli	a3,a4,0xb
   22318:	0006de63          	bgez	a3,22334 <__multf3+0xfc0>
   2231c:	fff007b7          	lui	a5,0xfff00
   22320:	fff78793          	addi	a5,a5,-1 # ffefffff <__global_pointer$+0xffed8a8f>
   22324:	00f77733          	and	a4,a4,a5
   22328:	000047b7          	lui	a5,0x4
   2232c:	02e12e23          	sw	a4,60(sp)
   22330:	00fb87b3          	add	a5,s7,a5
   22334:	03010713          	addi	a4,sp,48
   22338:	03c10593          	addi	a1,sp,60
   2233c:	00072683          	lw	a3,0(a4)
   22340:	00472603          	lw	a2,4(a4)
   22344:	00470713          	addi	a4,a4,4
   22348:	0036d693          	srli	a3,a3,0x3
   2234c:	01d61613          	slli	a2,a2,0x1d
   22350:	00c6e6b3          	or	a3,a3,a2
   22354:	fed72e23          	sw	a3,-4(a4)
   22358:	feb712e3          	bne	a4,a1,2233c <__multf3+0xfc8>
   2235c:	00008737          	lui	a4,0x8
   22360:	ffe70693          	addi	a3,a4,-2 # 7ffe <_start-0x8002>
   22364:	12f6c463          	blt	a3,a5,2248c <__multf3+0x1118>
   22368:	03c12703          	lw	a4,60(sp)
   2236c:	00375713          	srli	a4,a4,0x3
   22370:	02e12e23          	sw	a4,60(sp)
   22374:	03c12703          	lw	a4,60(sp)
   22378:	01179793          	slli	a5,a5,0x11
   2237c:	800106b7          	lui	a3,0x80010
   22380:	04e11623          	sh	a4,76(sp)
   22384:	04c12703          	lw	a4,76(sp)
   22388:	0117d793          	srli	a5,a5,0x11
   2238c:	fff68693          	addi	a3,a3,-1 # 8000ffff <__global_pointer$+0x7ffe8a8f>
   22390:	00d77733          	and	a4,a4,a3
   22394:	01079793          	slli	a5,a5,0x10
   22398:	00f767b3          	or	a5,a4,a5
   2239c:	03012703          	lw	a4,48(sp)
   223a0:	00179793          	slli	a5,a5,0x1
   223a4:	01f49493          	slli	s1,s1,0x1f
   223a8:	00e42023          	sw	a4,0(s0) # 80000 <__global_pointer$+0x58a90>
   223ac:	03412703          	lw	a4,52(sp)
   223b0:	0017d793          	srli	a5,a5,0x1
   223b4:	0097e7b3          	or	a5,a5,s1
   223b8:	00e42223          	sw	a4,4(s0)
   223bc:	03812703          	lw	a4,56(sp)
   223c0:	00f42623          	sw	a5,12(s0)
   223c4:	00040513          	mv	a0,s0
   223c8:	00e42423          	sw	a4,8(s0)
   223cc:	09c12083          	lw	ra,156(sp)
   223d0:	09812403          	lw	s0,152(sp)
   223d4:	09412483          	lw	s1,148(sp)
   223d8:	09012903          	lw	s2,144(sp)
   223dc:	08c12983          	lw	s3,140(sp)
   223e0:	08812a03          	lw	s4,136(sp)
   223e4:	08412a83          	lw	s5,132(sp)
   223e8:	08012b03          	lw	s6,128(sp)
   223ec:	07c12b83          	lw	s7,124(sp)
   223f0:	07812c03          	lw	s8,120(sp)
   223f4:	07412c83          	lw	s9,116(sp)
   223f8:	07012d03          	lw	s10,112(sp)
   223fc:	06c12d83          	lw	s11,108(sp)
   22400:	0a010113          	addi	sp,sp,160
   22404:	00008067          	ret
   22408:	000a0493          	mv	s1,s4
   2240c:	01012783          	lw	a5,16(sp)
   22410:	02f12823          	sw	a5,48(sp)
   22414:	01412783          	lw	a5,20(sp)
   22418:	02f12a23          	sw	a5,52(sp)
   2241c:	01812783          	lw	a5,24(sp)
   22420:	02f12c23          	sw	a5,56(sp)
   22424:	01c12783          	lw	a5,28(sp)
   22428:	02f12e23          	sw	a5,60(sp)
   2242c:	00200793          	li	a5,2
   22430:	26fc0a63          	beq	s8,a5,226a4 <__multf3+0x1330>
   22434:	00300793          	li	a5,3
   22438:	28fc0463          	beq	s8,a5,226c0 <__multf3+0x134c>
   2243c:	00100793          	li	a5,1
   22440:	e6fc18e3          	bne	s8,a5,222b0 <__multf3+0xf3c>
   22444:	02012e23          	sw	zero,60(sp)
   22448:	02012c23          	sw	zero,56(sp)
   2244c:	02012a23          	sw	zero,52(sp)
   22450:	02012823          	sw	zero,48(sp)
   22454:	2100006f          	j	22664 <__multf3+0x12f0>
   22458:	00098493          	mv	s1,s3
   2245c:	02012783          	lw	a5,32(sp)
   22460:	00070c13          	mv	s8,a4
   22464:	02f12823          	sw	a5,48(sp)
   22468:	02412783          	lw	a5,36(sp)
   2246c:	02f12a23          	sw	a5,52(sp)
   22470:	02812783          	lw	a5,40(sp)
   22474:	02f12c23          	sw	a5,56(sp)
   22478:	02c12783          	lw	a5,44(sp)
   2247c:	02f12e23          	sw	a5,60(sp)
   22480:	fadff06f          	j	2242c <__multf3+0x10b8>
   22484:	00812b83          	lw	s7,8(sp)
   22488:	e29ff06f          	j	222b0 <__multf3+0xf3c>
   2248c:	02012e23          	sw	zero,60(sp)
   22490:	02012c23          	sw	zero,56(sp)
   22494:	02012a23          	sw	zero,52(sp)
   22498:	02012823          	sw	zero,48(sp)
   2249c:	fff70793          	addi	a5,a4,-1
   224a0:	ed5ff06f          	j	22374 <__multf3+0x1000>
   224a4:	00100713          	li	a4,1
   224a8:	40f707b3          	sub	a5,a4,a5
   224ac:	07400713          	li	a4,116
   224b0:	1af74e63          	blt	a4,a5,2266c <__multf3+0x12f8>
   224b4:	4057d893          	srai	a7,a5,0x5
   224b8:	00000713          	li	a4,0
   224bc:	01f7f793          	andi	a5,a5,31
   224c0:	00000693          	li	a3,0
   224c4:	00269613          	slli	a2,a3,0x2
   224c8:	03169a63          	bne	a3,a7,224fc <__multf3+0x1188>
   224cc:	04079463          	bnez	a5,22514 <__multf3+0x11a0>
   224d0:	00300513          	li	a0,3
   224d4:	03010593          	addi	a1,sp,48
   224d8:	40d506b3          	sub	a3,a0,a3
   224dc:	00c58533          	add	a0,a1,a2
   224e0:	00052503          	lw	a0,0(a0)
   224e4:	00178793          	addi	a5,a5,1 # 4001 <_start-0xbfff>
   224e8:	00458593          	addi	a1,a1,4
   224ec:	fea5ae23          	sw	a0,-4(a1)
   224f0:	fef6d6e3          	bge	a3,a5,224dc <__multf3+0x1168>
   224f4:	00400613          	li	a2,4
   224f8:	0b80006f          	j	225b0 <__multf3+0x123c>
   224fc:	03010593          	addi	a1,sp,48
   22500:	00c58633          	add	a2,a1,a2
   22504:	00062603          	lw	a2,0(a2)
   22508:	00168693          	addi	a3,a3,1
   2250c:	00c76733          	or	a4,a4,a2
   22510:	fb5ff06f          	j	224c4 <__multf3+0x1150>
   22514:	06010693          	addi	a3,sp,96
   22518:	00c686b3          	add	a3,a3,a2
   2251c:	fd06a683          	lw	a3,-48(a3)
   22520:	02000813          	li	a6,32
   22524:	40f80833          	sub	a6,a6,a5
   22528:	010696b3          	sll	a3,a3,a6
   2252c:	00d76733          	or	a4,a4,a3
   22530:	03010693          	addi	a3,sp,48
   22534:	00c68633          	add	a2,a3,a2
   22538:	00300693          	li	a3,3
   2253c:	00000513          	li	a0,0
   22540:	411686b3          	sub	a3,a3,a7
   22544:	00460613          	addi	a2,a2,4
   22548:	02d54463          	blt	a0,a3,22570 <__multf3+0x11fc>
   2254c:	06010613          	addi	a2,sp,96
   22550:	00269693          	slli	a3,a3,0x2
   22554:	00d606b3          	add	a3,a2,a3
   22558:	03c12603          	lw	a2,60(sp)
   2255c:	00f657b3          	srl	a5,a2,a5
   22560:	fcf6a823          	sw	a5,-48(a3)
   22564:	00400793          	li	a5,4
   22568:	411787b3          	sub	a5,a5,a7
   2256c:	f89ff06f          	j	224f4 <__multf3+0x1180>
   22570:	00251313          	slli	t1,a0,0x2
   22574:	03010593          	addi	a1,sp,48
   22578:	00658333          	add	t1,a1,t1
   2257c:	00062e03          	lw	t3,0(a2)
   22580:	ffc62583          	lw	a1,-4(a2)
   22584:	00150513          	addi	a0,a0,1
   22588:	010e1e33          	sll	t3,t3,a6
   2258c:	00f5d5b3          	srl	a1,a1,a5
   22590:	01c5e5b3          	or	a1,a1,t3
   22594:	00b32023          	sw	a1,0(t1)
   22598:	fadff06f          	j	22544 <__multf3+0x11d0>
   2259c:	00279693          	slli	a3,a5,0x2
   225a0:	03010593          	addi	a1,sp,48
   225a4:	00d586b3          	add	a3,a1,a3
   225a8:	0006a023          	sw	zero,0(a3)
   225ac:	00178793          	addi	a5,a5,1
   225b0:	fec796e3          	bne	a5,a2,2259c <__multf3+0x1228>
   225b4:	03012683          	lw	a3,48(sp)
   225b8:	00e03733          	snez	a4,a4
   225bc:	00d76733          	or	a4,a4,a3
   225c0:	02e12823          	sw	a4,48(sp)
   225c4:	00777693          	andi	a3,a4,7
   225c8:	04068263          	beqz	a3,2260c <__multf3+0x1298>
   225cc:	00f77693          	andi	a3,a4,15
   225d0:	02f68e63          	beq	a3,a5,2260c <__multf3+0x1298>
   225d4:	03412783          	lw	a5,52(sp)
   225d8:	00470713          	addi	a4,a4,4
   225dc:	02e12823          	sw	a4,48(sp)
   225e0:	00473713          	sltiu	a4,a4,4
   225e4:	00f707b3          	add	a5,a4,a5
   225e8:	00e7b733          	sltu	a4,a5,a4
   225ec:	02f12a23          	sw	a5,52(sp)
   225f0:	03812783          	lw	a5,56(sp)
   225f4:	00f707b3          	add	a5,a4,a5
   225f8:	02f12c23          	sw	a5,56(sp)
   225fc:	00e7b7b3          	sltu	a5,a5,a4
   22600:	03c12703          	lw	a4,60(sp)
   22604:	00e787b3          	add	a5,a5,a4
   22608:	02f12e23          	sw	a5,60(sp)
   2260c:	03c12783          	lw	a5,60(sp)
   22610:	00c79713          	slli	a4,a5,0xc
   22614:	00075e63          	bgez	a4,22630 <__multf3+0x12bc>
   22618:	02012e23          	sw	zero,60(sp)
   2261c:	02012c23          	sw	zero,56(sp)
   22620:	02012a23          	sw	zero,52(sp)
   22624:	02012823          	sw	zero,48(sp)
   22628:	00100793          	li	a5,1
   2262c:	d49ff06f          	j	22374 <__multf3+0x1000>
   22630:	03010793          	addi	a5,sp,48
   22634:	03c10613          	addi	a2,sp,60
   22638:	0007a703          	lw	a4,0(a5)
   2263c:	0047a683          	lw	a3,4(a5)
   22640:	00478793          	addi	a5,a5,4
   22644:	00375713          	srli	a4,a4,0x3
   22648:	01d69693          	slli	a3,a3,0x1d
   2264c:	00d76733          	or	a4,a4,a3
   22650:	fee7ae23          	sw	a4,-4(a5)
   22654:	fef612e3          	bne	a2,a5,22638 <__multf3+0x12c4>
   22658:	03c12783          	lw	a5,60(sp)
   2265c:	0037d793          	srli	a5,a5,0x3
   22660:	02f12e23          	sw	a5,60(sp)
   22664:	00000793          	li	a5,0
   22668:	d0dff06f          	j	22374 <__multf3+0x1000>
   2266c:	03412783          	lw	a5,52(sp)
   22670:	03012703          	lw	a4,48(sp)
   22674:	00f76733          	or	a4,a4,a5
   22678:	03812783          	lw	a5,56(sp)
   2267c:	00f76733          	or	a4,a4,a5
   22680:	03c12783          	lw	a5,60(sp)
   22684:	00f76733          	or	a4,a4,a5
   22688:	00000793          	li	a5,0
   2268c:	ce0704e3          	beqz	a4,22374 <__multf3+0x1000>
   22690:	02012e23          	sw	zero,60(sp)
   22694:	02012c23          	sw	zero,56(sp)
   22698:	02012a23          	sw	zero,52(sp)
   2269c:	02012823          	sw	zero,48(sp)
   226a0:	cd5ff06f          	j	22374 <__multf3+0x1000>
   226a4:	000087b7          	lui	a5,0x8
   226a8:	02012e23          	sw	zero,60(sp)
   226ac:	02012c23          	sw	zero,56(sp)
   226b0:	02012a23          	sw	zero,52(sp)
   226b4:	02012823          	sw	zero,48(sp)
   226b8:	fff78793          	addi	a5,a5,-1 # 7fff <_start-0x8001>
   226bc:	cb9ff06f          	j	22374 <__multf3+0x1000>
   226c0:	000087b7          	lui	a5,0x8
   226c4:	02f12e23          	sw	a5,60(sp)
   226c8:	02012c23          	sw	zero,56(sp)
   226cc:	02012a23          	sw	zero,52(sp)
   226d0:	02012823          	sw	zero,48(sp)
   226d4:	fff78793          	addi	a5,a5,-1 # 7fff <_start-0x8001>
   226d8:	00000493          	li	s1,0
   226dc:	c99ff06f          	j	22374 <__multf3+0x1000>

000226e0 <__subtf3>:
   226e0:	fa010113          	addi	sp,sp,-96
   226e4:	0085a783          	lw	a5,8(a1)
   226e8:	05212823          	sw	s2,80(sp)
   226ec:	00c5a903          	lw	s2,12(a1)
   226f0:	0005a803          	lw	a6,0(a1)
   226f4:	0045a703          	lw	a4,4(a1)
   226f8:	04912a23          	sw	s1,84(sp)
   226fc:	02f12c23          	sw	a5,56(sp)
   22700:	00050493          	mv	s1,a0
   22704:	00f12c23          	sw	a5,24(sp)
   22708:	00062303          	lw	t1,0(a2)
   2270c:	01091793          	slli	a5,s2,0x10
   22710:	00462583          	lw	a1,4(a2)
   22714:	00862683          	lw	a3,8(a2)
   22718:	00c62503          	lw	a0,12(a2)
   2271c:	04812c23          	sw	s0,88(sp)
   22720:	0107d793          	srli	a5,a5,0x10
   22724:	00191413          	slli	s0,s2,0x1
   22728:	03012823          	sw	a6,48(sp)
   2272c:	03212e23          	sw	s2,60(sp)
   22730:	01012823          	sw	a6,16(sp)
   22734:	04112e23          	sw	ra,92(sp)
   22738:	05312623          	sw	s3,76(sp)
   2273c:	05412423          	sw	s4,72(sp)
   22740:	05512223          	sw	s5,68(sp)
   22744:	02e12a23          	sw	a4,52(sp)
   22748:	00e12a23          	sw	a4,20(sp)
   2274c:	00f12e23          	sw	a5,28(sp)
   22750:	01145413          	srli	s0,s0,0x11
   22754:	01f95913          	srli	s2,s2,0x1f
   22758:	01010893          	addi	a7,sp,16
   2275c:	01c10813          	addi	a6,sp,28
   22760:	00082783          	lw	a5,0(a6)
   22764:	ffc82703          	lw	a4,-4(a6)
   22768:	ffc80813          	addi	a6,a6,-4
   2276c:	00379793          	slli	a5,a5,0x3
   22770:	01d75713          	srli	a4,a4,0x1d
   22774:	00e7e7b3          	or	a5,a5,a4
   22778:	00f82223          	sw	a5,4(a6)
   2277c:	ff0892e3          	bne	a7,a6,22760 <__subtf3+0x80>
   22780:	01012703          	lw	a4,16(sp)
   22784:	01051793          	slli	a5,a0,0x10
   22788:	00151613          	slli	a2,a0,0x1
   2278c:	00371713          	slli	a4,a4,0x3
   22790:	0107d793          	srli	a5,a5,0x10
   22794:	02612823          	sw	t1,48(sp)
   22798:	02a12e23          	sw	a0,60(sp)
   2279c:	02612023          	sw	t1,32(sp)
   227a0:	00e12823          	sw	a4,16(sp)
   227a4:	02b12a23          	sw	a1,52(sp)
   227a8:	02d12c23          	sw	a3,56(sp)
   227ac:	02b12223          	sw	a1,36(sp)
   227b0:	02d12423          	sw	a3,40(sp)
   227b4:	02f12623          	sw	a5,44(sp)
   227b8:	01165613          	srli	a2,a2,0x11
   227bc:	01f55513          	srli	a0,a0,0x1f
   227c0:	02010313          	addi	t1,sp,32
   227c4:	02c10e13          	addi	t3,sp,44
   227c8:	000e2783          	lw	a5,0(t3)
   227cc:	ffce2683          	lw	a3,-4(t3)
   227d0:	ffce0e13          	addi	t3,t3,-4
   227d4:	00379793          	slli	a5,a5,0x3
   227d8:	01d6d693          	srli	a3,a3,0x1d
   227dc:	00d7e7b3          	or	a5,a5,a3
   227e0:	00fe2223          	sw	a5,4(t3)
   227e4:	ffc312e3          	bne	t1,t3,227c8 <__subtf3+0xe8>
   227e8:	02012783          	lw	a5,32(sp)
   227ec:	000086b7          	lui	a3,0x8
   227f0:	fff68693          	addi	a3,a3,-1 # 7fff <_start-0x8001>
   227f4:	00379793          	slli	a5,a5,0x3
   227f8:	02f12023          	sw	a5,32(sp)
   227fc:	02d61063          	bne	a2,a3,2281c <__subtf3+0x13c>
   22800:	02812583          	lw	a1,40(sp)
   22804:	02412683          	lw	a3,36(sp)
   22808:	00b6e6b3          	or	a3,a3,a1
   2280c:	02c12583          	lw	a1,44(sp)
   22810:	00b6e6b3          	or	a3,a3,a1
   22814:	00f6e6b3          	or	a3,a3,a5
   22818:	00069463          	bnez	a3,22820 <__subtf3+0x140>
   2281c:	00154513          	xori	a0,a0,1
   22820:	40c405b3          	sub	a1,s0,a2
   22824:	15251ce3          	bne	a0,s2,2317c <__subtf3+0xa9c>
   22828:	30b05463          	blez	a1,22b30 <__subtf3+0x450>
   2282c:	0c061663          	bnez	a2,228f8 <__subtf3+0x218>
   22830:	02412503          	lw	a0,36(sp)
   22834:	02812603          	lw	a2,40(sp)
   22838:	02c12803          	lw	a6,44(sp)
   2283c:	00c566b3          	or	a3,a0,a2
   22840:	0106e6b3          	or	a3,a3,a6
   22844:	00f6e6b3          	or	a3,a3,a5
   22848:	02069063          	bnez	a3,22868 <__subtf3+0x188>
   2284c:	01412783          	lw	a5,20(sp)
   22850:	02e12823          	sw	a4,48(sp)
   22854:	02f12a23          	sw	a5,52(sp)
   22858:	01812783          	lw	a5,24(sp)
   2285c:	02f12c23          	sw	a5,56(sp)
   22860:	01c12783          	lw	a5,28(sp)
   22864:	30c0006f          	j	22b70 <__subtf3+0x490>
   22868:	fff58693          	addi	a3,a1,-1
   2286c:	06069063          	bnez	a3,228cc <__subtf3+0x1ec>
   22870:	01412683          	lw	a3,20(sp)
   22874:	00f707b3          	add	a5,a4,a5
   22878:	00e7b733          	sltu	a4,a5,a4
   2287c:	00d505b3          	add	a1,a0,a3
   22880:	02f12823          	sw	a5,48(sp)
   22884:	00e587b3          	add	a5,a1,a4
   22888:	00e7b733          	sltu	a4,a5,a4
   2288c:	02f12a23          	sw	a5,52(sp)
   22890:	01812783          	lw	a5,24(sp)
   22894:	00d5b6b3          	sltu	a3,a1,a3
   22898:	00e6e733          	or	a4,a3,a4
   2289c:	00f606b3          	add	a3,a2,a5
   228a0:	00e68633          	add	a2,a3,a4
   228a4:	00e63733          	sltu	a4,a2,a4
   228a8:	00f6b7b3          	sltu	a5,a3,a5
   228ac:	00e7e7b3          	or	a5,a5,a4
   228b0:	01c12703          	lw	a4,28(sp)
   228b4:	02c12c23          	sw	a2,56(sp)
   228b8:	00e80833          	add	a6,a6,a4
   228bc:	010787b3          	add	a5,a5,a6
   228c0:	02f12e23          	sw	a5,60(sp)
   228c4:	00100413          	li	s0,1
   228c8:	1dc0006f          	j	22aa4 <__subtf3+0x3c4>
   228cc:	000087b7          	lui	a5,0x8
   228d0:	fff78793          	addi	a5,a5,-1 # 7fff <_start-0x8001>
   228d4:	f6f58ce3          	beq	a1,a5,2284c <__subtf3+0x16c>
   228d8:	07400793          	li	a5,116
   228dc:	06d7d263          	bge	a5,a3,22940 <__subtf3+0x260>
   228e0:	00100793          	li	a5,1
   228e4:	02012623          	sw	zero,44(sp)
   228e8:	02012423          	sw	zero,40(sp)
   228ec:	02012223          	sw	zero,36(sp)
   228f0:	02f12023          	sw	a5,32(sp)
   228f4:	1480006f          	j	22a3c <__subtf3+0x35c>
   228f8:	000087b7          	lui	a5,0x8
   228fc:	fff78793          	addi	a5,a5,-1 # 7fff <_start-0x8001>
   22900:	02f41263          	bne	s0,a5,22924 <__subtf3+0x244>
   22904:	01412783          	lw	a5,20(sp)
   22908:	02e12823          	sw	a4,48(sp)
   2290c:	02f12a23          	sw	a5,52(sp)
   22910:	01812783          	lw	a5,24(sp)
   22914:	02f12c23          	sw	a5,56(sp)
   22918:	01c12783          	lw	a5,28(sp)
   2291c:	02f12e23          	sw	a5,60(sp)
   22920:	2580006f          	j	22b78 <__subtf3+0x498>
   22924:	02c12783          	lw	a5,44(sp)
   22928:	00080737          	lui	a4,0x80
   2292c:	00e7e7b3          	or	a5,a5,a4
   22930:	02f12623          	sw	a5,44(sp)
   22934:	07400793          	li	a5,116
   22938:	fab7c4e3          	blt	a5,a1,228e0 <__subtf3+0x200>
   2293c:	00058693          	mv	a3,a1
   22940:	4056d893          	srai	a7,a3,0x5
   22944:	01f6f793          	andi	a5,a3,31
   22948:	00000613          	li	a2,0
   2294c:	00000713          	li	a4,0
   22950:	00271693          	slli	a3,a4,0x2
   22954:	03171863          	bne	a4,a7,22984 <__subtf3+0x2a4>
   22958:	04079063          	bnez	a5,22998 <__subtf3+0x2b8>
   2295c:	00300593          	li	a1,3
   22960:	40e58733          	sub	a4,a1,a4
   22964:	00de05b3          	add	a1,t3,a3
   22968:	0005a583          	lw	a1,0(a1)
   2296c:	00178793          	addi	a5,a5,1
   22970:	004e0e13          	addi	t3,t3,4
   22974:	febe2e23          	sw	a1,-4(t3)
   22978:	fef756e3          	bge	a4,a5,22964 <__subtf3+0x284>
   2297c:	00400693          	li	a3,4
   22980:	0a80006f          	j	22a28 <__subtf3+0x348>
   22984:	00d306b3          	add	a3,t1,a3
   22988:	0006a683          	lw	a3,0(a3)
   2298c:	00170713          	addi	a4,a4,1 # 80001 <__global_pointer$+0x58a91>
   22990:	00d66633          	or	a2,a2,a3
   22994:	fbdff06f          	j	22950 <__subtf3+0x270>
   22998:	04010713          	addi	a4,sp,64
   2299c:	00d70733          	add	a4,a4,a3
   229a0:	fe072703          	lw	a4,-32(a4)
   229a4:	02000813          	li	a6,32
   229a8:	40f80833          	sub	a6,a6,a5
   229ac:	01071733          	sll	a4,a4,a6
   229b0:	00e66633          	or	a2,a2,a4
   229b4:	00300713          	li	a4,3
   229b8:	00d306b3          	add	a3,t1,a3
   229bc:	00000513          	li	a0,0
   229c0:	41170733          	sub	a4,a4,a7
   229c4:	00468693          	addi	a3,a3,4
   229c8:	02e54463          	blt	a0,a4,229f0 <__subtf3+0x310>
   229cc:	04010693          	addi	a3,sp,64
   229d0:	00271713          	slli	a4,a4,0x2
   229d4:	00e68733          	add	a4,a3,a4
   229d8:	02c12683          	lw	a3,44(sp)
   229dc:	00f6d7b3          	srl	a5,a3,a5
   229e0:	fef72023          	sw	a5,-32(a4)
   229e4:	00400793          	li	a5,4
   229e8:	411787b3          	sub	a5,a5,a7
   229ec:	f91ff06f          	j	2297c <__subtf3+0x29c>
   229f0:	ffc6a583          	lw	a1,-4(a3)
   229f4:	0006ae83          	lw	t4,0(a3)
   229f8:	00251e13          	slli	t3,a0,0x2
   229fc:	00f5d5b3          	srl	a1,a1,a5
   22a00:	010e9eb3          	sll	t4,t4,a6
   22a04:	01c30e33          	add	t3,t1,t3
   22a08:	01d5e5b3          	or	a1,a1,t4
   22a0c:	00be2023          	sw	a1,0(t3)
   22a10:	00150513          	addi	a0,a0,1
   22a14:	fb1ff06f          	j	229c4 <__subtf3+0x2e4>
   22a18:	00279713          	slli	a4,a5,0x2
   22a1c:	00e30733          	add	a4,t1,a4
   22a20:	00072023          	sw	zero,0(a4)
   22a24:	00178793          	addi	a5,a5,1
   22a28:	fed798e3          	bne	a5,a3,22a18 <__subtf3+0x338>
   22a2c:	02012783          	lw	a5,32(sp)
   22a30:	00c03633          	snez	a2,a2
   22a34:	00c7e633          	or	a2,a5,a2
   22a38:	02c12023          	sw	a2,32(sp)
   22a3c:	01012683          	lw	a3,16(sp)
   22a40:	02012783          	lw	a5,32(sp)
   22a44:	01412703          	lw	a4,20(sp)
   22a48:	02812583          	lw	a1,40(sp)
   22a4c:	00f687b3          	add	a5,a3,a5
   22a50:	00d7b6b3          	sltu	a3,a5,a3
   22a54:	02f12823          	sw	a5,48(sp)
   22a58:	02412783          	lw	a5,36(sp)
   22a5c:	02c12503          	lw	a0,44(sp)
   22a60:	00f707b3          	add	a5,a4,a5
   22a64:	00d78633          	add	a2,a5,a3
   22a68:	00e7b733          	sltu	a4,a5,a4
   22a6c:	00d637b3          	sltu	a5,a2,a3
   22a70:	00f767b3          	or	a5,a4,a5
   22a74:	01812703          	lw	a4,24(sp)
   22a78:	01c12683          	lw	a3,28(sp)
   22a7c:	02c12a23          	sw	a2,52(sp)
   22a80:	00b705b3          	add	a1,a4,a1
   22a84:	00f58633          	add	a2,a1,a5
   22a88:	00e5b733          	sltu	a4,a1,a4
   22a8c:	00f637b3          	sltu	a5,a2,a5
   22a90:	00a686b3          	add	a3,a3,a0
   22a94:	00f76733          	or	a4,a4,a5
   22a98:	00e68733          	add	a4,a3,a4
   22a9c:	02c12c23          	sw	a2,56(sp)
   22aa0:	02e12e23          	sw	a4,60(sp)
   22aa4:	03c12783          	lw	a5,60(sp)
   22aa8:	00c79713          	slli	a4,a5,0xc
   22aac:	0c075663          	bgez	a4,22b78 <__subtf3+0x498>
   22ab0:	fff80737          	lui	a4,0xfff80
   22ab4:	fff70713          	addi	a4,a4,-1 # fff7ffff <__global_pointer$+0xfff58a8f>
   22ab8:	00e7f7b3          	and	a5,a5,a4
   22abc:	02f12e23          	sw	a5,60(sp)
   22ac0:	03012783          	lw	a5,48(sp)
   22ac4:	00140413          	addi	s0,s0,1
   22ac8:	03c10593          	addi	a1,sp,60
   22acc:	01f79713          	slli	a4,a5,0x1f
   22ad0:	03010793          	addi	a5,sp,48
   22ad4:	0007a683          	lw	a3,0(a5)
   22ad8:	0047a603          	lw	a2,4(a5)
   22adc:	00478793          	addi	a5,a5,4
   22ae0:	0016d693          	srli	a3,a3,0x1
   22ae4:	01f61613          	slli	a2,a2,0x1f
   22ae8:	00c6e6b3          	or	a3,a3,a2
   22aec:	fed7ae23          	sw	a3,-4(a5)
   22af0:	fef592e3          	bne	a1,a5,22ad4 <__subtf3+0x3f4>
   22af4:	03c12783          	lw	a5,60(sp)
   22af8:	0017d793          	srli	a5,a5,0x1
   22afc:	02f12e23          	sw	a5,60(sp)
   22b00:	00e037b3          	snez	a5,a4
   22b04:	03012703          	lw	a4,48(sp)
   22b08:	00f767b3          	or	a5,a4,a5
   22b0c:	02f12823          	sw	a5,48(sp)
   22b10:	000087b7          	lui	a5,0x8
   22b14:	fff78793          	addi	a5,a5,-1 # 7fff <_start-0x8001>
   22b18:	06f41063          	bne	s0,a5,22b78 <__subtf3+0x498>
   22b1c:	02012e23          	sw	zero,60(sp)
   22b20:	02012c23          	sw	zero,56(sp)
   22b24:	02012a23          	sw	zero,52(sp)
   22b28:	02012823          	sw	zero,48(sp)
   22b2c:	04c0006f          	j	22b78 <__subtf3+0x498>
   22b30:	42058863          	beqz	a1,22f60 <__subtf3+0x880>
   22b34:	408605b3          	sub	a1,a2,s0
   22b38:	22041a63          	bnez	s0,22d6c <__subtf3+0x68c>
   22b3c:	01412303          	lw	t1,20(sp)
   22b40:	01812503          	lw	a0,24(sp)
   22b44:	01c12e03          	lw	t3,28(sp)
   22b48:	00a366b3          	or	a3,t1,a0
   22b4c:	01c6e6b3          	or	a3,a3,t3
   22b50:	00e6e6b3          	or	a3,a3,a4
   22b54:	18069863          	bnez	a3,22ce4 <__subtf3+0x604>
   22b58:	02f12823          	sw	a5,48(sp)
   22b5c:	02412783          	lw	a5,36(sp)
   22b60:	02f12a23          	sw	a5,52(sp)
   22b64:	02812783          	lw	a5,40(sp)
   22b68:	02f12c23          	sw	a5,56(sp)
   22b6c:	02c12783          	lw	a5,44(sp)
   22b70:	02f12e23          	sw	a5,60(sp)
   22b74:	00058413          	mv	s0,a1
   22b78:	03012783          	lw	a5,48(sp)
   22b7c:	0077f713          	andi	a4,a5,7
   22b80:	04070463          	beqz	a4,22bc8 <__subtf3+0x4e8>
   22b84:	00f7f713          	andi	a4,a5,15
   22b88:	00400693          	li	a3,4
   22b8c:	02d70e63          	beq	a4,a3,22bc8 <__subtf3+0x4e8>
   22b90:	03412703          	lw	a4,52(sp)
   22b94:	00478793          	addi	a5,a5,4
   22b98:	02f12823          	sw	a5,48(sp)
   22b9c:	0047b793          	sltiu	a5,a5,4
   22ba0:	00e78733          	add	a4,a5,a4
   22ba4:	00f737b3          	sltu	a5,a4,a5
   22ba8:	02e12a23          	sw	a4,52(sp)
   22bac:	03812703          	lw	a4,56(sp)
   22bb0:	00e78733          	add	a4,a5,a4
   22bb4:	02e12c23          	sw	a4,56(sp)
   22bb8:	00f73733          	sltu	a4,a4,a5
   22bbc:	03c12783          	lw	a5,60(sp)
   22bc0:	00f70733          	add	a4,a4,a5
   22bc4:	02e12e23          	sw	a4,60(sp)
   22bc8:	03c12783          	lw	a5,60(sp)
   22bcc:	00c79713          	slli	a4,a5,0xc
   22bd0:	02075463          	bgez	a4,22bf8 <__subtf3+0x518>
   22bd4:	00008737          	lui	a4,0x8
   22bd8:	00140413          	addi	s0,s0,1
   22bdc:	fff70713          	addi	a4,a4,-1 # 7fff <_start-0x8001>
   22be0:	00e41463          	bne	s0,a4,22be8 <__subtf3+0x508>
   22be4:	0880106f          	j	23c6c <__subtf3+0x158c>
   22be8:	fff80737          	lui	a4,0xfff80
   22bec:	fff70713          	addi	a4,a4,-1 # fff7ffff <__global_pointer$+0xfff58a8f>
   22bf0:	00e7f7b3          	and	a5,a5,a4
   22bf4:	02f12e23          	sw	a5,60(sp)
   22bf8:	03010793          	addi	a5,sp,48
   22bfc:	03c10613          	addi	a2,sp,60
   22c00:	0007a703          	lw	a4,0(a5)
   22c04:	0047a683          	lw	a3,4(a5)
   22c08:	00478793          	addi	a5,a5,4
   22c0c:	00375713          	srli	a4,a4,0x3
   22c10:	01d69693          	slli	a3,a3,0x1d
   22c14:	00d76733          	or	a4,a4,a3
   22c18:	fee7ae23          	sw	a4,-4(a5)
   22c1c:	fef612e3          	bne	a2,a5,22c00 <__subtf3+0x520>
   22c20:	03c12783          	lw	a5,60(sp)
   22c24:	000086b7          	lui	a3,0x8
   22c28:	0037d713          	srli	a4,a5,0x3
   22c2c:	02e12e23          	sw	a4,60(sp)
   22c30:	fff68793          	addi	a5,a3,-1 # 7fff <_start-0x8001>
   22c34:	02f41a63          	bne	s0,a5,22c68 <__subtf3+0x588>
   22c38:	03412603          	lw	a2,52(sp)
   22c3c:	03012783          	lw	a5,48(sp)
   22c40:	00c7e7b3          	or	a5,a5,a2
   22c44:	03812603          	lw	a2,56(sp)
   22c48:	00c7e7b3          	or	a5,a5,a2
   22c4c:	00e7e7b3          	or	a5,a5,a4
   22c50:	00078c63          	beqz	a5,22c68 <__subtf3+0x588>
   22c54:	02d12e23          	sw	a3,60(sp)
   22c58:	02012c23          	sw	zero,56(sp)
   22c5c:	02012a23          	sw	zero,52(sp)
   22c60:	02012823          	sw	zero,48(sp)
   22c64:	00000913          	li	s2,0
   22c68:	03c12783          	lw	a5,60(sp)
   22c6c:	01141413          	slli	s0,s0,0x11
   22c70:	01145413          	srli	s0,s0,0x11
   22c74:	00f11623          	sh	a5,12(sp)
   22c78:	01041793          	slli	a5,s0,0x10
   22c7c:	00c12403          	lw	s0,12(sp)
   22c80:	80010737          	lui	a4,0x80010
   22c84:	fff70713          	addi	a4,a4,-1 # 8000ffff <__global_pointer$+0x7ffe8a8f>
   22c88:	00e47433          	and	s0,s0,a4
   22c8c:	00f46433          	or	s0,s0,a5
   22c90:	03012783          	lw	a5,48(sp)
   22c94:	00141413          	slli	s0,s0,0x1
   22c98:	01f91913          	slli	s2,s2,0x1f
   22c9c:	00f4a023          	sw	a5,0(s1)
   22ca0:	03412783          	lw	a5,52(sp)
   22ca4:	00145413          	srli	s0,s0,0x1
   22ca8:	01246433          	or	s0,s0,s2
   22cac:	00f4a223          	sw	a5,4(s1)
   22cb0:	03812783          	lw	a5,56(sp)
   22cb4:	0084a623          	sw	s0,12(s1)
   22cb8:	05c12083          	lw	ra,92(sp)
   22cbc:	05812403          	lw	s0,88(sp)
   22cc0:	00f4a423          	sw	a5,8(s1)
   22cc4:	00048513          	mv	a0,s1
   22cc8:	05012903          	lw	s2,80(sp)
   22ccc:	05412483          	lw	s1,84(sp)
   22cd0:	04c12983          	lw	s3,76(sp)
   22cd4:	04812a03          	lw	s4,72(sp)
   22cd8:	04412a83          	lw	s5,68(sp)
   22cdc:	06010113          	addi	sp,sp,96
   22ce0:	00008067          	ret
   22ce4:	fff58693          	addi	a3,a1,-1
   22ce8:	04069e63          	bnez	a3,22d44 <__subtf3+0x664>
   22cec:	02412683          	lw	a3,36(sp)
   22cf0:	00f70733          	add	a4,a4,a5
   22cf4:	00f737b3          	sltu	a5,a4,a5
   22cf8:	00d30633          	add	a2,t1,a3
   22cfc:	02e12823          	sw	a4,48(sp)
   22d00:	00f60733          	add	a4,a2,a5
   22d04:	00f737b3          	sltu	a5,a4,a5
   22d08:	02e12a23          	sw	a4,52(sp)
   22d0c:	02812703          	lw	a4,40(sp)
   22d10:	00d636b3          	sltu	a3,a2,a3
   22d14:	00f6e7b3          	or	a5,a3,a5
   22d18:	00e506b3          	add	a3,a0,a4
   22d1c:	00f68633          	add	a2,a3,a5
   22d20:	00f637b3          	sltu	a5,a2,a5
   22d24:	00e6b733          	sltu	a4,a3,a4
   22d28:	00f76733          	or	a4,a4,a5
   22d2c:	02c12783          	lw	a5,44(sp)
   22d30:	02c12c23          	sw	a2,56(sp)
   22d34:	00fe0e33          	add	t3,t3,a5
   22d38:	01c70733          	add	a4,a4,t3
   22d3c:	02e12e23          	sw	a4,60(sp)
   22d40:	b85ff06f          	j	228c4 <__subtf3+0x1e4>
   22d44:	00008737          	lui	a4,0x8
   22d48:	fff70713          	addi	a4,a4,-1 # 7fff <_start-0x8001>
   22d4c:	e0e586e3          	beq	a1,a4,22b58 <__subtf3+0x478>
   22d50:	07400793          	li	a5,116
   22d54:	06d7d263          	bge	a5,a3,22db8 <__subtf3+0x6d8>
   22d58:	00012e23          	sw	zero,28(sp)
   22d5c:	00012c23          	sw	zero,24(sp)
   22d60:	00012a23          	sw	zero,20(sp)
   22d64:	00100793          	li	a5,1
   22d68:	1840006f          	j	22eec <__subtf3+0x80c>
   22d6c:	00008737          	lui	a4,0x8
   22d70:	fff70713          	addi	a4,a4,-1 # 7fff <_start-0x8001>
   22d74:	02e61463          	bne	a2,a4,22d9c <__subtf3+0x6bc>
   22d78:	02f12823          	sw	a5,48(sp)
   22d7c:	02412783          	lw	a5,36(sp)
   22d80:	00060413          	mv	s0,a2
   22d84:	02f12a23          	sw	a5,52(sp)
   22d88:	02812783          	lw	a5,40(sp)
   22d8c:	02f12c23          	sw	a5,56(sp)
   22d90:	02c12783          	lw	a5,44(sp)
   22d94:	02f12e23          	sw	a5,60(sp)
   22d98:	de1ff06f          	j	22b78 <__subtf3+0x498>
   22d9c:	01c12783          	lw	a5,28(sp)
   22da0:	00080737          	lui	a4,0x80
   22da4:	00e7e7b3          	or	a5,a5,a4
   22da8:	00f12e23          	sw	a5,28(sp)
   22dac:	07400793          	li	a5,116
   22db0:	fab7c4e3          	blt	a5,a1,22d58 <__subtf3+0x678>
   22db4:	00058693          	mv	a3,a1
   22db8:	41f6d793          	srai	a5,a3,0x1f
   22dbc:	80000737          	lui	a4,0x80000
   22dc0:	01f7f793          	andi	a5,a5,31
   22dc4:	01f70713          	addi	a4,a4,31 # 8000001f <__global_pointer$+0x7ffd8aaf>
   22dc8:	00d787b3          	add	a5,a5,a3
   22dcc:	00e6f6b3          	and	a3,a3,a4
   22dd0:	4057d793          	srai	a5,a5,0x5
   22dd4:	0006d863          	bgez	a3,22de4 <__subtf3+0x704>
   22dd8:	fff68693          	addi	a3,a3,-1
   22ddc:	fe06e693          	ori	a3,a3,-32
   22de0:	00168693          	addi	a3,a3,1
   22de4:	00068713          	mv	a4,a3
   22de8:	00000313          	li	t1,0
   22dec:	00000593          	li	a1,0
   22df0:	04f5c063          	blt	a1,a5,22e30 <__subtf3+0x750>
   22df4:	00078513          	mv	a0,a5
   22df8:	0007d463          	bgez	a5,22e00 <__subtf3+0x720>
   22dfc:	00000513          	li	a0,0
   22e00:	00279593          	slli	a1,a5,0x2
   22e04:	04069263          	bnez	a3,22e48 <__subtf3+0x768>
   22e08:	00300693          	li	a3,3
   22e0c:	40f687b3          	sub	a5,a3,a5
   22e10:	00b806b3          	add	a3,a6,a1
   22e14:	0006a683          	lw	a3,0(a3)
   22e18:	00170713          	addi	a4,a4,1
   22e1c:	00480813          	addi	a6,a6,4
   22e20:	fed82e23          	sw	a3,-4(a6)
   22e24:	fee7d6e3          	bge	a5,a4,22e10 <__subtf3+0x730>
   22e28:	00300693          	li	a3,3
   22e2c:	0b00006f          	j	22edc <__subtf3+0x7fc>
   22e30:	00259513          	slli	a0,a1,0x2
   22e34:	00a88533          	add	a0,a7,a0
   22e38:	00052503          	lw	a0,0(a0)
   22e3c:	00158593          	addi	a1,a1,1
   22e40:	00a36333          	or	t1,t1,a0
   22e44:	fadff06f          	j	22df0 <__subtf3+0x710>
   22e48:	04010713          	addi	a4,sp,64
   22e4c:	00251513          	slli	a0,a0,0x2
   22e50:	00a70533          	add	a0,a4,a0
   22e54:	fd052703          	lw	a4,-48(a0)
   22e58:	02000e13          	li	t3,32
   22e5c:	40de0e33          	sub	t3,t3,a3
   22e60:	01c71733          	sll	a4,a4,t3
   22e64:	00e36333          	or	t1,t1,a4
   22e68:	00300713          	li	a4,3
   22e6c:	00b885b3          	add	a1,a7,a1
   22e70:	00000813          	li	a6,0
   22e74:	40f70733          	sub	a4,a4,a5
   22e78:	00458593          	addi	a1,a1,4
   22e7c:	02e84463          	blt	a6,a4,22ea4 <__subtf3+0x7c4>
   22e80:	04010593          	addi	a1,sp,64
   22e84:	00271713          	slli	a4,a4,0x2
   22e88:	00e58733          	add	a4,a1,a4
   22e8c:	01c12583          	lw	a1,28(sp)
   22e90:	00d5d6b3          	srl	a3,a1,a3
   22e94:	fcd72823          	sw	a3,-48(a4)
   22e98:	00400713          	li	a4,4
   22e9c:	40f70733          	sub	a4,a4,a5
   22ea0:	f89ff06f          	j	22e28 <__subtf3+0x748>
   22ea4:	ffc5a503          	lw	a0,-4(a1)
   22ea8:	0005af03          	lw	t5,0(a1)
   22eac:	00281e93          	slli	t4,a6,0x2
   22eb0:	00d55533          	srl	a0,a0,a3
   22eb4:	01cf1f33          	sll	t5,t5,t3
   22eb8:	01d88eb3          	add	t4,a7,t4
   22ebc:	01e56533          	or	a0,a0,t5
   22ec0:	00aea023          	sw	a0,0(t4)
   22ec4:	00180813          	addi	a6,a6,1
   22ec8:	fb1ff06f          	j	22e78 <__subtf3+0x798>
   22ecc:	00271793          	slli	a5,a4,0x2
   22ed0:	00f887b3          	add	a5,a7,a5
   22ed4:	0007a023          	sw	zero,0(a5)
   22ed8:	00170713          	addi	a4,a4,1
   22edc:	fee6d8e3          	bge	a3,a4,22ecc <__subtf3+0x7ec>
   22ee0:	01012703          	lw	a4,16(sp)
   22ee4:	006037b3          	snez	a5,t1
   22ee8:	00f767b3          	or	a5,a4,a5
   22eec:	00f12823          	sw	a5,16(sp)
   22ef0:	02012683          	lw	a3,32(sp)
   22ef4:	01012783          	lw	a5,16(sp)
   22ef8:	02412703          	lw	a4,36(sp)
   22efc:	01812503          	lw	a0,24(sp)
   22f00:	00f687b3          	add	a5,a3,a5
   22f04:	00d7b6b3          	sltu	a3,a5,a3
   22f08:	02f12823          	sw	a5,48(sp)
   22f0c:	01412783          	lw	a5,20(sp)
   22f10:	01c12803          	lw	a6,28(sp)
   22f14:	00060413          	mv	s0,a2
   22f18:	00f707b3          	add	a5,a4,a5
   22f1c:	00d785b3          	add	a1,a5,a3
   22f20:	00e7b733          	sltu	a4,a5,a4
   22f24:	00d5b7b3          	sltu	a5,a1,a3
   22f28:	00f767b3          	or	a5,a4,a5
   22f2c:	02812703          	lw	a4,40(sp)
   22f30:	02c12683          	lw	a3,44(sp)
   22f34:	02b12a23          	sw	a1,52(sp)
   22f38:	00a70533          	add	a0,a4,a0
   22f3c:	00f505b3          	add	a1,a0,a5
   22f40:	00e53733          	sltu	a4,a0,a4
   22f44:	00f5b7b3          	sltu	a5,a1,a5
   22f48:	010686b3          	add	a3,a3,a6
   22f4c:	00f76733          	or	a4,a4,a5
   22f50:	00e68733          	add	a4,a3,a4
   22f54:	02b12c23          	sw	a1,56(sp)
   22f58:	02e12e23          	sw	a4,60(sp)
   22f5c:	b49ff06f          	j	22aa4 <__subtf3+0x3c4>
   22f60:	00008fb7          	lui	t6,0x8
   22f64:	00140513          	addi	a0,s0,1
   22f68:	ffef8613          	addi	a2,t6,-2 # 7ffe <_start-0x8002>
   22f6c:	00c57633          	and	a2,a0,a2
   22f70:	02412683          	lw	a3,36(sp)
   22f74:	02812583          	lw	a1,40(sp)
   22f78:	02c12803          	lw	a6,44(sp)
   22f7c:	01412f03          	lw	t5,20(sp)
   22f80:	01812e83          	lw	t4,24(sp)
   22f84:	01c12883          	lw	a7,28(sp)
   22f88:	03010313          	addi	t1,sp,48
   22f8c:	03c10e13          	addi	t3,sp,60
   22f90:	14061663          	bnez	a2,230dc <__subtf3+0x9fc>
   22f94:	01df6533          	or	a0,t5,t4
   22f98:	01156533          	or	a0,a0,a7
   22f9c:	00e56533          	or	a0,a0,a4
   22fa0:	0a041663          	bnez	s0,2304c <__subtf3+0x96c>
   22fa4:	00051c63          	bnez	a0,22fbc <__subtf3+0x8dc>
   22fa8:	02f12823          	sw	a5,48(sp)
   22fac:	02d12a23          	sw	a3,52(sp)
   22fb0:	02b12c23          	sw	a1,56(sp)
   22fb4:	03012e23          	sw	a6,60(sp)
   22fb8:	bc1ff06f          	j	22b78 <__subtf3+0x498>
   22fbc:	00b6e633          	or	a2,a3,a1
   22fc0:	01066633          	or	a2,a2,a6
   22fc4:	00f66633          	or	a2,a2,a5
   22fc8:	00061c63          	bnez	a2,22fe0 <__subtf3+0x900>
   22fcc:	02e12823          	sw	a4,48(sp)
   22fd0:	03e12a23          	sw	t5,52(sp)
   22fd4:	03d12c23          	sw	t4,56(sp)
   22fd8:	03112e23          	sw	a7,60(sp)
   22fdc:	b9dff06f          	j	22b78 <__subtf3+0x498>
   22fe0:	00f707b3          	add	a5,a4,a5
   22fe4:	00e7b733          	sltu	a4,a5,a4
   22fe8:	01e686b3          	add	a3,a3,t5
   22fec:	02f12823          	sw	a5,48(sp)
   22ff0:	00e687b3          	add	a5,a3,a4
   22ff4:	00e7b733          	sltu	a4,a5,a4
   22ff8:	01e6b6b3          	sltu	a3,a3,t5
   22ffc:	00e6e733          	or	a4,a3,a4
   23000:	01d585b3          	add	a1,a1,t4
   23004:	02f12a23          	sw	a5,52(sp)
   23008:	00e587b3          	add	a5,a1,a4
   2300c:	01d5b633          	sltu	a2,a1,t4
   23010:	00e7b733          	sltu	a4,a5,a4
   23014:	00e66733          	or	a4,a2,a4
   23018:	01180633          	add	a2,a6,a7
   2301c:	00c70633          	add	a2,a4,a2
   23020:	02f12c23          	sw	a5,56(sp)
   23024:	00c61793          	slli	a5,a2,0xc
   23028:	0007c663          	bltz	a5,23034 <__subtf3+0x954>
   2302c:	02c12e23          	sw	a2,60(sp)
   23030:	b49ff06f          	j	22b78 <__subtf3+0x498>
   23034:	fff80737          	lui	a4,0xfff80
   23038:	fff70713          	addi	a4,a4,-1 # fff7ffff <__global_pointer$+0xfff58a8f>
   2303c:	00e67633          	and	a2,a2,a4
   23040:	02c12e23          	sw	a2,60(sp)
   23044:	00100413          	li	s0,1
   23048:	b31ff06f          	j	22b78 <__subtf3+0x498>
   2304c:	00051e63          	bnez	a0,23068 <__subtf3+0x988>
   23050:	02f12823          	sw	a5,48(sp)
   23054:	02d12a23          	sw	a3,52(sp)
   23058:	02b12c23          	sw	a1,56(sp)
   2305c:	03012e23          	sw	a6,60(sp)
   23060:	ffff8413          	addi	s0,t6,-1
   23064:	b15ff06f          	j	22b78 <__subtf3+0x498>
   23068:	00b6e633          	or	a2,a3,a1
   2306c:	01066633          	or	a2,a2,a6
   23070:	00f667b3          	or	a5,a2,a5
   23074:	00079c63          	bnez	a5,2308c <__subtf3+0x9ac>
   23078:	02e12823          	sw	a4,48(sp)
   2307c:	03e12a23          	sw	t5,52(sp)
   23080:	03d12c23          	sw	t4,56(sp)
   23084:	03112e23          	sw	a7,60(sp)
   23088:	fd9ff06f          	j	23060 <__subtf3+0x980>
   2308c:	03f12e23          	sw	t6,60(sp)
   23090:	02012c23          	sw	zero,56(sp)
   23094:	02012a23          	sw	zero,52(sp)
   23098:	02012823          	sw	zero,48(sp)
   2309c:	000e0713          	mv	a4,t3
   230a0:	00072783          	lw	a5,0(a4)
   230a4:	ffc72683          	lw	a3,-4(a4)
   230a8:	ffc70713          	addi	a4,a4,-4
   230ac:	00379793          	slli	a5,a5,0x3
   230b0:	01d6d693          	srli	a3,a3,0x1d
   230b4:	00d7e7b3          	or	a5,a5,a3
   230b8:	00f72223          	sw	a5,4(a4)
   230bc:	fee312e3          	bne	t1,a4,230a0 <__subtf3+0x9c0>
   230c0:	03012783          	lw	a5,48(sp)
   230c4:	00008437          	lui	s0,0x8
   230c8:	00000913          	li	s2,0
   230cc:	00379793          	slli	a5,a5,0x3
   230d0:	02f12823          	sw	a5,48(sp)
   230d4:	fff40413          	addi	s0,s0,-1 # 7fff <_start-0x8001>
   230d8:	aa1ff06f          	j	22b78 <__subtf3+0x498>
   230dc:	00f707b3          	add	a5,a4,a5
   230e0:	00e7b733          	sltu	a4,a5,a4
   230e4:	01e686b3          	add	a3,a3,t5
   230e8:	02f12823          	sw	a5,48(sp)
   230ec:	00e687b3          	add	a5,a3,a4
   230f0:	00e7b733          	sltu	a4,a5,a4
   230f4:	01e6b6b3          	sltu	a3,a3,t5
   230f8:	00e6e733          	or	a4,a3,a4
   230fc:	01d58633          	add	a2,a1,t4
   23100:	00e606b3          	add	a3,a2,a4
   23104:	00e6b733          	sltu	a4,a3,a4
   23108:	01d63633          	sltu	a2,a2,t4
   2310c:	00e66633          	or	a2,a2,a4
   23110:	01180733          	add	a4,a6,a7
   23114:	00e60633          	add	a2,a2,a4
   23118:	02f12a23          	sw	a5,52(sp)
   2311c:	02d12c23          	sw	a3,56(sp)
   23120:	02c12e23          	sw	a2,60(sp)
   23124:	00030793          	mv	a5,t1
   23128:	0007a703          	lw	a4,0(a5)
   2312c:	0047a683          	lw	a3,4(a5)
   23130:	00478793          	addi	a5,a5,4
   23134:	00175713          	srli	a4,a4,0x1
   23138:	01f69693          	slli	a3,a3,0x1f
   2313c:	00d76733          	or	a4,a4,a3
   23140:	fee7ae23          	sw	a4,-4(a5)
   23144:	fefe12e3          	bne	t3,a5,23128 <__subtf3+0xa48>
   23148:	000087b7          	lui	a5,0x8
   2314c:	fff78793          	addi	a5,a5,-1 # 7fff <_start-0x8001>
   23150:	00f50c63          	beq	a0,a5,23168 <__subtf3+0xa88>
   23154:	03c12783          	lw	a5,60(sp)
   23158:	0017d793          	srli	a5,a5,0x1
   2315c:	02f12e23          	sw	a5,60(sp)
   23160:	00050413          	mv	s0,a0
   23164:	a15ff06f          	j	22b78 <__subtf3+0x498>
   23168:	02012e23          	sw	zero,60(sp)
   2316c:	02012c23          	sw	zero,56(sp)
   23170:	02012a23          	sw	zero,52(sp)
   23174:	02012823          	sw	zero,48(sp)
   23178:	fe9ff06f          	j	23160 <__subtf3+0xa80>
   2317c:	28b05063          	blez	a1,233fc <__subtf3+0xd1c>
   23180:	0c061063          	bnez	a2,23240 <__subtf3+0xb60>
   23184:	02412503          	lw	a0,36(sp)
   23188:	02812683          	lw	a3,40(sp)
   2318c:	02c12e83          	lw	t4,44(sp)
   23190:	00d56633          	or	a2,a0,a3
   23194:	01d66633          	or	a2,a2,t4
   23198:	00f66633          	or	a2,a2,a5
   2319c:	ea060863          	beqz	a2,2284c <__subtf3+0x16c>
   231a0:	fff58813          	addi	a6,a1,-1
   231a4:	06081a63          	bnez	a6,23218 <__subtf3+0xb38>
   231a8:	01412883          	lw	a7,20(sp)
   231ac:	40f707b3          	sub	a5,a4,a5
   231b0:	00f73633          	sltu	a2,a4,a5
   231b4:	40a885b3          	sub	a1,a7,a0
   231b8:	00b8b333          	sltu	t1,a7,a1
   231bc:	40c585b3          	sub	a1,a1,a2
   231c0:	02f12823          	sw	a5,48(sp)
   231c4:	02b12a23          	sw	a1,52(sp)
   231c8:	00000613          	li	a2,0
   231cc:	00f77663          	bgeu	a4,a5,231d8 <__subtf3+0xaf8>
   231d0:	41150633          	sub	a2,a0,a7
   231d4:	00163613          	seqz	a2,a2
   231d8:	01812503          	lw	a0,24(sp)
   231dc:	00666633          	or	a2,a2,t1
   231e0:	40d505b3          	sub	a1,a0,a3
   231e4:	00b537b3          	sltu	a5,a0,a1
   231e8:	40c585b3          	sub	a1,a1,a2
   231ec:	02b12c23          	sw	a1,56(sp)
   231f0:	00060663          	beqz	a2,231fc <__subtf3+0xb1c>
   231f4:	40a686b3          	sub	a3,a3,a0
   231f8:	0016b813          	seqz	a6,a3
   231fc:	01c12703          	lw	a4,28(sp)
   23200:	00f867b3          	or	a5,a6,a5
   23204:	41d70733          	sub	a4,a4,t4
   23208:	40f707b3          	sub	a5,a4,a5
   2320c:	02f12e23          	sw	a5,60(sp)
   23210:	00100413          	li	s0,1
   23214:	1c80006f          	j	233dc <__subtf3+0xcfc>
   23218:	000087b7          	lui	a5,0x8
   2321c:	fff78793          	addi	a5,a5,-1 # 7fff <_start-0x8001>
   23220:	e2f58663          	beq	a1,a5,2284c <__subtf3+0x16c>
   23224:	07400793          	li	a5,116
   23228:	0507d063          	bge	a5,a6,23268 <__subtf3+0xb88>
   2322c:	02012623          	sw	zero,44(sp)
   23230:	02012423          	sw	zero,40(sp)
   23234:	02012223          	sw	zero,36(sp)
   23238:	00100793          	li	a5,1
   2323c:	1240006f          	j	23360 <__subtf3+0xc80>
   23240:	000087b7          	lui	a5,0x8
   23244:	fff78793          	addi	a5,a5,-1 # 7fff <_start-0x8001>
   23248:	eaf40e63          	beq	s0,a5,22904 <__subtf3+0x224>
   2324c:	02c12783          	lw	a5,44(sp)
   23250:	00080737          	lui	a4,0x80
   23254:	00e7e7b3          	or	a5,a5,a4
   23258:	02f12623          	sw	a5,44(sp)
   2325c:	07400793          	li	a5,116
   23260:	fcb7c6e3          	blt	a5,a1,2322c <__subtf3+0xb4c>
   23264:	00058813          	mv	a6,a1
   23268:	40585893          	srai	a7,a6,0x5
   2326c:	01f87793          	andi	a5,a6,31
   23270:	00000593          	li	a1,0
   23274:	00000713          	li	a4,0
   23278:	00271693          	slli	a3,a4,0x2
   2327c:	03171863          	bne	a4,a7,232ac <__subtf3+0xbcc>
   23280:	04079063          	bnez	a5,232c0 <__subtf3+0xbe0>
   23284:	00300613          	li	a2,3
   23288:	40e60733          	sub	a4,a2,a4
   2328c:	00de0633          	add	a2,t3,a3
   23290:	00062603          	lw	a2,0(a2)
   23294:	00178793          	addi	a5,a5,1
   23298:	004e0e13          	addi	t3,t3,4
   2329c:	fece2e23          	sw	a2,-4(t3)
   232a0:	fef756e3          	bge	a4,a5,2328c <__subtf3+0xbac>
   232a4:	00400693          	li	a3,4
   232a8:	0a80006f          	j	23350 <__subtf3+0xc70>
   232ac:	00d306b3          	add	a3,t1,a3
   232b0:	0006a683          	lw	a3,0(a3)
   232b4:	00170713          	addi	a4,a4,1 # 80001 <__global_pointer$+0x58a91>
   232b8:	00d5e5b3          	or	a1,a1,a3
   232bc:	fbdff06f          	j	23278 <__subtf3+0xb98>
   232c0:	04010713          	addi	a4,sp,64
   232c4:	00d70733          	add	a4,a4,a3
   232c8:	fe072703          	lw	a4,-32(a4)
   232cc:	02000813          	li	a6,32
   232d0:	40f80833          	sub	a6,a6,a5
   232d4:	01071733          	sll	a4,a4,a6
   232d8:	00e5e5b3          	or	a1,a1,a4
   232dc:	00300713          	li	a4,3
   232e0:	00d306b3          	add	a3,t1,a3
   232e4:	00000513          	li	a0,0
   232e8:	41170733          	sub	a4,a4,a7
   232ec:	00468693          	addi	a3,a3,4
   232f0:	02e54463          	blt	a0,a4,23318 <__subtf3+0xc38>
   232f4:	04010693          	addi	a3,sp,64
   232f8:	00271713          	slli	a4,a4,0x2
   232fc:	00e68733          	add	a4,a3,a4
   23300:	02c12683          	lw	a3,44(sp)
   23304:	00f6d7b3          	srl	a5,a3,a5
   23308:	fef72023          	sw	a5,-32(a4)
   2330c:	00400793          	li	a5,4
   23310:	411787b3          	sub	a5,a5,a7
   23314:	f91ff06f          	j	232a4 <__subtf3+0xbc4>
   23318:	ffc6a603          	lw	a2,-4(a3)
   2331c:	0006ae83          	lw	t4,0(a3)
   23320:	00251e13          	slli	t3,a0,0x2
   23324:	00f65633          	srl	a2,a2,a5
   23328:	010e9eb3          	sll	t4,t4,a6
   2332c:	01c30e33          	add	t3,t1,t3
   23330:	01d66633          	or	a2,a2,t4
   23334:	00ce2023          	sw	a2,0(t3)
   23338:	00150513          	addi	a0,a0,1
   2333c:	fb1ff06f          	j	232ec <__subtf3+0xc0c>
   23340:	00279713          	slli	a4,a5,0x2
   23344:	00e30733          	add	a4,t1,a4
   23348:	00072023          	sw	zero,0(a4)
   2334c:	00178793          	addi	a5,a5,1
   23350:	fed798e3          	bne	a5,a3,23340 <__subtf3+0xc60>
   23354:	02012703          	lw	a4,32(sp)
   23358:	00b037b3          	snez	a5,a1
   2335c:	00f767b3          	or	a5,a4,a5
   23360:	02f12023          	sw	a5,32(sp)
   23364:	01412683          	lw	a3,20(sp)
   23368:	01012583          	lw	a1,16(sp)
   2336c:	02012703          	lw	a4,32(sp)
   23370:	02412783          	lw	a5,36(sp)
   23374:	40e58733          	sub	a4,a1,a4
   23378:	40f687b3          	sub	a5,a3,a5
   2337c:	00f6b633          	sltu	a2,a3,a5
   23380:	00e5b6b3          	sltu	a3,a1,a4
   23384:	40d786b3          	sub	a3,a5,a3
   23388:	02d12a23          	sw	a3,52(sp)
   2338c:	02e12823          	sw	a4,48(sp)
   23390:	00000693          	li	a3,0
   23394:	00e5f463          	bgeu	a1,a4,2339c <__subtf3+0xcbc>
   23398:	0017b693          	seqz	a3,a5
   2339c:	00c6e6b3          	or	a3,a3,a2
   233a0:	02812703          	lw	a4,40(sp)
   233a4:	01812603          	lw	a2,24(sp)
   233a8:	40e60733          	sub	a4,a2,a4
   233ac:	40d707b3          	sub	a5,a4,a3
   233b0:	02f12c23          	sw	a5,56(sp)
   233b4:	00e635b3          	sltu	a1,a2,a4
   233b8:	00000613          	li	a2,0
   233bc:	00068463          	beqz	a3,233c4 <__subtf3+0xce4>
   233c0:	00173613          	seqz	a2,a4
   233c4:	01c12783          	lw	a5,28(sp)
   233c8:	02c12703          	lw	a4,44(sp)
   233cc:	00b66633          	or	a2,a2,a1
   233d0:	40e787b3          	sub	a5,a5,a4
   233d4:	40c787b3          	sub	a5,a5,a2
   233d8:	02f12e23          	sw	a5,60(sp)
   233dc:	03c12783          	lw	a5,60(sp)
   233e0:	00c79713          	slli	a4,a5,0xc
   233e4:	f8075a63          	bgez	a4,22b78 <__subtf3+0x498>
   233e8:	00080737          	lui	a4,0x80
   233ec:	fff70713          	addi	a4,a4,-1 # 7ffff <__global_pointer$+0x58a8f>
   233f0:	00e7f7b3          	and	a5,a5,a4
   233f4:	02f12e23          	sw	a5,60(sp)
   233f8:	5c40006f          	j	239bc <__subtf3+0x12dc>
   233fc:	2e058e63          	beqz	a1,236f8 <__subtf3+0x1018>
   23400:	40860eb3          	sub	t4,a2,s0
   23404:	0e041463          	bnez	s0,234ec <__subtf3+0xe0c>
   23408:	01412303          	lw	t1,20(sp)
   2340c:	01812583          	lw	a1,24(sp)
   23410:	01c12f03          	lw	t5,28(sp)
   23414:	00b36e33          	or	t3,t1,a1
   23418:	01ee6e33          	or	t3,t3,t5
   2341c:	00ee6e33          	or	t3,t3,a4
   23420:	020e1663          	bnez	t3,2344c <__subtf3+0xd6c>
   23424:	02f12823          	sw	a5,48(sp)
   23428:	02412783          	lw	a5,36(sp)
   2342c:	000e8413          	mv	s0,t4
   23430:	02f12a23          	sw	a5,52(sp)
   23434:	02812783          	lw	a5,40(sp)
   23438:	02f12c23          	sw	a5,56(sp)
   2343c:	02c12783          	lw	a5,44(sp)
   23440:	02f12e23          	sw	a5,60(sp)
   23444:	00050913          	mv	s2,a0
   23448:	f30ff06f          	j	22b78 <__subtf3+0x498>
   2344c:	fffe8693          	addi	a3,t4,-1
   23450:	06069a63          	bnez	a3,234c4 <__subtf3+0xde4>
   23454:	02412883          	lw	a7,36(sp)
   23458:	40e78733          	sub	a4,a5,a4
   2345c:	00e7b633          	sltu	a2,a5,a4
   23460:	40688833          	sub	a6,a7,t1
   23464:	0108be33          	sltu	t3,a7,a6
   23468:	40c80833          	sub	a6,a6,a2
   2346c:	02e12823          	sw	a4,48(sp)
   23470:	03012a23          	sw	a6,52(sp)
   23474:	00000613          	li	a2,0
   23478:	00e7f663          	bgeu	a5,a4,23484 <__subtf3+0xda4>
   2347c:	41130633          	sub	a2,t1,a7
   23480:	00163613          	seqz	a2,a2
   23484:	02812883          	lw	a7,40(sp)
   23488:	01c66733          	or	a4,a2,t3
   2348c:	40b88633          	sub	a2,a7,a1
   23490:	00c8b833          	sltu	a6,a7,a2
   23494:	40e60633          	sub	a2,a2,a4
   23498:	02c12c23          	sw	a2,56(sp)
   2349c:	00070663          	beqz	a4,234a8 <__subtf3+0xdc8>
   234a0:	411585b3          	sub	a1,a1,a7
   234a4:	0015b693          	seqz	a3,a1
   234a8:	02c12783          	lw	a5,44(sp)
   234ac:	0106e6b3          	or	a3,a3,a6
   234b0:	00050913          	mv	s2,a0
   234b4:	41e787b3          	sub	a5,a5,t5
   234b8:	40d786b3          	sub	a3,a5,a3
   234bc:	02d12e23          	sw	a3,60(sp)
   234c0:	d51ff06f          	j	23210 <__subtf3+0xb30>
   234c4:	00008737          	lui	a4,0x8
   234c8:	fff70713          	addi	a4,a4,-1 # 7fff <_start-0x8001>
   234cc:	f4ee8ce3          	beq	t4,a4,23424 <__subtf3+0xd44>
   234d0:	07400793          	li	a5,116
   234d4:	0cd7dc63          	bge	a5,a3,235ac <__subtf3+0xecc>
   234d8:	00012e23          	sw	zero,28(sp)
   234dc:	00012c23          	sw	zero,24(sp)
   234e0:	00012a23          	sw	zero,20(sp)
   234e4:	00100793          	li	a5,1
   234e8:	1880006f          	j	23670 <__subtf3+0xf90>
   234ec:	00008737          	lui	a4,0x8
   234f0:	fff70713          	addi	a4,a4,-1 # 7fff <_start-0x8001>
   234f4:	02e61463          	bne	a2,a4,2351c <__subtf3+0xe3c>
   234f8:	02f12823          	sw	a5,48(sp)
   234fc:	02412783          	lw	a5,36(sp)
   23500:	00060413          	mv	s0,a2
   23504:	02f12a23          	sw	a5,52(sp)
   23508:	02812783          	lw	a5,40(sp)
   2350c:	02f12c23          	sw	a5,56(sp)
   23510:	02c12783          	lw	a5,44(sp)
   23514:	02f12e23          	sw	a5,60(sp)
   23518:	f2dff06f          	j	23444 <__subtf3+0xd64>
   2351c:	01c12783          	lw	a5,28(sp)
   23520:	00080737          	lui	a4,0x80
   23524:	00e7e7b3          	or	a5,a5,a4
   23528:	00f12e23          	sw	a5,28(sp)
   2352c:	07400793          	li	a5,116
   23530:	fbd7c4e3          	blt	a5,t4,234d8 <__subtf3+0xdf8>
   23534:	41fed793          	srai	a5,t4,0x1f
   23538:	800005b7          	lui	a1,0x80000
   2353c:	01f7f793          	andi	a5,a5,31
   23540:	01f58593          	addi	a1,a1,31 # 8000001f <__global_pointer$+0x7ffd8aaf>
   23544:	01d787b3          	add	a5,a5,t4
   23548:	00bef5b3          	and	a1,t4,a1
   2354c:	4057d313          	srai	t1,a5,0x5
   23550:	0005d863          	bgez	a1,23560 <__subtf3+0xe80>
   23554:	fff58593          	addi	a1,a1,-1
   23558:	fe05e593          	ori	a1,a1,-32
   2355c:	00158593          	addi	a1,a1,1
   23560:	00058793          	mv	a5,a1
   23564:	00000e13          	li	t3,0
   23568:	00000713          	li	a4,0
   2356c:	04674463          	blt	a4,t1,235b4 <__subtf3+0xed4>
   23570:	00030693          	mv	a3,t1
   23574:	00035463          	bgez	t1,2357c <__subtf3+0xe9c>
   23578:	00000693          	li	a3,0
   2357c:	00231713          	slli	a4,t1,0x2
   23580:	04059663          	bnez	a1,235cc <__subtf3+0xeec>
   23584:	00300693          	li	a3,3
   23588:	40668333          	sub	t1,a3,t1
   2358c:	00e806b3          	add	a3,a6,a4
   23590:	0006a683          	lw	a3,0(a3)
   23594:	00178793          	addi	a5,a5,1
   23598:	00480813          	addi	a6,a6,4
   2359c:	fed82e23          	sw	a3,-4(a6)
   235a0:	fef356e3          	bge	t1,a5,2358c <__subtf3+0xeac>
   235a4:	00300693          	li	a3,3
   235a8:	0b80006f          	j	23660 <__subtf3+0xf80>
   235ac:	00068e93          	mv	t4,a3
   235b0:	f85ff06f          	j	23534 <__subtf3+0xe54>
   235b4:	00271693          	slli	a3,a4,0x2
   235b8:	00d886b3          	add	a3,a7,a3
   235bc:	0006a683          	lw	a3,0(a3)
   235c0:	00170713          	addi	a4,a4,1 # 80001 <__global_pointer$+0x58a91>
   235c4:	00de6e33          	or	t3,t3,a3
   235c8:	fa5ff06f          	j	2356c <__subtf3+0xe8c>
   235cc:	04010793          	addi	a5,sp,64
   235d0:	00269693          	slli	a3,a3,0x2
   235d4:	00d786b3          	add	a3,a5,a3
   235d8:	fd06a783          	lw	a5,-48(a3)
   235dc:	02000e93          	li	t4,32
   235e0:	40be8eb3          	sub	t4,t4,a1
   235e4:	01d797b3          	sll	a5,a5,t4
   235e8:	00fe6e33          	or	t3,t3,a5
   235ec:	00300793          	li	a5,3
   235f0:	00e88733          	add	a4,a7,a4
   235f4:	00000813          	li	a6,0
   235f8:	406787b3          	sub	a5,a5,t1
   235fc:	00470713          	addi	a4,a4,4
   23600:	02f84463          	blt	a6,a5,23628 <__subtf3+0xf48>
   23604:	04010713          	addi	a4,sp,64
   23608:	00279793          	slli	a5,a5,0x2
   2360c:	00f707b3          	add	a5,a4,a5
   23610:	01c12703          	lw	a4,28(sp)
   23614:	00b755b3          	srl	a1,a4,a1
   23618:	fcb7a823          	sw	a1,-48(a5)
   2361c:	00400793          	li	a5,4
   23620:	406787b3          	sub	a5,a5,t1
   23624:	f81ff06f          	j	235a4 <__subtf3+0xec4>
   23628:	ffc72683          	lw	a3,-4(a4)
   2362c:	00072f83          	lw	t6,0(a4)
   23630:	00281f13          	slli	t5,a6,0x2
   23634:	00b6d6b3          	srl	a3,a3,a1
   23638:	01df9fb3          	sll	t6,t6,t4
   2363c:	01e88f33          	add	t5,a7,t5
   23640:	01f6e6b3          	or	a3,a3,t6
   23644:	00df2023          	sw	a3,0(t5)
   23648:	00180813          	addi	a6,a6,1
   2364c:	fb1ff06f          	j	235fc <__subtf3+0xf1c>
   23650:	00279713          	slli	a4,a5,0x2
   23654:	00e88733          	add	a4,a7,a4
   23658:	00072023          	sw	zero,0(a4)
   2365c:	00178793          	addi	a5,a5,1
   23660:	fef6d8e3          	bge	a3,a5,23650 <__subtf3+0xf70>
   23664:	01012703          	lw	a4,16(sp)
   23668:	01c037b3          	snez	a5,t3
   2366c:	00f767b3          	or	a5,a4,a5
   23670:	00f12823          	sw	a5,16(sp)
   23674:	02412683          	lw	a3,36(sp)
   23678:	02012803          	lw	a6,32(sp)
   2367c:	01012703          	lw	a4,16(sp)
   23680:	01412783          	lw	a5,20(sp)
   23684:	40e80733          	sub	a4,a6,a4
   23688:	40f687b3          	sub	a5,a3,a5
   2368c:	00f6b5b3          	sltu	a1,a3,a5
   23690:	00e836b3          	sltu	a3,a6,a4
   23694:	40d786b3          	sub	a3,a5,a3
   23698:	02d12a23          	sw	a3,52(sp)
   2369c:	02e12823          	sw	a4,48(sp)
   236a0:	00000693          	li	a3,0
   236a4:	00e87463          	bgeu	a6,a4,236ac <__subtf3+0xfcc>
   236a8:	0017b693          	seqz	a3,a5
   236ac:	00b6e6b3          	or	a3,a3,a1
   236b0:	01812703          	lw	a4,24(sp)
   236b4:	02812583          	lw	a1,40(sp)
   236b8:	40e58733          	sub	a4,a1,a4
   236bc:	40d707b3          	sub	a5,a4,a3
   236c0:	02f12c23          	sw	a5,56(sp)
   236c4:	00e5b833          	sltu	a6,a1,a4
   236c8:	00000593          	li	a1,0
   236cc:	00068463          	beqz	a3,236d4 <__subtf3+0xff4>
   236d0:	00173593          	seqz	a1,a4
   236d4:	02c12783          	lw	a5,44(sp)
   236d8:	01c12703          	lw	a4,28(sp)
   236dc:	0105e5b3          	or	a1,a1,a6
   236e0:	00060413          	mv	s0,a2
   236e4:	40e787b3          	sub	a5,a5,a4
   236e8:	40b787b3          	sub	a5,a5,a1
   236ec:	02f12e23          	sw	a5,60(sp)
   236f0:	00050913          	mv	s2,a0
   236f4:	ce9ff06f          	j	233dc <__subtf3+0xcfc>
   236f8:	00008f37          	lui	t5,0x8
   236fc:	ffef0693          	addi	a3,t5,-2 # 7ffe <_start-0x8002>
   23700:	00140e93          	addi	t4,s0,1
   23704:	00defeb3          	and	t4,t4,a3
   23708:	02412603          	lw	a2,36(sp)
   2370c:	01412683          	lw	a3,20(sp)
   23710:	01812803          	lw	a6,24(sp)
   23714:	01c12e03          	lw	t3,28(sp)
   23718:	02812883          	lw	a7,40(sp)
   2371c:	02c12303          	lw	t1,44(sp)
   23720:	1e0e9063          	bnez	t4,23900 <__subtf3+0x1220>
   23724:	011665b3          	or	a1,a2,a7
   23728:	0106eeb3          	or	t4,a3,a6
   2372c:	0065e5b3          	or	a1,a1,t1
   23730:	01ceeeb3          	or	t4,t4,t3
   23734:	00f5e5b3          	or	a1,a1,a5
   23738:	00eeeeb3          	or	t4,t4,a4
   2373c:	10041a63          	bnez	s0,23850 <__subtf3+0x1170>
   23740:	020e9463          	bnez	t4,23768 <__subtf3+0x1088>
   23744:	02f12823          	sw	a5,48(sp)
   23748:	02c12a23          	sw	a2,52(sp)
   2374c:	03112c23          	sw	a7,56(sp)
   23750:	02612e23          	sw	t1,60(sp)
   23754:	00050913          	mv	s2,a0
   23758:	c2059063          	bnez	a1,22b78 <__subtf3+0x498>
   2375c:	00000413          	li	s0,0
   23760:	00000913          	li	s2,0
   23764:	c14ff06f          	j	22b78 <__subtf3+0x498>
   23768:	00059c63          	bnez	a1,23780 <__subtf3+0x10a0>
   2376c:	02e12823          	sw	a4,48(sp)
   23770:	02d12a23          	sw	a3,52(sp)
   23774:	03012c23          	sw	a6,56(sp)
   23778:	03c12e23          	sw	t3,60(sp)
   2377c:	bfcff06f          	j	22b78 <__subtf3+0x498>
   23780:	40f705b3          	sub	a1,a4,a5
   23784:	40c68fb3          	sub	t6,a3,a2
   23788:	00b73f33          	sltu	t5,a4,a1
   2378c:	01f6beb3          	sltu	t4,a3,t6
   23790:	41ef8fb3          	sub	t6,t6,t5
   23794:	02b12823          	sw	a1,48(sp)
   23798:	03f12a23          	sw	t6,52(sp)
   2379c:	00000f13          	li	t5,0
   237a0:	00b77663          	bgeu	a4,a1,237ac <__subtf3+0x10cc>
   237a4:	40d60f33          	sub	t5,a2,a3
   237a8:	001f3f13          	seqz	t5,t5
   237ac:	411802b3          	sub	t0,a6,a7
   237b0:	01df6f33          	or	t5,t5,t4
   237b4:	41e289b3          	sub	s3,t0,t5
   237b8:	03312c23          	sw	s3,56(sp)
   237bc:	00583a33          	sltu	s4,a6,t0
   237c0:	00000393          	li	t2,0
   237c4:	000f0463          	beqz	t5,237cc <__subtf3+0x10ec>
   237c8:	0012b393          	seqz	t2,t0
   237cc:	406e0eb3          	sub	t4,t3,t1
   237d0:	0143e3b3          	or	t2,t2,s4
   237d4:	407e8eb3          	sub	t4,t4,t2
   237d8:	03d12e23          	sw	t4,60(sp)
   237dc:	00ce9f13          	slli	t5,t4,0xc
   237e0:	060f5063          	bgez	t5,23840 <__subtf3+0x1160>
   237e4:	40e78733          	sub	a4,a5,a4
   237e8:	40d606b3          	sub	a3,a2,a3
   237ec:	00e7b5b3          	sltu	a1,a5,a4
   237f0:	40b685b3          	sub	a1,a3,a1
   237f4:	02b12a23          	sw	a1,52(sp)
   237f8:	02e12823          	sw	a4,48(sp)
   237fc:	00d63633          	sltu	a2,a2,a3
   23800:	00000593          	li	a1,0
   23804:	00e7f463          	bgeu	a5,a4,2380c <__subtf3+0x112c>
   23808:	0016b593          	seqz	a1,a3
   2380c:	41088733          	sub	a4,a7,a6
   23810:	00c5e633          	or	a2,a1,a2
   23814:	00e8b8b3          	sltu	a7,a7,a4
   23818:	40c70733          	sub	a4,a4,a2
   2381c:	02e12c23          	sw	a4,56(sp)
   23820:	00000693          	li	a3,0
   23824:	00060463          	beqz	a2,2382c <__subtf3+0x114c>
   23828:	0012b693          	seqz	a3,t0
   2382c:	41c30733          	sub	a4,t1,t3
   23830:	0116e6b3          	or	a3,a3,a7
   23834:	40d706b3          	sub	a3,a4,a3
   23838:	02d12e23          	sw	a3,60(sp)
   2383c:	c09ff06f          	j	23444 <__subtf3+0xd64>
   23840:	01f5e5b3          	or	a1,a1,t6
   23844:	0135e5b3          	or	a1,a1,s3
   23848:	01d5e5b3          	or	a1,a1,t4
   2384c:	f0dff06f          	j	23758 <__subtf3+0x1078>
   23850:	03010f93          	addi	t6,sp,48
   23854:	040e9e63          	bnez	t4,238b0 <__subtf3+0x11d0>
   23858:	02059e63          	bnez	a1,23894 <__subtf3+0x11b4>
   2385c:	03e12e23          	sw	t5,60(sp)
   23860:	02012c23          	sw	zero,56(sp)
   23864:	02012a23          	sw	zero,52(sp)
   23868:	02012823          	sw	zero,48(sp)
   2386c:	03c10793          	addi	a5,sp,60
   23870:	0007a703          	lw	a4,0(a5)
   23874:	ffc7a683          	lw	a3,-4(a5)
   23878:	ffc78793          	addi	a5,a5,-4
   2387c:	00371713          	slli	a4,a4,0x3
   23880:	01d6d693          	srli	a3,a3,0x1d
   23884:	00d76733          	or	a4,a4,a3
   23888:	00e7a223          	sw	a4,4(a5)
   2388c:	feff92e3          	bne	t6,a5,23870 <__subtf3+0x1190>
   23890:	831ff06f          	j	230c0 <__subtf3+0x9e0>
   23894:	02f12823          	sw	a5,48(sp)
   23898:	02c12a23          	sw	a2,52(sp)
   2389c:	03112c23          	sw	a7,56(sp)
   238a0:	02612e23          	sw	t1,60(sp)
   238a4:	00050913          	mv	s2,a0
   238a8:	ffff0413          	addi	s0,t5,-1
   238ac:	accff06f          	j	22b78 <__subtf3+0x498>
   238b0:	00059c63          	bnez	a1,238c8 <__subtf3+0x11e8>
   238b4:	02e12823          	sw	a4,48(sp)
   238b8:	02d12a23          	sw	a3,52(sp)
   238bc:	03012c23          	sw	a6,56(sp)
   238c0:	03c12e23          	sw	t3,60(sp)
   238c4:	fe5ff06f          	j	238a8 <__subtf3+0x11c8>
   238c8:	03e12e23          	sw	t5,60(sp)
   238cc:	02012c23          	sw	zero,56(sp)
   238d0:	02012a23          	sw	zero,52(sp)
   238d4:	02012823          	sw	zero,48(sp)
   238d8:	03c10793          	addi	a5,sp,60
   238dc:	0007a703          	lw	a4,0(a5)
   238e0:	ffc7a683          	lw	a3,-4(a5)
   238e4:	ffc78793          	addi	a5,a5,-4
   238e8:	00371713          	slli	a4,a4,0x3
   238ec:	01d6d693          	srli	a3,a3,0x1d
   238f0:	00d76733          	or	a4,a4,a3
   238f4:	00e7a223          	sw	a4,4(a5)
   238f8:	feff92e3          	bne	t6,a5,238dc <__subtf3+0x11fc>
   238fc:	fc4ff06f          	j	230c0 <__subtf3+0x9e0>
   23900:	40f70eb3          	sub	t4,a4,a5
   23904:	40c682b3          	sub	t0,a3,a2
   23908:	01d73fb3          	sltu	t6,a4,t4
   2390c:	0056bf33          	sltu	t5,a3,t0
   23910:	41f282b3          	sub	t0,t0,t6
   23914:	03d12823          	sw	t4,48(sp)
   23918:	02512a23          	sw	t0,52(sp)
   2391c:	00000f93          	li	t6,0
   23920:	01d77663          	bgeu	a4,t4,2392c <__subtf3+0x124c>
   23924:	40d60fb3          	sub	t6,a2,a3
   23928:	001fbf93          	seqz	t6,t6
   2392c:	411803b3          	sub	t2,a6,a7
   23930:	01efefb3          	or	t6,t6,t5
   23934:	41f38a33          	sub	s4,t2,t6
   23938:	03412c23          	sw	s4,56(sp)
   2393c:	00783ab3          	sltu	s5,a6,t2
   23940:	00000993          	li	s3,0
   23944:	000f8463          	beqz	t6,2394c <__subtf3+0x126c>
   23948:	0013b993          	seqz	s3,t2
   2394c:	406e0f33          	sub	t5,t3,t1
   23950:	0159e9b3          	or	s3,s3,s5
   23954:	413f0f33          	sub	t5,t5,s3
   23958:	03e12e23          	sw	t5,60(sp)
   2395c:	00cf1f93          	slli	t6,t5,0xc
   23960:	0e0fd063          	bgez	t6,23a40 <__subtf3+0x1360>
   23964:	40e78733          	sub	a4,a5,a4
   23968:	40d606b3          	sub	a3,a2,a3
   2396c:	00e7beb3          	sltu	t4,a5,a4
   23970:	41d68eb3          	sub	t4,a3,t4
   23974:	03d12a23          	sw	t4,52(sp)
   23978:	02e12823          	sw	a4,48(sp)
   2397c:	00d63633          	sltu	a2,a2,a3
   23980:	00000e93          	li	t4,0
   23984:	00e7f463          	bgeu	a5,a4,2398c <__subtf3+0x12ac>
   23988:	0016be93          	seqz	t4,a3
   2398c:	41088733          	sub	a4,a7,a6
   23990:	00cee633          	or	a2,t4,a2
   23994:	00e8b8b3          	sltu	a7,a7,a4
   23998:	40c70733          	sub	a4,a4,a2
   2399c:	02e12c23          	sw	a4,56(sp)
   239a0:	00060463          	beqz	a2,239a8 <__subtf3+0x12c8>
   239a4:	0013b593          	seqz	a1,t2
   239a8:	41c30733          	sub	a4,t1,t3
   239ac:	0115e7b3          	or	a5,a1,a7
   239b0:	40f707b3          	sub	a5,a4,a5
   239b4:	02f12e23          	sw	a5,60(sp)
   239b8:	00050913          	mv	s2,a0
   239bc:	03c12503          	lw	a0,60(sp)
   239c0:	08050a63          	beqz	a0,23a54 <__subtf3+0x1374>
   239c4:	3a9000ef          	jal	ra,2456c <__clzsi2>
   239c8:	ff450513          	addi	a0,a0,-12
   239cc:	41f55793          	srai	a5,a0,0x1f
   239d0:	80000737          	lui	a4,0x80000
   239d4:	01f7f793          	andi	a5,a5,31
   239d8:	01f70713          	addi	a4,a4,31 # 8000001f <__global_pointer$+0x7ffd8aaf>
   239dc:	00a787b3          	add	a5,a5,a0
   239e0:	00e57733          	and	a4,a0,a4
   239e4:	4057d793          	srai	a5,a5,0x5
   239e8:	00075863          	bgez	a4,239f8 <__subtf3+0x1318>
   239ec:	fff70713          	addi	a4,a4,-1
   239f0:	fe076713          	ori	a4,a4,-32
   239f4:	00170713          	addi	a4,a4,1
   239f8:	40f006b3          	neg	a3,a5
   239fc:	08070863          	beqz	a4,23a8c <__subtf3+0x13ac>
   23a00:	00269693          	slli	a3,a3,0x2
   23a04:	03010313          	addi	t1,sp,48
   23a08:	00c68693          	addi	a3,a3,12
   23a0c:	02000813          	li	a6,32
   23a10:	00d306b3          	add	a3,t1,a3
   23a14:	00279593          	slli	a1,a5,0x2
   23a18:	40e80833          	sub	a6,a6,a4
   23a1c:	08d31e63          	bne	t1,a3,23ab8 <__subtf3+0x13d8>
   23a20:	04010693          	addi	a3,sp,64
   23a24:	00b685b3          	add	a1,a3,a1
   23a28:	03012683          	lw	a3,48(sp)
   23a2c:	fff78793          	addi	a5,a5,-1
   23a30:	00e69733          	sll	a4,a3,a4
   23a34:	fee5a823          	sw	a4,-16(a1)
   23a38:	fff00693          	li	a3,-1
   23a3c:	0b40006f          	j	23af0 <__subtf3+0x1410>
   23a40:	005eeeb3          	or	t4,t4,t0
   23a44:	014eeeb3          	or	t4,t4,s4
   23a48:	01eeeeb3          	or	t4,t4,t5
   23a4c:	d00e88e3          	beqz	t4,2375c <__subtf3+0x107c>
   23a50:	f6dff06f          	j	239bc <__subtf3+0x12dc>
   23a54:	03812503          	lw	a0,56(sp)
   23a58:	00050863          	beqz	a0,23a68 <__subtf3+0x1388>
   23a5c:	311000ef          	jal	ra,2456c <__clzsi2>
   23a60:	02050513          	addi	a0,a0,32
   23a64:	f65ff06f          	j	239c8 <__subtf3+0x12e8>
   23a68:	03412503          	lw	a0,52(sp)
   23a6c:	00050863          	beqz	a0,23a7c <__subtf3+0x139c>
   23a70:	2fd000ef          	jal	ra,2456c <__clzsi2>
   23a74:	04050513          	addi	a0,a0,64
   23a78:	f51ff06f          	j	239c8 <__subtf3+0x12e8>
   23a7c:	03012503          	lw	a0,48(sp)
   23a80:	2ed000ef          	jal	ra,2456c <__clzsi2>
   23a84:	06050513          	addi	a0,a0,96
   23a88:	f41ff06f          	j	239c8 <__subtf3+0x12e8>
   23a8c:	03c10713          	addi	a4,sp,60
   23a90:	00269693          	slli	a3,a3,0x2
   23a94:	00300613          	li	a2,3
   23a98:	00d705b3          	add	a1,a4,a3
   23a9c:	0005a583          	lw	a1,0(a1)
   23aa0:	fff60613          	addi	a2,a2,-1
   23aa4:	ffc70713          	addi	a4,a4,-4
   23aa8:	00b72223          	sw	a1,4(a4)
   23aac:	fef656e3          	bge	a2,a5,23a98 <__subtf3+0x13b8>
   23ab0:	fff78793          	addi	a5,a5,-1
   23ab4:	f85ff06f          	j	23a38 <__subtf3+0x1358>
   23ab8:	ffc6a603          	lw	a2,-4(a3)
   23abc:	0006a883          	lw	a7,0(a3)
   23ac0:	00b68e33          	add	t3,a3,a1
   23ac4:	01065633          	srl	a2,a2,a6
   23ac8:	00e898b3          	sll	a7,a7,a4
   23acc:	01166633          	or	a2,a2,a7
   23ad0:	00ce2023          	sw	a2,0(t3)
   23ad4:	ffc68693          	addi	a3,a3,-4
   23ad8:	f45ff06f          	j	23a1c <__subtf3+0x133c>
   23adc:	00279713          	slli	a4,a5,0x2
   23ae0:	03010613          	addi	a2,sp,48
   23ae4:	00e60733          	add	a4,a2,a4
   23ae8:	00072023          	sw	zero,0(a4)
   23aec:	fff78793          	addi	a5,a5,-1
   23af0:	fed796e3          	bne	a5,a3,23adc <__subtf3+0x13fc>
   23af4:	16854063          	blt	a0,s0,23c54 <__subtf3+0x1574>
   23af8:	40850433          	sub	s0,a0,s0
   23afc:	00140413          	addi	s0,s0,1
   23b00:	41f45793          	srai	a5,s0,0x1f
   23b04:	01f7f793          	andi	a5,a5,31
   23b08:	008787b3          	add	a5,a5,s0
   23b0c:	4057d513          	srai	a0,a5,0x5
   23b10:	800007b7          	lui	a5,0x80000
   23b14:	01f78793          	addi	a5,a5,31 # 8000001f <__global_pointer$+0x7ffd8aaf>
   23b18:	00f47433          	and	s0,s0,a5
   23b1c:	00045863          	bgez	s0,23b2c <__subtf3+0x144c>
   23b20:	fff40413          	addi	s0,s0,-1
   23b24:	fe046413          	ori	s0,s0,-32
   23b28:	00140413          	addi	s0,s0,1
   23b2c:	00040793          	mv	a5,s0
   23b30:	00000813          	li	a6,0
   23b34:	00000713          	li	a4,0
   23b38:	04a74263          	blt	a4,a0,23b7c <__subtf3+0x149c>
   23b3c:	00050693          	mv	a3,a0
   23b40:	00055463          	bgez	a0,23b48 <__subtf3+0x1468>
   23b44:	00000693          	li	a3,0
   23b48:	00251713          	slli	a4,a0,0x2
   23b4c:	04041663          	bnez	s0,23b98 <__subtf3+0x14b8>
   23b50:	00300613          	li	a2,3
   23b54:	03010693          	addi	a3,sp,48
   23b58:	40a60533          	sub	a0,a2,a0
   23b5c:	00e68633          	add	a2,a3,a4
   23b60:	00062603          	lw	a2,0(a2)
   23b64:	00178793          	addi	a5,a5,1
   23b68:	00468693          	addi	a3,a3,4
   23b6c:	fec6ae23          	sw	a2,-4(a3)
   23b70:	fef556e3          	bge	a0,a5,23b5c <__subtf3+0x147c>
   23b74:	00300693          	li	a3,3
   23b78:	0c00006f          	j	23c38 <__subtf3+0x1558>
   23b7c:	00271693          	slli	a3,a4,0x2
   23b80:	03010613          	addi	a2,sp,48
   23b84:	00d606b3          	add	a3,a2,a3
   23b88:	0006a683          	lw	a3,0(a3)
   23b8c:	00170713          	addi	a4,a4,1
   23b90:	00d86833          	or	a6,a6,a3
   23b94:	fa5ff06f          	j	23b38 <__subtf3+0x1458>
   23b98:	04010793          	addi	a5,sp,64
   23b9c:	00269693          	slli	a3,a3,0x2
   23ba0:	00d786b3          	add	a3,a5,a3
   23ba4:	ff06a783          	lw	a5,-16(a3)
   23ba8:	02000593          	li	a1,32
   23bac:	408585b3          	sub	a1,a1,s0
   23bb0:	00b797b3          	sll	a5,a5,a1
   23bb4:	00f86833          	or	a6,a6,a5
   23bb8:	03010793          	addi	a5,sp,48
   23bbc:	00e78733          	add	a4,a5,a4
   23bc0:	00300793          	li	a5,3
   23bc4:	00000613          	li	a2,0
   23bc8:	40a787b3          	sub	a5,a5,a0
   23bcc:	00470713          	addi	a4,a4,4
   23bd0:	02f64463          	blt	a2,a5,23bf8 <__subtf3+0x1518>
   23bd4:	04010713          	addi	a4,sp,64
   23bd8:	00279793          	slli	a5,a5,0x2
   23bdc:	00f707b3          	add	a5,a4,a5
   23be0:	03c12703          	lw	a4,60(sp)
   23be4:	00875433          	srl	s0,a4,s0
   23be8:	fe87a823          	sw	s0,-16(a5)
   23bec:	00400793          	li	a5,4
   23bf0:	40a787b3          	sub	a5,a5,a0
   23bf4:	f81ff06f          	j	23b74 <__subtf3+0x1494>
   23bf8:	00261893          	slli	a7,a2,0x2
   23bfc:	03010693          	addi	a3,sp,48
   23c00:	011688b3          	add	a7,a3,a7
   23c04:	00072303          	lw	t1,0(a4)
   23c08:	ffc72683          	lw	a3,-4(a4)
   23c0c:	00160613          	addi	a2,a2,1
   23c10:	00b31333          	sll	t1,t1,a1
   23c14:	0086d6b3          	srl	a3,a3,s0
   23c18:	0066e6b3          	or	a3,a3,t1
   23c1c:	00d8a023          	sw	a3,0(a7)
   23c20:	fadff06f          	j	23bcc <__subtf3+0x14ec>
   23c24:	00279713          	slli	a4,a5,0x2
   23c28:	03010613          	addi	a2,sp,48
   23c2c:	00e60733          	add	a4,a2,a4
   23c30:	00072023          	sw	zero,0(a4)
   23c34:	00178793          	addi	a5,a5,1
   23c38:	fef6d6e3          	bge	a3,a5,23c24 <__subtf3+0x1544>
   23c3c:	03012703          	lw	a4,48(sp)
   23c40:	010037b3          	snez	a5,a6
   23c44:	00000413          	li	s0,0
   23c48:	00f767b3          	or	a5,a4,a5
   23c4c:	02f12823          	sw	a5,48(sp)
   23c50:	f29fe06f          	j	22b78 <__subtf3+0x498>
   23c54:	03c12783          	lw	a5,60(sp)
   23c58:	fff80737          	lui	a4,0xfff80
   23c5c:	fff70713          	addi	a4,a4,-1 # fff7ffff <__global_pointer$+0xfff58a8f>
   23c60:	40a40433          	sub	s0,s0,a0
   23c64:	00e7f7b3          	and	a5,a5,a4
   23c68:	cb5fe06f          	j	2291c <__subtf3+0x23c>
   23c6c:	02012e23          	sw	zero,60(sp)
   23c70:	02012c23          	sw	zero,56(sp)
   23c74:	02012a23          	sw	zero,52(sp)
   23c78:	02012823          	sw	zero,48(sp)
   23c7c:	f7dfe06f          	j	22bf8 <__subtf3+0x518>

00023c80 <__fixtfsi>:
   23c80:	00c52703          	lw	a4,12(a0)
   23c84:	00852783          	lw	a5,8(a0)
   23c88:	00452683          	lw	a3,4(a0)
   23c8c:	00052603          	lw	a2,0(a0)
   23c90:	fe010113          	addi	sp,sp,-32
   23c94:	00f12423          	sw	a5,8(sp)
   23c98:	00e12623          	sw	a4,12(sp)
   23c9c:	00f12c23          	sw	a5,24(sp)
   23ca0:	01071593          	slli	a1,a4,0x10
   23ca4:	00171793          	slli	a5,a4,0x1
   23ca8:	01f75813          	srli	a6,a4,0x1f
   23cac:	00004737          	lui	a4,0x4
   23cb0:	00d12223          	sw	a3,4(sp)
   23cb4:	00d12a23          	sw	a3,20(sp)
   23cb8:	00c12023          	sw	a2,0(sp)
   23cbc:	0117d693          	srli	a3,a5,0x11
   23cc0:	00c12823          	sw	a2,16(sp)
   23cc4:	ffe70793          	addi	a5,a4,-2 # 3ffe <_start-0xc002>
   23cc8:	00000513          	li	a0,0
   23ccc:	00d7dc63          	bge	a5,a3,23ce4 <__fixtfsi+0x64>
   23cd0:	01d70793          	addi	a5,a4,29
   23cd4:	00d7dc63          	bge	a5,a3,23cec <__fixtfsi+0x6c>
   23cd8:	80000537          	lui	a0,0x80000
   23cdc:	fff54513          	not	a0,a0
   23ce0:	00a80533          	add	a0,a6,a0
   23ce4:	02010113          	addi	sp,sp,32
   23ce8:	00008067          	ret
   23cec:	000107b7          	lui	a5,0x10
   23cf0:	0105d593          	srli	a1,a1,0x10
   23cf4:	00f5e5b3          	or	a1,a1,a5
   23cf8:	06f70793          	addi	a5,a4,111
   23cfc:	40d787b3          	sub	a5,a5,a3
   23d00:	4057d713          	srai	a4,a5,0x5
   23d04:	00b12e23          	sw	a1,28(sp)
   23d08:	01f7f793          	andi	a5,a5,31
   23d0c:	08079863          	bnez	a5,23d9c <__fixtfsi+0x11c>
   23d10:	00271793          	slli	a5,a4,0x2
   23d14:	02010693          	addi	a3,sp,32
   23d18:	00f687b3          	add	a5,a3,a5
   23d1c:	ff07a783          	lw	a5,-16(a5) # fff0 <_start-0x10>
   23d20:	00200613          	li	a2,2
   23d24:	00f12823          	sw	a5,16(sp)
   23d28:	00200793          	li	a5,2
   23d2c:	00e78463          	beq	a5,a4,23d34 <__fixtfsi+0xb4>
   23d30:	00100613          	li	a2,1
   23d34:	00400713          	li	a4,4
   23d38:	00261793          	slli	a5,a2,0x2
   23d3c:	01010693          	addi	a3,sp,16
   23d40:	00f687b3          	add	a5,a3,a5
   23d44:	0007a023          	sw	zero,0(a5)
   23d48:	00160613          	addi	a2,a2,1
   23d4c:	fee616e3          	bne	a2,a4,23d38 <__fixtfsi+0xb8>
   23d50:	01012503          	lw	a0,16(sp)
   23d54:	f80808e3          	beqz	a6,23ce4 <__fixtfsi+0x64>
   23d58:	40a00533          	neg	a0,a0
   23d5c:	f89ff06f          	j	23ce4 <__fixtfsi+0x64>
   23d60:	ff062683          	lw	a3,-16(a2)
   23d64:	ff072303          	lw	t1,-16(a4)
   23d68:	011696b3          	sll	a3,a3,a7
   23d6c:	00f35333          	srl	t1,t1,a5
   23d70:	0066e6b3          	or	a3,a3,t1
   23d74:	00d12823          	sw	a3,16(sp)
   23d78:	00100693          	li	a3,1
   23d7c:	fea6c2e3          	blt	a3,a0,23d60 <__fixtfsi+0xe0>
   23d80:	00168613          	addi	a2,a3,1
   23d84:	02010713          	addi	a4,sp,32
   23d88:	00269693          	slli	a3,a3,0x2
   23d8c:	00d706b3          	add	a3,a4,a3
   23d90:	00f5d7b3          	srl	a5,a1,a5
   23d94:	fef6a823          	sw	a5,-16(a3)
   23d98:	f9dff06f          	j	23d34 <__fixtfsi+0xb4>
   23d9c:	00170613          	addi	a2,a4,1
   23da0:	02010893          	addi	a7,sp,32
   23da4:	00300513          	li	a0,3
   23da8:	00261613          	slli	a2,a2,0x2
   23dac:	40e50533          	sub	a0,a0,a4
   23db0:	00c88633          	add	a2,a7,a2
   23db4:	00271713          	slli	a4,a4,0x2
   23db8:	02000893          	li	a7,32
   23dbc:	02010313          	addi	t1,sp,32
   23dc0:	00000693          	li	a3,0
   23dc4:	40f888b3          	sub	a7,a7,a5
   23dc8:	00e30733          	add	a4,t1,a4
   23dcc:	fb1ff06f          	j	23d7c <__fixtfsi+0xfc>

00023dd0 <__floatsitf>:
   23dd0:	fd010113          	addi	sp,sp,-48
   23dd4:	02912223          	sw	s1,36(sp)
   23dd8:	02112623          	sw	ra,44(sp)
   23ddc:	02812423          	sw	s0,40(sp)
   23de0:	03212023          	sw	s2,32(sp)
   23de4:	00050493          	mv	s1,a0
   23de8:	14058c63          	beqz	a1,23f40 <__floatsitf+0x170>
   23dec:	41f5d793          	srai	a5,a1,0x1f
   23df0:	00b7c433          	xor	s0,a5,a1
   23df4:	40f40433          	sub	s0,s0,a5
   23df8:	00040513          	mv	a0,s0
   23dfc:	01f5d913          	srli	s2,a1,0x1f
   23e00:	76c000ef          	jal	ra,2456c <__clzsi2>
   23e04:	000045b7          	lui	a1,0x4
   23e08:	01e58593          	addi	a1,a1,30 # 401e <_start-0xbfe2>
   23e0c:	40a585b3          	sub	a1,a1,a0
   23e10:	05150513          	addi	a0,a0,81 # 80000051 <__global_pointer$+0x7ffd8ae1>
   23e14:	00812823          	sw	s0,16(sp)
   23e18:	00012a23          	sw	zero,20(sp)
   23e1c:	00012c23          	sw	zero,24(sp)
   23e20:	00012e23          	sw	zero,28(sp)
   23e24:	01f57693          	andi	a3,a0,31
   23e28:	04068063          	beqz	a3,23e68 <__floatsitf+0x98>
   23e2c:	05f00713          	li	a4,95
   23e30:	00300793          	li	a5,3
   23e34:	00a74c63          	blt	a4,a0,23e4c <__floatsitf+0x7c>
   23e38:	02000793          	li	a5,32
   23e3c:	40d787b3          	sub	a5,a5,a3
   23e40:	00f457b3          	srl	a5,s0,a5
   23e44:	00f12e23          	sw	a5,28(sp)
   23e48:	00200793          	li	a5,2
   23e4c:	fff78713          	addi	a4,a5,-1
   23e50:	02010613          	addi	a2,sp,32
   23e54:	00279793          	slli	a5,a5,0x2
   23e58:	00f607b3          	add	a5,a2,a5
   23e5c:	00d41433          	sll	s0,s0,a3
   23e60:	fe87a823          	sw	s0,-16(a5)
   23e64:	0500006f          	j	23eb4 <__floatsitf+0xe4>
   23e68:	40555693          	srai	a3,a0,0x5
   23e6c:	00300713          	li	a4,3
   23e70:	40d70733          	sub	a4,a4,a3
   23e74:	02010793          	addi	a5,sp,32
   23e78:	00271713          	slli	a4,a4,0x2
   23e7c:	00e78733          	add	a4,a5,a4
   23e80:	ff072783          	lw	a5,-16(a4)
   23e84:	00200713          	li	a4,2
   23e88:	00f12e23          	sw	a5,28(sp)
   23e8c:	05f00793          	li	a5,95
   23e90:	02a7c263          	blt	a5,a0,23eb4 <__floatsitf+0xe4>
   23e94:	00200793          	li	a5,2
   23e98:	40d787b3          	sub	a5,a5,a3
   23e9c:	02010713          	addi	a4,sp,32
   23ea0:	00279793          	slli	a5,a5,0x2
   23ea4:	00f707b3          	add	a5,a4,a5
   23ea8:	ff07a783          	lw	a5,-16(a5)
   23eac:	00100713          	li	a4,1
   23eb0:	00f12c23          	sw	a5,24(sp)
   23eb4:	fff00693          	li	a3,-1
   23eb8:	00271793          	slli	a5,a4,0x2
   23ebc:	01010613          	addi	a2,sp,16
   23ec0:	00f607b3          	add	a5,a2,a5
   23ec4:	0007a023          	sw	zero,0(a5)
   23ec8:	fff70713          	addi	a4,a4,-1
   23ecc:	fed716e3          	bne	a4,a3,23eb8 <__floatsitf+0xe8>
   23ed0:	01c12783          	lw	a5,28(sp)
   23ed4:	01159593          	slli	a1,a1,0x11
   23ed8:	80010737          	lui	a4,0x80010
   23edc:	00f11623          	sh	a5,12(sp)
   23ee0:	00c12783          	lw	a5,12(sp)
   23ee4:	0115d593          	srli	a1,a1,0x11
   23ee8:	fff70713          	addi	a4,a4,-1 # 8000ffff <__global_pointer$+0x7ffe8a8f>
   23eec:	00e7f7b3          	and	a5,a5,a4
   23ef0:	01059593          	slli	a1,a1,0x10
   23ef4:	00b7e5b3          	or	a1,a5,a1
   23ef8:	01012783          	lw	a5,16(sp)
   23efc:	00159593          	slli	a1,a1,0x1
   23f00:	01f91913          	slli	s2,s2,0x1f
   23f04:	00f4a023          	sw	a5,0(s1)
   23f08:	01412783          	lw	a5,20(sp)
   23f0c:	02c12083          	lw	ra,44(sp)
   23f10:	02812403          	lw	s0,40(sp)
   23f14:	00f4a223          	sw	a5,4(s1)
   23f18:	01812783          	lw	a5,24(sp)
   23f1c:	0015d593          	srli	a1,a1,0x1
   23f20:	0125e5b3          	or	a1,a1,s2
   23f24:	00f4a423          	sw	a5,8(s1)
   23f28:	00b4a623          	sw	a1,12(s1)
   23f2c:	00048513          	mv	a0,s1
   23f30:	02012903          	lw	s2,32(sp)
   23f34:	02412483          	lw	s1,36(sp)
   23f38:	03010113          	addi	sp,sp,48
   23f3c:	00008067          	ret
   23f40:	00012e23          	sw	zero,28(sp)
   23f44:	00012c23          	sw	zero,24(sp)
   23f48:	00012a23          	sw	zero,20(sp)
   23f4c:	00012823          	sw	zero,16(sp)
   23f50:	00000913          	li	s2,0
   23f54:	f7dff06f          	j	23ed0 <__floatsitf+0x100>

00023f58 <__extenddftf2>:
   23f58:	01465793          	srli	a5,a2,0x14
   23f5c:	00c61713          	slli	a4,a2,0xc
   23f60:	7ff7f793          	andi	a5,a5,2047
   23f64:	fd010113          	addi	sp,sp,-48
   23f68:	00c75713          	srli	a4,a4,0xc
   23f6c:	00178693          	addi	a3,a5,1
   23f70:	02812423          	sw	s0,40(sp)
   23f74:	02912223          	sw	s1,36(sp)
   23f78:	02112623          	sw	ra,44(sp)
   23f7c:	00b12823          	sw	a1,16(sp)
   23f80:	00e12a23          	sw	a4,20(sp)
   23f84:	00012e23          	sw	zero,28(sp)
   23f88:	00012c23          	sw	zero,24(sp)
   23f8c:	7fe6f693          	andi	a3,a3,2046
   23f90:	00050493          	mv	s1,a0
   23f94:	01f65413          	srli	s0,a2,0x1f
   23f98:	0a068063          	beqz	a3,24038 <__extenddftf2+0xe0>
   23f9c:	000046b7          	lui	a3,0x4
   23fa0:	c0068693          	addi	a3,a3,-1024 # 3c00 <_start-0xc400>
   23fa4:	0045d513          	srli	a0,a1,0x4
   23fa8:	00d787b3          	add	a5,a5,a3
   23fac:	00475693          	srli	a3,a4,0x4
   23fb0:	01c71713          	slli	a4,a4,0x1c
   23fb4:	00a76733          	or	a4,a4,a0
   23fb8:	01c59593          	slli	a1,a1,0x1c
   23fbc:	00d12e23          	sw	a3,28(sp)
   23fc0:	00e12c23          	sw	a4,24(sp)
   23fc4:	00b12a23          	sw	a1,20(sp)
   23fc8:	00012823          	sw	zero,16(sp)
   23fcc:	01c12703          	lw	a4,28(sp)
   23fd0:	01179793          	slli	a5,a5,0x11
   23fd4:	800106b7          	lui	a3,0x80010
   23fd8:	00e11623          	sh	a4,12(sp)
   23fdc:	00c12703          	lw	a4,12(sp)
   23fe0:	0117d793          	srli	a5,a5,0x11
   23fe4:	fff68693          	addi	a3,a3,-1 # 8000ffff <__global_pointer$+0x7ffe8a8f>
   23fe8:	00d77733          	and	a4,a4,a3
   23fec:	01079793          	slli	a5,a5,0x10
   23ff0:	00f767b3          	or	a5,a4,a5
   23ff4:	01012703          	lw	a4,16(sp)
   23ff8:	00179793          	slli	a5,a5,0x1
   23ffc:	01f41413          	slli	s0,s0,0x1f
   24000:	00e4a023          	sw	a4,0(s1)
   24004:	01412703          	lw	a4,20(sp)
   24008:	0017d793          	srli	a5,a5,0x1
   2400c:	0087e7b3          	or	a5,a5,s0
   24010:	00e4a223          	sw	a4,4(s1)
   24014:	01812703          	lw	a4,24(sp)
   24018:	02c12083          	lw	ra,44(sp)
   2401c:	02812403          	lw	s0,40(sp)
   24020:	00e4a423          	sw	a4,8(s1)
   24024:	00f4a623          	sw	a5,12(s1)
   24028:	00048513          	mv	a0,s1
   2402c:	02412483          	lw	s1,36(sp)
   24030:	03010113          	addi	sp,sp,48
   24034:	00008067          	ret
   24038:	00b76533          	or	a0,a4,a1
   2403c:	0e079463          	bnez	a5,24124 <__extenddftf2+0x1cc>
   24040:	f80506e3          	beqz	a0,23fcc <__extenddftf2+0x74>
   24044:	04070e63          	beqz	a4,240a0 <__extenddftf2+0x148>
   24048:	00070513          	mv	a0,a4
   2404c:	520000ef          	jal	ra,2456c <__clzsi2>
   24050:	03150613          	addi	a2,a0,49
   24054:	40565693          	srai	a3,a2,0x5
   24058:	01f67613          	andi	a2,a2,31
   2405c:	40d00733          	neg	a4,a3
   24060:	04060663          	beqz	a2,240ac <__extenddftf2+0x154>
   24064:	00271713          	slli	a4,a4,0x2
   24068:	01010313          	addi	t1,sp,16
   2406c:	00c70713          	addi	a4,a4,12
   24070:	02000793          	li	a5,32
   24074:	00e30733          	add	a4,t1,a4
   24078:	00269813          	slli	a6,a3,0x2
   2407c:	40c787b3          	sub	a5,a5,a2
   24080:	08e31063          	bne	t1,a4,24100 <__extenddftf2+0x1a8>
   24084:	02010793          	addi	a5,sp,32
   24088:	01078833          	add	a6,a5,a6
   2408c:	01012783          	lw	a5,16(sp)
   24090:	fff68713          	addi	a4,a3,-1
   24094:	00c79633          	sll	a2,a5,a2
   24098:	fec82823          	sw	a2,-16(a6)
   2409c:	0380006f          	j	240d4 <__extenddftf2+0x17c>
   240a0:	4cc000ef          	jal	ra,2456c <__clzsi2>
   240a4:	02050513          	addi	a0,a0,32
   240a8:	fa9ff06f          	j	24050 <__extenddftf2+0xf8>
   240ac:	01c10613          	addi	a2,sp,28
   240b0:	00271713          	slli	a4,a4,0x2
   240b4:	00300793          	li	a5,3
   240b8:	00e605b3          	add	a1,a2,a4
   240bc:	0005a583          	lw	a1,0(a1)
   240c0:	fff78793          	addi	a5,a5,-1
   240c4:	ffc60613          	addi	a2,a2,-4
   240c8:	00b62223          	sw	a1,4(a2)
   240cc:	fed7d6e3          	bge	a5,a3,240b8 <__extenddftf2+0x160>
   240d0:	fff68713          	addi	a4,a3,-1
   240d4:	fff00693          	li	a3,-1
   240d8:	00271793          	slli	a5,a4,0x2
   240dc:	01010613          	addi	a2,sp,16
   240e0:	00f607b3          	add	a5,a2,a5
   240e4:	0007a023          	sw	zero,0(a5)
   240e8:	fff70713          	addi	a4,a4,-1
   240ec:	fed716e3          	bne	a4,a3,240d8 <__extenddftf2+0x180>
   240f0:	000047b7          	lui	a5,0x4
   240f4:	c0c78793          	addi	a5,a5,-1012 # 3c0c <_start-0xc3f4>
   240f8:	40a787b3          	sub	a5,a5,a0
   240fc:	ed1ff06f          	j	23fcc <__extenddftf2+0x74>
   24100:	ffc72583          	lw	a1,-4(a4)
   24104:	00072883          	lw	a7,0(a4)
   24108:	01070e33          	add	t3,a4,a6
   2410c:	00f5d5b3          	srl	a1,a1,a5
   24110:	00c898b3          	sll	a7,a7,a2
   24114:	0115e5b3          	or	a1,a1,a7
   24118:	00be2023          	sw	a1,0(t3)
   2411c:	ffc70713          	addi	a4,a4,-4
   24120:	f61ff06f          	j	24080 <__extenddftf2+0x128>
   24124:	000087b7          	lui	a5,0x8
   24128:	02050863          	beqz	a0,24158 <__extenddftf2+0x200>
   2412c:	01c71793          	slli	a5,a4,0x1c
   24130:	0045d693          	srli	a3,a1,0x4
   24134:	00d7e7b3          	or	a5,a5,a3
   24138:	00f12c23          	sw	a5,24(sp)
   2413c:	00475713          	srli	a4,a4,0x4
   24140:	000087b7          	lui	a5,0x8
   24144:	01c59593          	slli	a1,a1,0x1c
   24148:	00f76733          	or	a4,a4,a5
   2414c:	00b12a23          	sw	a1,20(sp)
   24150:	00012823          	sw	zero,16(sp)
   24154:	00e12e23          	sw	a4,28(sp)
   24158:	fff78793          	addi	a5,a5,-1 # 7fff <_start-0x8001>
   2415c:	e71ff06f          	j	23fcc <__extenddftf2+0x74>

00024160 <__trunctfdf2>:
   24160:	00c52583          	lw	a1,12(a0)
   24164:	00852783          	lw	a5,8(a0)
   24168:	00452703          	lw	a4,4(a0)
   2416c:	fe010113          	addi	sp,sp,-32
   24170:	00052683          	lw	a3,0(a0)
   24174:	00f12423          	sw	a5,8(sp)
   24178:	00f12c23          	sw	a5,24(sp)
   2417c:	01059793          	slli	a5,a1,0x10
   24180:	00e12223          	sw	a4,4(sp)
   24184:	00e12a23          	sw	a4,20(sp)
   24188:	0107d793          	srli	a5,a5,0x10
   2418c:	00159713          	slli	a4,a1,0x1
   24190:	00b12623          	sw	a1,12(sp)
   24194:	00d12023          	sw	a3,0(sp)
   24198:	00d12823          	sw	a3,16(sp)
   2419c:	00f12e23          	sw	a5,28(sp)
   241a0:	01175713          	srli	a4,a4,0x11
   241a4:	01f5d593          	srli	a1,a1,0x1f
   241a8:	01010313          	addi	t1,sp,16
   241ac:	01c10613          	addi	a2,sp,28
   241b0:	00062783          	lw	a5,0(a2)
   241b4:	ffc62683          	lw	a3,-4(a2)
   241b8:	ffc60613          	addi	a2,a2,-4
   241bc:	00379793          	slli	a5,a5,0x3
   241c0:	01d6d693          	srli	a3,a3,0x1d
   241c4:	00d7e7b3          	or	a5,a5,a3
   241c8:	00f62223          	sw	a5,4(a2)
   241cc:	fec312e3          	bne	t1,a2,241b0 <__trunctfdf2+0x50>
   241d0:	01012683          	lw	a3,16(sp)
   241d4:	00170793          	addi	a5,a4,1
   241d8:	00369513          	slli	a0,a3,0x3
   241dc:	000086b7          	lui	a3,0x8
   241e0:	ffe68693          	addi	a3,a3,-2 # 7ffe <_start-0x8002>
   241e4:	00a12823          	sw	a0,16(sp)
   241e8:	00d7f7b3          	and	a5,a5,a3
   241ec:	1a078a63          	beqz	a5,243a0 <__trunctfdf2+0x240>
   241f0:	ffffc7b7          	lui	a5,0xffffc
   241f4:	40078793          	addi	a5,a5,1024 # ffffc400 <__global_pointer$+0xfffd4e90>
   241f8:	00f70733          	add	a4,a4,a5
   241fc:	7fe00793          	li	a5,2046
   24200:	1ee7cc63          	blt	a5,a4,243f8 <__trunctfdf2+0x298>
   24204:	06e05863          	blez	a4,24274 <__trunctfdf2+0x114>
   24208:	01812803          	lw	a6,24(sp)
   2420c:	01c12603          	lw	a2,28(sp)
   24210:	01412783          	lw	a5,20(sp)
   24214:	01c85693          	srli	a3,a6,0x1c
   24218:	00461613          	slli	a2,a2,0x4
   2421c:	00d66633          	or	a2,a2,a3
   24220:	00479693          	slli	a3,a5,0x4
   24224:	00a6e6b3          	or	a3,a3,a0
   24228:	01c7d793          	srli	a5,a5,0x1c
   2422c:	00481813          	slli	a6,a6,0x4
   24230:	00d036b3          	snez	a3,a3
   24234:	0107e7b3          	or	a5,a5,a6
   24238:	00f6e6b3          	or	a3,a3,a5
   2423c:	00c12a23          	sw	a2,20(sp)
   24240:	00d12823          	sw	a3,16(sp)
   24244:	01012683          	lw	a3,16(sp)
   24248:	01412783          	lw	a5,20(sp)
   2424c:	0076f613          	andi	a2,a3,7
   24250:	1a060a63          	beqz	a2,24404 <__trunctfdf2+0x2a4>
   24254:	00f6f613          	andi	a2,a3,15
   24258:	00400513          	li	a0,4
   2425c:	1aa60463          	beq	a2,a0,24404 <__trunctfdf2+0x2a4>
   24260:	00468613          	addi	a2,a3,4
   24264:	00d636b3          	sltu	a3,a2,a3
   24268:	00d787b3          	add	a5,a5,a3
   2426c:	00060693          	mv	a3,a2
   24270:	1940006f          	j	24404 <__trunctfdf2+0x2a4>
   24274:	fcc00793          	li	a5,-52
   24278:	00f75c63          	bge	a4,a5,24290 <__trunctfdf2+0x130>
   2427c:	00012a23          	sw	zero,20(sp)
   24280:	00100793          	li	a5,1
   24284:	00f12823          	sw	a5,16(sp)
   24288:	00000713          	li	a4,0
   2428c:	fb9ff06f          	j	24244 <__trunctfdf2+0xe4>
   24290:	01c12783          	lw	a5,28(sp)
   24294:	000806b7          	lui	a3,0x80
   24298:	00000e13          	li	t3,0
   2429c:	00d7e7b3          	or	a5,a5,a3
   242a0:	00f12e23          	sw	a5,28(sp)
   242a4:	03d00793          	li	a5,61
   242a8:	40e78733          	sub	a4,a5,a4
   242ac:	40575513          	srai	a0,a4,0x5
   242b0:	00030693          	mv	a3,t1
   242b4:	01f77713          	andi	a4,a4,31
   242b8:	00000793          	li	a5,0
   242bc:	0006a803          	lw	a6,0(a3) # 80000 <__global_pointer$+0x58a90>
   242c0:	00178793          	addi	a5,a5,1
   242c4:	00468693          	addi	a3,a3,4
   242c8:	010e6e33          	or	t3,t3,a6
   242cc:	fef518e3          	bne	a0,a5,242bc <__trunctfdf2+0x15c>
   242d0:	00251693          	slli	a3,a0,0x2
   242d4:	04071663          	bnez	a4,24320 <__trunctfdf2+0x1c0>
   242d8:	00300793          	li	a5,3
   242dc:	40a78533          	sub	a0,a5,a0
   242e0:	00d607b3          	add	a5,a2,a3
   242e4:	0007a783          	lw	a5,0(a5)
   242e8:	00170713          	addi	a4,a4,1
   242ec:	00460613          	addi	a2,a2,4
   242f0:	fef62e23          	sw	a5,-4(a2)
   242f4:	fee556e3          	bge	a0,a4,242e0 <__trunctfdf2+0x180>
   242f8:	00400693          	li	a3,4
   242fc:	00271793          	slli	a5,a4,0x2
   24300:	00f307b3          	add	a5,t1,a5
   24304:	0007a023          	sw	zero,0(a5)
   24308:	00170713          	addi	a4,a4,1
   2430c:	fed718e3          	bne	a4,a3,242fc <__trunctfdf2+0x19c>
   24310:	01012703          	lw	a4,16(sp)
   24314:	01c037b3          	snez	a5,t3
   24318:	00f767b3          	or	a5,a4,a5
   2431c:	f69ff06f          	j	24284 <__trunctfdf2+0x124>
   24320:	02010793          	addi	a5,sp,32
   24324:	00d787b3          	add	a5,a5,a3
   24328:	ff07a783          	lw	a5,-16(a5)
   2432c:	02000893          	li	a7,32
   24330:	40e888b3          	sub	a7,a7,a4
   24334:	011797b3          	sll	a5,a5,a7
   24338:	00fe6e33          	or	t3,t3,a5
   2433c:	00300793          	li	a5,3
   24340:	00d306b3          	add	a3,t1,a3
   24344:	00000813          	li	a6,0
   24348:	40a787b3          	sub	a5,a5,a0
   2434c:	00468693          	addi	a3,a3,4
   24350:	02f84463          	blt	a6,a5,24378 <__trunctfdf2+0x218>
   24354:	02010693          	addi	a3,sp,32
   24358:	00279793          	slli	a5,a5,0x2
   2435c:	00f687b3          	add	a5,a3,a5
   24360:	01c12683          	lw	a3,28(sp)
   24364:	00e6d733          	srl	a4,a3,a4
   24368:	fee7a823          	sw	a4,-16(a5)
   2436c:	00400713          	li	a4,4
   24370:	40a70733          	sub	a4,a4,a0
   24374:	f85ff06f          	j	242f8 <__trunctfdf2+0x198>
   24378:	ffc6a603          	lw	a2,-4(a3)
   2437c:	0006af03          	lw	t5,0(a3)
   24380:	00281e93          	slli	t4,a6,0x2
   24384:	00e65633          	srl	a2,a2,a4
   24388:	011f1f33          	sll	t5,t5,a7
   2438c:	01d30eb3          	add	t4,t1,t4
   24390:	01e66633          	or	a2,a2,t5
   24394:	00cea023          	sw	a2,0(t4)
   24398:	00180813          	addi	a6,a6,1
   2439c:	fb1ff06f          	j	2434c <__trunctfdf2+0x1ec>
   243a0:	01412603          	lw	a2,20(sp)
   243a4:	01812783          	lw	a5,24(sp)
   243a8:	01c12803          	lw	a6,28(sp)
   243ac:	00f666b3          	or	a3,a2,a5
   243b0:	0106e6b3          	or	a3,a3,a6
   243b4:	00a6e6b3          	or	a3,a3,a0
   243b8:	00071863          	bnez	a4,243c8 <__trunctfdf2+0x268>
   243bc:	00d036b3          	snez	a3,a3
   243c0:	00000793          	li	a5,0
   243c4:	e89ff06f          	j	2424c <__trunctfdf2+0xec>
   243c8:	0a068c63          	beqz	a3,24480 <__trunctfdf2+0x320>
   243cc:	01c65693          	srli	a3,a2,0x1c
   243d0:	00481813          	slli	a6,a6,0x4
   243d4:	00479613          	slli	a2,a5,0x4
   243d8:	01c7d793          	srli	a5,a5,0x1c
   243dc:	00400737          	lui	a4,0x400
   243e0:	00c6e6b3          	or	a3,a3,a2
   243e4:	0107e7b3          	or	a5,a5,a6
   243e8:	00e7e7b3          	or	a5,a5,a4
   243ec:	ff86f693          	andi	a3,a3,-8
   243f0:	7ff00713          	li	a4,2047
   243f4:	e59ff06f          	j	2424c <__trunctfdf2+0xec>
   243f8:	00000793          	li	a5,0
   243fc:	00000693          	li	a3,0
   24400:	7ff00713          	li	a4,2047
   24404:	00879613          	slli	a2,a5,0x8
   24408:	00065e63          	bgez	a2,24424 <__trunctfdf2+0x2c4>
   2440c:	00170713          	addi	a4,a4,1 # 400001 <__global_pointer$+0x3d8a91>
   24410:	7ff00613          	li	a2,2047
   24414:	06c70a63          	beq	a4,a2,24488 <__trunctfdf2+0x328>
   24418:	ff800637          	lui	a2,0xff800
   2441c:	fff60613          	addi	a2,a2,-1 # ff7fffff <__global_pointer$+0xff7d8a8f>
   24420:	00c7f7b3          	and	a5,a5,a2
   24424:	01d79613          	slli	a2,a5,0x1d
   24428:	0036d693          	srli	a3,a3,0x3
   2442c:	00d666b3          	or	a3,a2,a3
   24430:	7ff00613          	li	a2,2047
   24434:	0037d793          	srli	a5,a5,0x3
   24438:	00c71e63          	bne	a4,a2,24454 <__trunctfdf2+0x2f4>
   2443c:	00f6e6b3          	or	a3,a3,a5
   24440:	00000793          	li	a5,0
   24444:	00068863          	beqz	a3,24454 <__trunctfdf2+0x2f4>
   24448:	000807b7          	lui	a5,0x80
   2444c:	00000693          	li	a3,0
   24450:	00000593          	li	a1,0
   24454:	00c79793          	slli	a5,a5,0xc
   24458:	7ff77713          	andi	a4,a4,2047
   2445c:	01471713          	slli	a4,a4,0x14
   24460:	00c7d793          	srli	a5,a5,0xc
   24464:	01f59593          	slli	a1,a1,0x1f
   24468:	00e7e7b3          	or	a5,a5,a4
   2446c:	00b7e733          	or	a4,a5,a1
   24470:	00068513          	mv	a0,a3
   24474:	00070593          	mv	a1,a4
   24478:	02010113          	addi	sp,sp,32
   2447c:	00008067          	ret
   24480:	00000793          	li	a5,0
   24484:	f7dff06f          	j	24400 <__trunctfdf2+0x2a0>
   24488:	00000793          	li	a5,0
   2448c:	00000693          	li	a3,0
   24490:	f95ff06f          	j	24424 <__trunctfdf2+0x2c4>

00024494 <__mulsi3>:
   24494:	00050613          	mv	a2,a0
   24498:	00000513          	li	a0,0
   2449c:	0015f693          	andi	a3,a1,1
   244a0:	00068463          	beqz	a3,244a8 <__mulsi3+0x14>
   244a4:	00c50533          	add	a0,a0,a2
   244a8:	0015d593          	srli	a1,a1,0x1
   244ac:	00161613          	slli	a2,a2,0x1
   244b0:	fe0596e3          	bnez	a1,2449c <__mulsi3+0x8>
   244b4:	00008067          	ret

000244b8 <__divsi3>:
   244b8:	06054063          	bltz	a0,24518 <__umodsi3+0x10>
   244bc:	0605c663          	bltz	a1,24528 <__umodsi3+0x20>

000244c0 <__udivsi3>:
   244c0:	00058613          	mv	a2,a1
   244c4:	00050593          	mv	a1,a0
   244c8:	fff00513          	li	a0,-1
   244cc:	02060c63          	beqz	a2,24504 <__udivsi3+0x44>
   244d0:	00100693          	li	a3,1
   244d4:	00b67a63          	bgeu	a2,a1,244e8 <__udivsi3+0x28>
   244d8:	00c05863          	blez	a2,244e8 <__udivsi3+0x28>
   244dc:	00161613          	slli	a2,a2,0x1
   244e0:	00169693          	slli	a3,a3,0x1
   244e4:	feb66ae3          	bltu	a2,a1,244d8 <__udivsi3+0x18>
   244e8:	00000513          	li	a0,0
   244ec:	00c5e663          	bltu	a1,a2,244f8 <__udivsi3+0x38>
   244f0:	40c585b3          	sub	a1,a1,a2
   244f4:	00d56533          	or	a0,a0,a3
   244f8:	0016d693          	srli	a3,a3,0x1
   244fc:	00165613          	srli	a2,a2,0x1
   24500:	fe0696e3          	bnez	a3,244ec <__udivsi3+0x2c>
   24504:	00008067          	ret

00024508 <__umodsi3>:
   24508:	00008293          	mv	t0,ra
   2450c:	fb5ff0ef          	jal	ra,244c0 <__udivsi3>
   24510:	00058513          	mv	a0,a1
   24514:	00028067          	jr	t0
   24518:	40a00533          	neg	a0,a0
   2451c:	0005d863          	bgez	a1,2452c <__umodsi3+0x24>
   24520:	40b005b3          	neg	a1,a1
   24524:	f9dff06f          	j	244c0 <__udivsi3>
   24528:	40b005b3          	neg	a1,a1
   2452c:	00008293          	mv	t0,ra
   24530:	f91ff0ef          	jal	ra,244c0 <__udivsi3>
   24534:	40a00533          	neg	a0,a0
   24538:	00028067          	jr	t0

0002453c <__modsi3>:
   2453c:	00008293          	mv	t0,ra
   24540:	0005ca63          	bltz	a1,24554 <__modsi3+0x18>
   24544:	00054c63          	bltz	a0,2455c <__modsi3+0x20>
   24548:	f79ff0ef          	jal	ra,244c0 <__udivsi3>
   2454c:	00058513          	mv	a0,a1
   24550:	00028067          	jr	t0
   24554:	40b005b3          	neg	a1,a1
   24558:	fe0558e3          	bgez	a0,24548 <__modsi3+0xc>
   2455c:	40a00533          	neg	a0,a0
   24560:	f61ff0ef          	jal	ra,244c0 <__udivsi3>
   24564:	40b00533          	neg	a0,a1
   24568:	00028067          	jr	t0

0002456c <__clzsi2>:
   2456c:	000107b7          	lui	a5,0x10
   24570:	02f57a63          	bgeu	a0,a5,245a4 <__clzsi2+0x38>
   24574:	0ff00793          	li	a5,255
   24578:	00a7b7b3          	sltu	a5,a5,a0
   2457c:	00379793          	slli	a5,a5,0x3
   24580:	02000713          	li	a4,32
   24584:	40f70733          	sub	a4,a4,a5
   24588:	00f557b3          	srl	a5,a0,a5
   2458c:	00001517          	auipc	a0,0x1
   24590:	c8050513          	addi	a0,a0,-896 # 2520c <__clz_tab>
   24594:	00f507b3          	add	a5,a0,a5
   24598:	0007c503          	lbu	a0,0(a5) # 10000 <_start>
   2459c:	40a70533          	sub	a0,a4,a0
   245a0:	00008067          	ret
   245a4:	01000737          	lui	a4,0x1000
   245a8:	01000793          	li	a5,16
   245ac:	fce56ae3          	bltu	a0,a4,24580 <__clzsi2+0x14>
   245b0:	01800793          	li	a5,24
   245b4:	fcdff06f          	j	24580 <__clzsi2+0x14>

000245b8 <register_fini>:
   245b8:	fffdc797          	auipc	a5,0xfffdc
   245bc:	a4878793          	addi	a5,a5,-1464 # 0 <_start-0x10000>
   245c0:	00078863          	beqz	a5,245d0 <register_fini+0x18>
   245c4:	fffec517          	auipc	a0,0xfffec
   245c8:	d7450513          	addi	a0,a0,-652 # 10338 <__libc_fini_array>
   245cc:	d19eb06f          	j	102e4 <atexit>
   245d0:	00008067          	ret
